ccopy_reg
_reconstructor
p0
(cperceptron
PerceptronMargin
p1
c__builtin__
object
p2
Ntp3
Rp4
(dp5
S'instances'
p6
(lp7
(ics475_types
Instance
p8
(dp9
S'_feature_vector'
p10
(ics475_types
FeatureVector
p11
(dp12
S'features'
p13
(dp14
I8
F1.0
sI1
F-0.112217
sI2
F0.077192
sI3
F-0.530494
sI4
F0.340633
ssbsS'_label'
p15
g0
(ccs475_types
ClassificationLabel
p16
g2
Ntp17
Rp18
(dp19
S'label'
p20
I1
sbsba(ics475_types
Instance
p21
(dp22
g10
(ics475_types
FeatureVector
p23
(dp24
g13
(dp25
I1
F0.418255
sI2
F-1.791584
sI3
F0.884365
sI4
F-0.741727
sI9
F1.0
ssbsg15
g0
(g16
g2
Ntp26
Rp27
(dp28
g20
I1
sbsba(ics475_types
Instance
p29
(dp30
g10
(ics475_types
FeatureVector
p31
(dp32
g13
(dp33
I1
F-0.44277
sI2
F1.003074
sI3
F-1.28595
sI4
F-0.176745
sI10
F1.0
ssbsg15
g0
(g16
g2
Ntp34
Rp35
(dp36
g20
I1
sbsba(ics475_types
Instance
p37
(dp38
g10
(ics475_types
FeatureVector
p39
(dp40
g13
(dp41
I8
F1.0
sI1
F-0.368072
sI2
F0.945647
sI3
F-0.151802
sI4
F0.504634
ssbsg15
g0
(g16
g2
Ntp42
Rp43
(dp44
g20
I1
sbsba(ics475_types
Instance
p45
(dp46
g10
(ics475_types
FeatureVector
p47
(dp48
g13
(dp49
I1
F0.496442
sI2
F-0.290597
sI3
F-1.174111
sI4
F-0.169832
sI5
F1.0
ssbsg15
g0
(g16
g2
Ntp50
Rp51
(dp52
g20
I0
sbsba(ics475_types
Instance
p53
(dp54
g10
(ics475_types
FeatureVector
p55
(dp56
g13
(dp57
I8
F1.0
sI1
F-1.257386
sI2
F1.84973
sI3
F-1.654297
sI4
F-0.183782
ssbsg15
g0
(g16
g2
Ntp58
Rp59
(dp60
g20
I1
sbsba(ics475_types
Instance
p61
(dp62
g10
(ics475_types
FeatureVector
p63
(dp64
g13
(dp65
I1
F-1.205734
sI2
F-0.181532
sI3
F0.110738
sI4
F0.000582
sI10
F1.0
ssbsg15
g0
(g16
g2
Ntp66
Rp67
(dp68
g20
I1
sbsba(ics475_types
Instance
p69
(dp70
g10
(ics475_types
FeatureVector
p71
(dp72
g13
(dp73
I8
F1.0
sI1
F-0.183609
sI2
F-0.863808
sI3
F0.78835
sI4
F-0.736534
ssbsg15
g0
(g16
g2
Ntp74
Rp75
(dp76
g20
I1
sbsba(ics475_types
Instance
p77
(dp78
g10
(ics475_types
FeatureVector
p79
(dp80
g13
(dp81
I1
F0.291384
sI2
F1.53337
sI3
F0.186509
sI4
F-0.763965
sI9
F1.0
ssbsg15
g0
(g16
g2
Ntp82
Rp83
(dp84
g20
I1
sbsba(ics475_types
Instance
p85
(dp86
g10
(ics475_types
FeatureVector
p87
(dp88
g13
(dp89
I1
F0.937331
sI2
F0.301527
sI3
F-0.904494
sI4
F-0.109617
sI7
F1.0
ssbsg15
g0
(g16
g2
Ntp90
Rp91
(dp92
g20
I0
sbsba(ics475_types
Instance
p93
(dp94
g10
(ics475_types
FeatureVector
p95
(dp96
g13
(dp97
I1
F0.625607
sI2
F-1.807629
sI3
F0.391466
sI4
F-0.633739
sI5
F1.0
ssbsg15
g0
(g16
g2
Ntp98
Rp99
(dp100
g20
I0
sbsba(ics475_types
Instance
p101
(dp102
g10
(ics475_types
FeatureVector
p103
(dp104
g13
(dp105
I1
F-1.440043
sI2
F-1.586683
sI3
F0.514034
sI4
F-1.117215
sI7
F1.0
ssbsg15
g0
(g16
g2
Ntp106
Rp107
(dp108
g20
I0
sbsba(ics475_types
Instance
p109
(dp110
g10
(ics475_types
FeatureVector
p111
(dp112
g13
(dp113
I1
F-0.784996
sI2
F-1.138552
sI3
F-0.546957
sI4
F0.788098
sI6
F1.0
ssbsg15
g0
(g16
g2
Ntp114
Rp115
(dp116
g20
I0
sbsba(ics475_types
Instance
p117
(dp118
g10
(ics475_types
FeatureVector
p119
(dp120
g13
(dp121
I1
F0.607739
sI2
F-0.378471
sI3
F-0.263483
sI4
F-0.126682
sI6
F1.0
ssbsg15
g0
(g16
g2
Ntp122
Rp123
(dp124
g20
I0
sbsba(ics475_types
Instance
p125
(dp126
g10
(ics475_types
FeatureVector
p127
(dp128
g13
(dp129
I1
F-0.933925
sI2
F1.362723
sI3
F-0.555621
sI4
F-1.172347
sI5
F1.0
ssbsg15
g0
(g16
g2
Ntp130
Rp131
(dp132
g20
I0
sbsba(ics475_types
Instance
p133
(dp134
g10
(ics475_types
FeatureVector
p135
(dp136
g13
(dp137
I1
F-1.549427
sI2
F0.059314
sI3
F-0.112048
sI4
F-2.133836
sI6
F1.0
ssbsg15
g0
(g16
g2
Ntp138
Rp139
(dp140
g20
I0
sbsba(ics475_types
Instance
p141
(dp142
g10
(ics475_types
FeatureVector
p143
(dp144
g13
(dp145
I1
F0.196596
sI2
F-0.165536
sI3
F-0.650892
sI4
F-0.949519
sI6
F1.0
ssbsg15
g0
(g16
g2
Ntp146
Rp147
(dp148
g20
I0
sbsba(ics475_types
Instance
p149
(dp150
g10
(ics475_types
FeatureVector
p151
(dp152
g13
(dp153
I1
F1.109241
sI2
F0.807979
sI3
F-1.082674
sI4
F0.456524
sI9
F1.0
ssbsg15
g0
(g16
g2
Ntp154
Rp155
(dp156
g20
I1
sbsba(ics475_types
Instance
p157
(dp158
g10
(ics475_types
FeatureVector
p159
(dp160
g13
(dp161
I1
F0.38269
sI2
F0.55399
sI3
F-0.446385
sI4
F-0.612459
sI7
F1.0
ssbsg15
g0
(g16
g2
Ntp162
Rp163
(dp164
g20
I0
sbsba(ics475_types
Instance
p165
(dp166
g10
(ics475_types
FeatureVector
p167
(dp168
g13
(dp169
I8
F1.0
sI1
F0.284214
sI2
F0.623747
sI3
F-0.851695
sI4
F2.039592
ssbsg15
g0
(g16
g2
Ntp170
Rp171
(dp172
g20
I1
sbsba(ics475_types
Instance
p173
(dp174
g10
(ics475_types
FeatureVector
p175
(dp176
g13
(dp177
I1
F-0.07862
sI2
F-0.061729
sI3
F-2.078946
sI4
F-1.911503
sI5
F1.0
ssbsg15
g0
(g16
g2
Ntp178
Rp179
(dp180
g20
I0
sbsba(ics475_types
Instance
p181
(dp182
g10
(ics475_types
FeatureVector
p183
(dp184
g13
(dp185
I1
F0.232776
sI2
F0.830675
sI3
F0.584581
sI4
F0.529514
sI5
F1.0
ssbsg15
g0
(g16
g2
Ntp186
Rp187
(dp188
g20
I0
sbsba(ics475_types
Instance
p189
(dp190
g10
(ics475_types
FeatureVector
p191
(dp192
g13
(dp193
I1
F-0.346572
sI2
F0.288246
sI3
F1.473406
sI4
F-1.262912
sI5
F1.0
ssbsg15
g0
(g16
g2
Ntp194
Rp195
(dp196
g20
I0
sbsba(ics475_types
Instance
p197
(dp198
g10
(ics475_types
FeatureVector
p199
(dp200
g13
(dp201
I1
F-0.117195
sI2
F1.349679
sI3
F0.168564
sI4
F-1.632714
sI10
F1.0
ssbsg15
g0
(g16
g2
Ntp202
Rp203
(dp204
g20
I1
sbsba(ics475_types
Instance
p205
(dp206
g10
(ics475_types
FeatureVector
p207
(dp208
g13
(dp209
I1
F0.375512
sI2
F-0.671297
sI3
F1.546318
sI4
F1.533762
sI9
F1.0
ssbsg15
g0
(g16
g2
Ntp210
Rp211
(dp212
g20
I1
sbsba(ics475_types
Instance
p213
(dp214
g10
(ics475_types
FeatureVector
p215
(dp216
g13
(dp217
I1
F0.410482
sI2
F0.53536
sI3
F-0.893148
sI4
F3.667329
sI7
F1.0
ssbsg15
g0
(g16
g2
Ntp218
Rp219
(dp220
g20
I0
sbsba(ics475_types
Instance
p221
(dp222
g10
(ics475_types
FeatureVector
p223
(dp224
g13
(dp225
I1
F1.420279
sI2
F-0.728764
sI3
F1.169741
sI4
F0.826671
sI7
F1.0
ssbsg15
g0
(g16
g2
Ntp226
Rp227
(dp228
g20
I0
sbsba(ics475_types
Instance
p229
(dp230
g10
(ics475_types
FeatureVector
p231
(dp232
g13
(dp233
I1
F0.803621
sI2
F0.15873
sI3
F1.03316
sI4
F-0.28042
sI10
F1.0
ssbsg15
g0
(g16
g2
Ntp234
Rp235
(dp236
g20
I1
sbsba(ics475_types
Instance
p237
(dp238
g10
(ics475_types
FeatureVector
p239
(dp240
g13
(dp241
I1
F0.585178
sI2
F-0.779392
sI3
F1.00869
sI4
F-1.148955
sI5
F1.0
ssbsg15
g0
(g16
g2
Ntp242
Rp243
(dp244
g20
I0
sbsba(ics475_types
Instance
p245
(dp246
g10
(ics475_types
FeatureVector
p247
(dp248
g13
(dp249
I1
F-0.706122
sI2
F-0.154744
sI3
F0.295479
sI4
F0.313737
sI9
F1.0
ssbsg15
g0
(g16
g2
Ntp250
Rp251
(dp252
g20
I1
sbsba(ics475_types
Instance
p253
(dp254
g10
(ics475_types
FeatureVector
p255
(dp256
g13
(dp257
I1
F0.459037
sI2
F-0.135745
sI3
F0.443306
sI4
F0.204012
sI6
F1.0
ssbsg15
g0
(g16
g2
Ntp258
Rp259
(dp260
g20
I0
sbsba(ics475_types
Instance
p261
(dp262
g10
(ics475_types
FeatureVector
p263
(dp264
g13
(dp265
I1
F0.103573
sI2
F-0.633381
sI3
F-1.375783
sI4
F1.281847
sI10
F1.0
ssbsg15
g0
(g16
g2
Ntp266
Rp267
(dp268
g20
I1
sbsba(ics475_types
Instance
p269
(dp270
g10
(ics475_types
FeatureVector
p271
(dp272
g13
(dp273
I1
F0.741908
sI2
F-0.595073
sI3
F-0.053839
sI4
F0.052515
sI9
F1.0
ssbsg15
g0
(g16
g2
Ntp274
Rp275
(dp276
g20
I1
sbsba(ics475_types
Instance
p277
(dp278
g10
(ics475_types
FeatureVector
p279
(dp280
g13
(dp281
I1
F-0.074187
sI2
F0.623509
sI3
F1.398824
sI4
F-0.220245
sI5
F1.0
ssbsg15
g0
(g16
g2
Ntp282
Rp283
(dp284
g20
I0
sbsba(ics475_types
Instance
p285
(dp286
g10
(ics475_types
FeatureVector
p287
(dp288
g13
(dp289
I1
F0.589672
sI2
F-1.002789
sI3
F0.367023
sI4
F-0.679353
sI7
F1.0
ssbsg15
g0
(g16
g2
Ntp290
Rp291
(dp292
g20
I0
sbsba(ics475_types
Instance
p293
(dp294
g10
(ics475_types
FeatureVector
p295
(dp296
g13
(dp297
I1
F0.309676
sI2
F-0.590305
sI3
F-2.075713
sI4
F-0.060309
sI9
F1.0
ssbsg15
g0
(g16
g2
Ntp298
Rp299
(dp300
g20
I1
sbsba(ics475_types
Instance
p301
(dp302
g10
(ics475_types
FeatureVector
p303
(dp304
g13
(dp305
I1
F-1.780751
sI2
F1.502719
sI3
F1.328392
sI4
F-1.688231
sI5
F1.0
ssbsg15
g0
(g16
g2
Ntp306
Rp307
(dp308
g20
I0
sbsba(ics475_types
Instance
p309
(dp310
g10
(ics475_types
FeatureVector
p311
(dp312
g13
(dp313
I1
F0.072824
sI2
F0.206433
sI3
F-0.669066
sI4
F-1.435707
sI6
F1.0
ssbsg15
g0
(g16
g2
Ntp314
Rp315
(dp316
g20
I0
sbsba(ics475_types
Instance
p317
(dp318
g10
(ics475_types
FeatureVector
p319
(dp320
g13
(dp321
I1
F-0.52503
sI2
F-2.156808
sI3
F1.494006
sI4
F-0.107008
sI6
F1.0
ssbsg15
g0
(g16
g2
Ntp322
Rp323
(dp324
g20
I0
sbsba(ics475_types
Instance
p325
(dp326
g10
(ics475_types
FeatureVector
p327
(dp328
g13
(dp329
I1
F0.078029
sI2
F-1.038748
sI3
F0.335718
sI4
F0.286137
sI5
F1.0
ssbsg15
g0
(g16
g2
Ntp330
Rp331
(dp332
g20
I0
sbsba(ics475_types
Instance
p333
(dp334
g10
(ics475_types
FeatureVector
p335
(dp336
g13
(dp337
I1
F-0.975461
sI2
F-0.056539
sI3
F0.83174
sI4
F-0.137747
sI7
F1.0
ssbsg15
g0
(g16
g2
Ntp338
Rp339
(dp340
g20
I0
sbsba(ics475_types
Instance
p341
(dp342
g10
(ics475_types
FeatureVector
p343
(dp344
g13
(dp345
I1
F0.817581
sI2
F-0.138677
sI3
F2.004725
sI4
F0.465134
sI9
F1.0
ssbsg15
g0
(g16
g2
Ntp346
Rp347
(dp348
g20
I1
sbsba(ics475_types
Instance
p349
(dp350
g10
(ics475_types
FeatureVector
p351
(dp352
g13
(dp353
I1
F1.680202
sI2
F-0.433239
sI3
F2.996395
sI4
F1.183242
sI6
F1.0
ssbsg15
g0
(g16
g2
Ntp354
Rp355
(dp356
g20
I0
sbsba(ics475_types
Instance
p357
(dp358
g10
(ics475_types
FeatureVector
p359
(dp360
g13
(dp361
I1
F-1.336528
sI2
F0.73183
sI3
F-1.067752
sI4
F1.758691
sI9
F1.0
ssbsg15
g0
(g16
g2
Ntp362
Rp363
(dp364
g20
I1
sbsba(ics475_types
Instance
p365
(dp366
g10
(ics475_types
FeatureVector
p367
(dp368
g13
(dp369
I1
F-3.363115
sI2
F1.817824
sI3
F-0.115819
sI4
F-0.805638
sI9
F1.0
ssbsg15
g0
(g16
g2
Ntp370
Rp371
(dp372
g20
I1
sbsba(ics475_types
Instance
p373
(dp374
g10
(ics475_types
FeatureVector
p375
(dp376
g13
(dp377
I8
F1.0
sI1
F2.351289
sI2
F-1.618942
sI3
F0.290146
sI4
F0.110359
ssbsg15
g0
(g16
g2
Ntp378
Rp379
(dp380
g20
I1
sbsba(ics475_types
Instance
p381
(dp382
g10
(ics475_types
FeatureVector
p383
(dp384
g13
(dp385
I1
F1.049079
sI2
F1.373082
sI3
F0.2905
sI4
F0.003329
sI5
F1.0
ssbsg15
g0
(g16
g2
Ntp386
Rp387
(dp388
g20
I0
sbsba(ics475_types
Instance
p389
(dp390
g10
(ics475_types
FeatureVector
p391
(dp392
g13
(dp393
I1
F0.568289
sI2
F0.153605
sI3
F0.539274
sI4
F0.408123
sI9
F1.0
ssbsg15
g0
(g16
g2
Ntp394
Rp395
(dp396
g20
I1
sbsba(ics475_types
Instance
p397
(dp398
g10
(ics475_types
FeatureVector
p399
(dp400
g13
(dp401
I1
F-0.268128
sI2
F-1.482983
sI3
F1.268252
sI4
F-1.621063
sI7
F1.0
ssbsg15
g0
(g16
g2
Ntp402
Rp403
(dp404
g20
I0
sbsba(ics475_types
Instance
p405
(dp406
g10
(ics475_types
FeatureVector
p407
(dp408
g13
(dp409
I1
F-0.976978
sI2
F-0.283381
sI3
F-2.141868
sI4
F0.168157
sI7
F1.0
ssbsg15
g0
(g16
g2
Ntp410
Rp411
(dp412
g20
I0
sbsba(ics475_types
Instance
p413
(dp414
g10
(ics475_types
FeatureVector
p415
(dp416
g13
(dp417
I1
F-1.185133
sI2
F0.33563
sI3
F-0.274983
sI4
F-0.04481
sI10
F1.0
ssbsg15
g0
(g16
g2
Ntp418
Rp419
(dp420
g20
I1
sbsba(ics475_types
Instance
p421
(dp422
g10
(ics475_types
FeatureVector
p423
(dp424
g13
(dp425
I1
F0.35131
sI2
F0.086778
sI3
F0.318517
sI4
F1.501034
sI5
F1.0
ssbsg15
g0
(g16
g2
Ntp426
Rp427
(dp428
g20
I0
sbsba(ics475_types
Instance
p429
(dp430
g10
(ics475_types
FeatureVector
p431
(dp432
g13
(dp433
I1
F0.057861
sI2
F0.521509
sI3
F0.723278
sI4
F0.691145
sI7
F1.0
ssbsg15
g0
(g16
g2
Ntp434
Rp435
(dp436
g20
I0
sbsba(ics475_types
Instance
p437
(dp438
g10
(ics475_types
FeatureVector
p439
(dp440
g13
(dp441
I1
F-1.26242
sI2
F0.534296
sI3
F0.537923
sI4
F-0.860747
sI10
F1.0
ssbsg15
g0
(g16
g2
Ntp442
Rp443
(dp444
g20
I1
sbsba(ics475_types
Instance
p445
(dp446
g10
(ics475_types
FeatureVector
p447
(dp448
g13
(dp449
I1
F-0.623506
sI2
F-0.649787
sI3
F1.123667
sI4
F-0.221084
sI6
F1.0
ssbsg15
g0
(g16
g2
Ntp450
Rp451
(dp452
g20
I0
sbsba(ics475_types
Instance
p453
(dp454
g10
(ics475_types
FeatureVector
p455
(dp456
g13
(dp457
I1
F-0.941669
sI2
F0.948688
sI3
F-1.413686
sI4
F-0.947314
sI5
F1.0
ssbsg15
g0
(g16
g2
Ntp458
Rp459
(dp460
g20
I0
sbsba(ics475_types
Instance
p461
(dp462
g10
(ics475_types
FeatureVector
p463
(dp464
g13
(dp465
I1
F1.598403
sI2
F0.481829
sI3
F-0.576033
sI4
F-1.248097
sI10
F1.0
ssbsg15
g0
(g16
g2
Ntp466
Rp467
(dp468
g20
I1
sbsba(ics475_types
Instance
p469
(dp470
g10
(ics475_types
FeatureVector
p471
(dp472
g13
(dp473
I1
F0.097123
sI2
F-0.88049
sI3
F0.719162
sI4
F-0.113611
sI5
F1.0
ssbsg15
g0
(g16
g2
Ntp474
Rp475
(dp476
g20
I0
sbsba(ics475_types
Instance
p477
(dp478
g10
(ics475_types
FeatureVector
p479
(dp480
g13
(dp481
I1
F-0.078725
sI2
F-0.810875
sI3
F-1.42147
sI4
F1.950874
sI5
F1.0
ssbsg15
g0
(g16
g2
Ntp482
Rp483
(dp484
g20
I0
sbsba(ics475_types
Instance
p485
(dp486
g10
(ics475_types
FeatureVector
p487
(dp488
g13
(dp489
I1
F-0.211583
sI2
F-1.623859
sI3
F-0.268304
sI4
F0.40211
sI10
F1.0
ssbsg15
g0
(g16
g2
Ntp490
Rp491
(dp492
g20
I1
sbsba(ics475_types
Instance
p493
(dp494
g10
(ics475_types
FeatureVector
p495
(dp496
g13
(dp497
I1
F-1.559561
sI2
F1.09878
sI3
F-2.552163
sI4
F0.491225
sI7
F1.0
ssbsg15
g0
(g16
g2
Ntp498
Rp499
(dp500
g20
I0
sbsba(ics475_types
Instance
p501
(dp502
g10
(ics475_types
FeatureVector
p503
(dp504
g13
(dp505
I8
F1.0
sI1
F1.613214
sI2
F0.704274
sI3
F0.778099
sI4
F0.699679
ssbsg15
g0
(g16
g2
Ntp506
Rp507
(dp508
g20
I1
sbsba(ics475_types
Instance
p509
(dp510
g10
(ics475_types
FeatureVector
p511
(dp512
g13
(dp513
I1
F-1.060542
sI2
F-0.795151
sI3
F-0.681008
sI4
F-1.62428
sI10
F1.0
ssbsg15
g0
(g16
g2
Ntp514
Rp515
(dp516
g20
I1
sbsba(ics475_types
Instance
p517
(dp518
g10
(ics475_types
FeatureVector
p519
(dp520
g13
(dp521
I1
F0.81048
sI2
F0.113339
sI3
F-0.853442
sI4
F-0.539
sI5
F1.0
ssbsg15
g0
(g16
g2
Ntp522
Rp523
(dp524
g20
I0
sbsba(ics475_types
Instance
p525
(dp526
g10
(ics475_types
FeatureVector
p527
(dp528
g13
(dp529
I1
F-0.852198
sI2
F0.219675
sI3
F-0.190355
sI4
F0.451821
sI6
F1.0
ssbsg15
g0
(g16
g2
Ntp530
Rp531
(dp532
g20
I0
sbsba(ics475_types
Instance
p533
(dp534
g10
(ics475_types
FeatureVector
p535
(dp536
g13
(dp537
I1
F0.331523
sI2
F-1.697083
sI3
F-0.376745
sI4
F-1.833715
sI7
F1.0
ssbsg15
g0
(g16
g2
Ntp538
Rp539
(dp540
g20
I0
sbsba(ics475_types
Instance
p541
(dp542
g10
(ics475_types
FeatureVector
p543
(dp544
g13
(dp545
I1
F1.120002
sI2
F0.62942
sI3
F-0.193174
sI4
F-0.188917
sI9
F1.0
ssbsg15
g0
(g16
g2
Ntp546
Rp547
(dp548
g20
I1
sbsba(ics475_types
Instance
p549
(dp550
g10
(ics475_types
FeatureVector
p551
(dp552
g13
(dp553
I1
F-1.54364
sI2
F1.477053
sI3
F1.908639
sI4
F-0.57327
sI5
F1.0
ssbsg15
g0
(g16
g2
Ntp554
Rp555
(dp556
g20
I0
sbsba(ics475_types
Instance
p557
(dp558
g10
(ics475_types
FeatureVector
p559
(dp560
g13
(dp561
I8
F1.0
sI1
F-0.146328
sI2
F1.353722
sI3
F0.57248
sI4
F0.188783
ssbsg15
g0
(g16
g2
Ntp562
Rp563
(dp564
g20
I1
sbsba(ics475_types
Instance
p565
(dp566
g10
(ics475_types
FeatureVector
p567
(dp568
g13
(dp569
I1
F0.432557
sI2
F-1.44973
sI3
F-0.903731
sI4
F0.282481
sI10
F1.0
ssbsg15
g0
(g16
g2
Ntp570
Rp571
(dp572
g20
I1
sbsba(ics475_types
Instance
p573
(dp574
g10
(ics475_types
FeatureVector
p575
(dp576
g13
(dp577
I1
F-1.060178
sI2
F1.664459
sI3
F-1.062489
sI4
F1.446083
sI6
F1.0
ssbsg15
g0
(g16
g2
Ntp578
Rp579
(dp580
g20
I0
sbsba(ics475_types
Instance
p581
(dp582
g10
(ics475_types
FeatureVector
p583
(dp584
g13
(dp585
I1
F1.240576
sI2
F-0.004894
sI3
F-0.472246
sI4
F0.635929
sI10
F1.0
ssbsg15
g0
(g16
g2
Ntp586
Rp587
(dp588
g20
I1
sbsba(ics475_types
Instance
p589
(dp590
g10
(ics475_types
FeatureVector
p591
(dp592
g13
(dp593
I1
F-0.431142
sI2
F1.654882
sI3
F1.68326
sI4
F0.063681
sI6
F1.0
ssbsg15
g0
(g16
g2
Ntp594
Rp595
(dp596
g20
I0
sbsba(ics475_types
Instance
p597
(dp598
g10
(ics475_types
FeatureVector
p599
(dp600
g13
(dp601
I1
F0.051214
sI2
F0.101539
sI3
F0.281183
sI4
F-0.461916
sI6
F1.0
ssbsg15
g0
(g16
g2
Ntp602
Rp603
(dp604
g20
I0
sbsba(ics475_types
Instance
p605
(dp606
g10
(ics475_types
FeatureVector
p607
(dp608
g13
(dp609
I8
F1.0
sI1
F0.38741
sI2
F0.427654
sI3
F0.080716
sI4
F-1.467708
ssbsg15
g0
(g16
g2
Ntp610
Rp611
(dp612
g20
I1
sbsba(ics475_types
Instance
p613
(dp614
g10
(ics475_types
FeatureVector
p615
(dp616
g13
(dp617
I1
F0.151256
sI2
F0.059664
sI3
F0.52191
sI4
F0.469326
sI9
F1.0
ssbsg15
g0
(g16
g2
Ntp618
Rp619
(dp620
g20
I1
sbsba(ics475_types
Instance
p621
(dp622
g10
(ics475_types
FeatureVector
p623
(dp624
g13
(dp625
I1
F0.613548
sI2
F1.308995
sI3
F0.016043
sI4
F1.345496
sI6
F1.0
ssbsg15
g0
(g16
g2
Ntp626
Rp627
(dp628
g20
I0
sbsba(ics475_types
Instance
p629
(dp630
g10
(ics475_types
FeatureVector
p631
(dp632
g13
(dp633
I1
F-0.125612
sI2
F0.260799
sI3
F0.827507
sI4
F-0.16008
sI10
F1.0
ssbsg15
g0
(g16
g2
Ntp634
Rp635
(dp636
g20
I1
sbsba(ics475_types
Instance
p637
(dp638
g10
(ics475_types
FeatureVector
p639
(dp640
g13
(dp641
I1
F-1.015719
sI2
F-0.331333
sI3
F-2.021435
sI4
F-1.293579
sI9
F1.0
ssbsg15
g0
(g16
g2
Ntp642
Rp643
(dp644
g20
I1
sbsba(ics475_types
Instance
p645
(dp646
g10
(ics475_types
FeatureVector
p647
(dp648
g13
(dp649
I1
F-0.006862
sI2
F-0.237362
sI3
F-0.426615
sI4
F-0.73806
sI5
F1.0
ssbsg15
g0
(g16
g2
Ntp650
Rp651
(dp652
g20
I0
sbsba(ics475_types
Instance
p653
(dp654
g10
(ics475_types
FeatureVector
p655
(dp656
g13
(dp657
I1
F0.712833
sI2
F-1.02485
sI3
F-0.210737
sI4
F-0.292823
sI10
F1.0
ssbsg15
g0
(g16
g2
Ntp658
Rp659
(dp660
g20
I1
sbsba(ics475_types
Instance
p661
(dp662
g10
(ics475_types
FeatureVector
p663
(dp664
g13
(dp665
I1
F-1.239852
sI2
F0.592939
sI3
F0.152115
sI4
F0.265873
sI5
F1.0
ssbsg15
g0
(g16
g2
Ntp666
Rp667
(dp668
g20
I0
sbsba(ics475_types
Instance
p669
(dp670
g10
(ics475_types
FeatureVector
p671
(dp672
g13
(dp673
I1
F1.31932
sI2
F1.224366
sI3
F-0.081596
sI4
F1.322069
sI10
F1.0
ssbsg15
g0
(g16
g2
Ntp674
Rp675
(dp676
g20
I1
sbsba(ics475_types
Instance
p677
(dp678
g10
(ics475_types
FeatureVector
p679
(dp680
g13
(dp681
I1
F-0.728193
sI2
F-2.104222
sI3
F1.122884
sI4
F0.102936
sI9
F1.0
ssbsg15
g0
(g16
g2
Ntp682
Rp683
(dp684
g20
I1
sbsba(ics475_types
Instance
p685
(dp686
g10
(ics475_types
FeatureVector
p687
(dp688
g13
(dp689
I1
F-0.548582
sI2
F-0.911485
sI3
F1.26088
sI4
F2.379509
sI6
F1.0
ssbsg15
g0
(g16
g2
Ntp690
Rp691
(dp692
g20
I0
sbsba(ics475_types
Instance
p693
(dp694
g10
(ics475_types
FeatureVector
p695
(dp696
g13
(dp697
I1
F0.129379
sI2
F-0.154126
sI3
F0.301425
sI4
F-0.096164
sI5
F1.0
ssbsg15
g0
(g16
g2
Ntp698
Rp699
(dp700
g20
I0
sbsba(ics475_types
Instance
p701
(dp702
g10
(ics475_types
FeatureVector
p703
(dp704
g13
(dp705
I1
F-0.021011
sI2
F0.989553
sI3
F1.339753
sI4
F-1.873161
sI10
F1.0
ssbsg15
g0
(g16
g2
Ntp706
Rp707
(dp708
g20
I1
sbsba(ics475_types
Instance
p709
(dp710
g10
(ics475_types
FeatureVector
p711
(dp712
g13
(dp713
I1
F-0.730743
sI2
F0.320144
sI3
F0.819797
sI4
F-1.005415
sI5
F1.0
ssbsg15
g0
(g16
g2
Ntp714
Rp715
(dp716
g20
I0
sbsba(ics475_types
Instance
p717
(dp718
g10
(ics475_types
FeatureVector
p719
(dp720
g13
(dp721
I1
F-0.001976
sI2
F0.224087
sI3
F-0.054452
sI4
F-0.208751
sI10
F1.0
ssbsg15
g0
(g16
g2
Ntp722
Rp723
(dp724
g20
I1
sbsba(ics475_types
Instance
p725
(dp726
g10
(ics475_types
FeatureVector
p727
(dp728
g13
(dp729
I8
F1.0
sI1
F-0.544142
sI2
F0.869207
sI3
F-1.440925
sI4
F-1.714905
ssbsg15
g0
(g16
g2
Ntp730
Rp731
(dp732
g20
I1
sbsba(ics475_types
Instance
p733
(dp734
g10
(ics475_types
FeatureVector
p735
(dp736
g13
(dp737
I1
F0.163382
sI2
F-0.444848
sI3
F-0.02072
sI4
F-1.101898
sI6
F1.0
ssbsg15
g0
(g16
g2
Ntp738
Rp739
(dp740
g20
I0
sbsba(ics475_types
Instance
p741
(dp742
g10
(ics475_types
FeatureVector
p743
(dp744
g13
(dp745
I1
F1.002426
sI2
F0.450205
sI3
F1.366856
sI4
F-1.766558
sI6
F1.0
ssbsg15
g0
(g16
g2
Ntp746
Rp747
(dp748
g20
I0
sbsba(ics475_types
Instance
p749
(dp750
g10
(ics475_types
FeatureVector
p751
(dp752
g13
(dp753
I1
F-1.044637
sI2
F0.923493
sI3
F-1.491276
sI4
F0.365047
sI5
F1.0
ssbsg15
g0
(g16
g2
Ntp754
Rp755
(dp756
g20
I0
sbsba(ics475_types
Instance
p757
(dp758
g10
(ics475_types
FeatureVector
p759
(dp760
g13
(dp761
I1
F-1.501294
sI2
F-1.904507
sI3
F-0.661203
sI4
F-0.413673
sI6
F1.0
ssbsg15
g0
(g16
g2
Ntp762
Rp763
(dp764
g20
I0
sbsba(ics475_types
Instance
p765
(dp766
g10
(ics475_types
FeatureVector
p767
(dp768
g13
(dp769
I8
F1.0
sI1
F0.986336
sI2
F-1.176534
sI3
F-0.206863
sI4
F-0.28222
ssbsg15
g0
(g16
g2
Ntp770
Rp771
(dp772
g20
I1
sbsba(ics475_types
Instance
p773
(dp774
g10
(ics475_types
FeatureVector
p775
(dp776
g13
(dp777
I8
F1.0
sI1
F0.963708
sI2
F0.374626
sI3
F1.862778
sI4
F-1.355717
ssbsg15
g0
(g16
g2
Ntp778
Rp779
(dp780
g20
I1
sbsba(ics475_types
Instance
p781
(dp782
g10
(ics475_types
FeatureVector
p783
(dp784
g13
(dp785
I1
F-0.247342
sI2
F-0.88087
sI3
F-0.80107
sI4
F-0.114619
sI6
F1.0
ssbsg15
g0
(g16
g2
Ntp786
Rp787
(dp788
g20
I0
sbsba(ics475_types
Instance
p789
(dp790
g10
(ics475_types
FeatureVector
p791
(dp792
g13
(dp793
I1
F-2.947869
sI2
F0.62213
sI3
F-0.018182
sI4
F0.15699
sI9
F1.0
ssbsg15
g0
(g16
g2
Ntp794
Rp795
(dp796
g20
I1
sbsba(ics475_types
Instance
p797
(dp798
g10
(ics475_types
FeatureVector
p799
(dp800
g13
(dp801
I1
F-0.268756
sI2
F0.247382
sI3
F1.46126
sI4
F-0.11659
sI9
F1.0
ssbsg15
g0
(g16
g2
Ntp802
Rp803
(dp804
g20
I1
sbsba(ics475_types
Instance
p805
(dp806
g10
(ics475_types
FeatureVector
p807
(dp808
g13
(dp809
I1
F0.523265
sI2
F0.360893
sI3
F-1.354115
sI4
F0.030045
sI5
F1.0
ssbsg15
g0
(g16
g2
Ntp810
Rp811
(dp812
g20
I0
sbsba(ics475_types
Instance
p813
(dp814
g10
(ics475_types
FeatureVector
p815
(dp816
g13
(dp817
I1
F0.131376
sI2
F-1.389573
sI3
F0.600257
sI4
F0.239211
sI9
F1.0
ssbsg15
g0
(g16
g2
Ntp818
Rp819
(dp820
g20
I1
sbsba(ics475_types
Instance
p821
(dp822
g10
(ics475_types
FeatureVector
p823
(dp824
g13
(dp825
I1
F-0.217012
sI2
F0.471333
sI3
F0.692048
sI4
F-1.356017
sI5
F1.0
ssbsg15
g0
(g16
g2
Ntp826
Rp827
(dp828
g20
I0
sbsba(ics475_types
Instance
p829
(dp830
g10
(ics475_types
FeatureVector
p831
(dp832
g13
(dp833
I8
F1.0
sI1
F-0.618658
sI2
F0.210652
sI3
F0.707887
sI4
F0.015018
ssbsg15
g0
(g16
g2
Ntp834
Rp835
(dp836
g20
I1
sbsba(ics475_types
Instance
p837
(dp838
g10
(ics475_types
FeatureVector
p839
(dp840
g13
(dp841
I1
F-0.279044
sI2
F-1.445255
sI3
F-0.259265
sI4
F-0.187915
sI7
F1.0
ssbsg15
g0
(g16
g2
Ntp842
Rp843
(dp844
g20
I0
sbsba(ics475_types
Instance
p845
(dp846
g10
(ics475_types
FeatureVector
p847
(dp848
g13
(dp849
I1
F-0.383355
sI2
F-0.216309
sI3
F-0.608664
sI4
F-1.196166
sI9
F1.0
ssbsg15
g0
(g16
g2
Ntp850
Rp851
(dp852
g20
I1
sbsba(ics475_types
Instance
p853
(dp854
g10
(ics475_types
FeatureVector
p855
(dp856
g13
(dp857
I8
F1.0
sI1
F0.102767
sI2
F0.878055
sI3
F1.130852
sI4
F-0.086804
ssbsg15
g0
(g16
g2
Ntp858
Rp859
(dp860
g20
I1
sbsba(ics475_types
Instance
p861
(dp862
g10
(ics475_types
FeatureVector
p863
(dp864
g13
(dp865
I8
F1.0
sI1
F0.424491
sI2
F1.219673
sI3
F2.576273
sI4
F-0.97018
ssbsg15
g0
(g16
g2
Ntp866
Rp867
(dp868
g20
I1
sbsba(ics475_types
Instance
p869
(dp870
g10
(ics475_types
FeatureVector
p871
(dp872
g13
(dp873
I8
F1.0
sI1
F-1.347136
sI2
F-1.44951
sI3
F0.984814
sI4
F-1.22168
ssbsg15
g0
(g16
g2
Ntp874
Rp875
(dp876
g20
I1
sbsba(ics475_types
Instance
p877
(dp878
g10
(ics475_types
FeatureVector
p879
(dp880
g13
(dp881
I1
F-0.417772
sI2
F2.704279
sI3
F0.949185
sI4
F1.475007
sI5
F1.0
ssbsg15
g0
(g16
g2
Ntp882
Rp883
(dp884
g20
I0
sbsba(ics475_types
Instance
p885
(dp886
g10
(ics475_types
FeatureVector
p887
(dp888
g13
(dp889
I1
F0.135769
sI2
F-0.896008
sI3
F0.266146
sI4
F0.21197
sI7
F1.0
ssbsg15
g0
(g16
g2
Ntp890
Rp891
(dp892
g20
I0
sbsba(ics475_types
Instance
p893
(dp894
g10
(ics475_types
FeatureVector
p895
(dp896
g13
(dp897
I8
F1.0
sI1
F0.640144
sI2
F0.293722
sI3
F0.136836
sI4
F1.019796
ssbsg15
g0
(g16
g2
Ntp898
Rp899
(dp900
g20
I1
sbsba(ics475_types
Instance
p901
(dp902
g10
(ics475_types
FeatureVector
p903
(dp904
g13
(dp905
I1
F0.629758
sI2
F0.973522
sI3
F0.455217
sI4
F-1.44088
sI7
F1.0
ssbsg15
g0
(g16
g2
Ntp906
Rp907
(dp908
g20
I0
sbsba(ics475_types
Instance
p909
(dp910
g10
(ics475_types
FeatureVector
p911
(dp912
g13
(dp913
I1
F-0.872942
sI2
F-0.169854
sI3
F-0.055218
sI4
F-0.880287
sI9
F1.0
ssbsg15
g0
(g16
g2
Ntp914
Rp915
(dp916
g20
I1
sbsba(ics475_types
Instance
p917
(dp918
g10
(ics475_types
FeatureVector
p919
(dp920
g13
(dp921
I1
F0.803744
sI2
F-0.755457
sI3
F1.022864
sI4
F1.634436
sI5
F1.0
ssbsg15
g0
(g16
g2
Ntp922
Rp923
(dp924
g20
I0
sbsba(ics475_types
Instance
p925
(dp926
g10
(ics475_types
FeatureVector
p927
(dp928
g13
(dp929
I1
F1.464787
sI2
F-1.182417
sI3
F0.846262
sI4
F1.191927
sI5
F1.0
ssbsg15
g0
(g16
g2
Ntp930
Rp931
(dp932
g20
I0
sbsba(ics475_types
Instance
p933
(dp934
g10
(ics475_types
FeatureVector
p935
(dp936
g13
(dp937
I1
F-2.627473
sI2
F-0.390938
sI3
F-1.184653
sI4
F0.039143
sI10
F1.0
ssbsg15
g0
(g16
g2
Ntp938
Rp939
(dp940
g20
I1
sbsba(ics475_types
Instance
p941
(dp942
g10
(ics475_types
FeatureVector
p943
(dp944
g13
(dp945
I1
F-0.782667
sI2
F-0.202711
sI3
F-0.559344
sI4
F-1.769814
sI6
F1.0
ssbsg15
g0
(g16
g2
Ntp946
Rp947
(dp948
g20
I0
sbsba(ics475_types
Instance
p949
(dp950
g10
(ics475_types
FeatureVector
p951
(dp952
g13
(dp953
I1
F0.586184
sI2
F0.155918
sI3
F-1.446672
sI4
F-0.207444
sI6
F1.0
ssbsg15
g0
(g16
g2
Ntp954
Rp955
(dp956
g20
I0
sbsba(ics475_types
Instance
p957
(dp958
g10
(ics475_types
FeatureVector
p959
(dp960
g13
(dp961
I1
F0.50607
sI2
F-0.241858
sI3
F0.332634
sI4
F1.022449
sI5
F1.0
ssbsg15
g0
(g16
g2
Ntp962
Rp963
(dp964
g20
I0
sbsba(ics475_types
Instance
p965
(dp966
g10
(ics475_types
FeatureVector
p967
(dp968
g13
(dp969
I8
F1.0
sI1
F-1.111977
sI2
F-0.205735
sI3
F-0.389579
sI4
F-0.178368
ssbsg15
g0
(g16
g2
Ntp970
Rp971
(dp972
g20
I1
sbsba(ics475_types
Instance
p973
(dp974
g10
(ics475_types
FeatureVector
p975
(dp976
g13
(dp977
I8
F1.0
sI1
F0.904383
sI2
F0.8023
sI3
F-0.320863
sI4
F-2.89908
ssbsg15
g0
(g16
g2
Ntp978
Rp979
(dp980
g20
I1
sbsba(ics475_types
Instance
p981
(dp982
g10
(ics475_types
FeatureVector
p983
(dp984
g13
(dp985
I8
F1.0
sI1
F0.982154
sI2
F-0.224903
sI3
F0.102708
sI4
F-0.459321
ssbsg15
g0
(g16
g2
Ntp986
Rp987
(dp988
g20
I1
sbsba(ics475_types
Instance
p989
(dp990
g10
(ics475_types
FeatureVector
p991
(dp992
g13
(dp993
I1
F0.52571
sI2
F-0.285837
sI3
F-0.675749
sI4
F0.58638
sI6
F1.0
ssbsg15
g0
(g16
g2
Ntp994
Rp995
(dp996
g20
I0
sbsba(ics475_types
Instance
p997
(dp998
g10
(ics475_types
FeatureVector
p999
(dp1000
g13
(dp1001
I8
F1.0
sI1
F-0.158284
sI2
F-1.328792
sI3
F-0.6054
sI4
F0.192222
ssbsg15
g0
(g16
g2
Ntp1002
Rp1003
(dp1004
g20
I1
sbsba(ics475_types
Instance
p1005
(dp1006
g10
(ics475_types
FeatureVector
p1007
(dp1008
g13
(dp1009
I1
F-0.208541
sI2
F1.528418
sI3
F-1.761946
sI4
F0.747671
sI5
F1.0
ssbsg15
g0
(g16
g2
Ntp1010
Rp1011
(dp1012
g20
I0
sbsba(ics475_types
Instance
p1013
(dp1014
g10
(ics475_types
FeatureVector
p1015
(dp1016
g13
(dp1017
I1
F-0.475609
sI2
F-0.830729
sI3
F0.352499
sI4
F-0.566768
sI6
F1.0
ssbsg15
g0
(g16
g2
Ntp1018
Rp1019
(dp1020
g20
I0
sbsba(ics475_types
Instance
p1021
(dp1022
g10
(ics475_types
FeatureVector
p1023
(dp1024
g13
(dp1025
I1
F-1.167294
sI2
F-0.551809
sI3
F-0.240799
sI4
F-0.938808
sI5
F1.0
ssbsg15
g0
(g16
g2
Ntp1026
Rp1027
(dp1028
g20
I0
sbsba(ics475_types
Instance
p1029
(dp1030
g10
(ics475_types
FeatureVector
p1031
(dp1032
g13
(dp1033
I1
F-0.291314
sI2
F-1.104918
sI3
F0.483791
sI4
F1.259638
sI6
F1.0
ssbsg15
g0
(g16
g2
Ntp1034
Rp1035
(dp1036
g20
I0
sbsba(ics475_types
Instance
p1037
(dp1038
g10
(ics475_types
FeatureVector
p1039
(dp1040
g13
(dp1041
I8
F1.0
sI1
F1.594954
sI2
F-1.596691
sI3
F0.186158
sI4
F0.815733
ssbsg15
g0
(g16
g2
Ntp1042
Rp1043
(dp1044
g20
I1
sbsba(ics475_types
Instance
p1045
(dp1046
g10
(ics475_types
FeatureVector
p1047
(dp1048
g13
(dp1049
I8
F1.0
sI1
F1.240662
sI2
F-1.287038
sI3
F0.240102
sI4
F-1.443629
ssbsg15
g0
(g16
g2
Ntp1050
Rp1051
(dp1052
g20
I1
sbsba(ics475_types
Instance
p1053
(dp1054
g10
(ics475_types
FeatureVector
p1055
(dp1056
g13
(dp1057
I1
F0.397917
sI2
F-0.304143
sI3
F-0.040102
sI4
F0.725402
sI7
F1.0
ssbsg15
g0
(g16
g2
Ntp1058
Rp1059
(dp1060
g20
I0
sbsba(ics475_types
Instance
p1061
(dp1062
g10
(ics475_types
FeatureVector
p1063
(dp1064
g13
(dp1065
I1
F0.974772
sI2
F-0.471917
sI3
F2.553344
sI4
F0.138533
sI10
F1.0
ssbsg15
g0
(g16
g2
Ntp1066
Rp1067
(dp1068
g20
I1
sbsba(ics475_types
Instance
p1069
(dp1070
g10
(ics475_types
FeatureVector
p1071
(dp1072
g13
(dp1073
I1
F-0.165731
sI2
F-0.396448
sI3
F-0.089814
sI4
F1.24028
sI5
F1.0
ssbsg15
g0
(g16
g2
Ntp1074
Rp1075
(dp1076
g20
I0
sbsba(ics475_types
Instance
p1077
(dp1078
g10
(ics475_types
FeatureVector
p1079
(dp1080
g13
(dp1081
I1
F0.576273
sI2
F-1.774051
sI3
F1.069164
sI4
F-1.361492
sI5
F1.0
ssbsg15
g0
(g16
g2
Ntp1082
Rp1083
(dp1084
g20
I0
sbsba(ics475_types
Instance
p1085
(dp1086
g10
(ics475_types
FeatureVector
p1087
(dp1088
g13
(dp1089
I1
F-0.340699
sI2
F1.115615
sI3
F0.702169
sI4
F-2.65304
sI5
F1.0
ssbsg15
g0
(g16
g2
Ntp1090
Rp1091
(dp1092
g20
I0
sbsba(ics475_types
Instance
p1093
(dp1094
g10
(ics475_types
FeatureVector
p1095
(dp1096
g13
(dp1097
I8
F1.0
sI1
F0.640457
sI2
F-0.178488
sI3
F-1.600808
sI4
F-2.5275
ssbsg15
g0
(g16
g2
Ntp1098
Rp1099
(dp1100
g20
I1
sbsba(ics475_types
Instance
p1101
(dp1102
g10
(ics475_types
FeatureVector
p1103
(dp1104
g13
(dp1105
I1
F2.332635
sI2
F0.626371
sI3
F1.708211
sI4
F1.067757
sI9
F1.0
ssbsg15
g0
(g16
g2
Ntp1106
Rp1107
(dp1108
g20
I1
sbsba(ics475_types
Instance
p1109
(dp1110
g10
(ics475_types
FeatureVector
p1111
(dp1112
g13
(dp1113
I1
F1.621286
sI2
F-1.700282
sI3
F-0.331407
sI4
F0.006724
sI9
F1.0
ssbsg15
g0
(g16
g2
Ntp1114
Rp1115
(dp1116
g20
I1
sbsba(ics475_types
Instance
p1117
(dp1118
g10
(ics475_types
FeatureVector
p1119
(dp1120
g13
(dp1121
I1
F-0.106299
sI2
F-0.912201
sI3
F-0.222997
sI4
F0.495154
sI5
F1.0
ssbsg15
g0
(g16
g2
Ntp1122
Rp1123
(dp1124
g20
I0
sbsba(ics475_types
Instance
p1125
(dp1126
g10
(ics475_types
FeatureVector
p1127
(dp1128
g13
(dp1129
I1
F-1.559113
sI2
F0.082962
sI3
F0.329576
sI4
F-0.841297
sI10
F1.0
ssbsg15
g0
(g16
g2
Ntp1130
Rp1131
(dp1132
g20
I1
sbsba(ics475_types
Instance
p1133
(dp1134
g10
(ics475_types
FeatureVector
p1135
(dp1136
g13
(dp1137
I1
F-0.330647
sI2
F-0.322335
sI3
F-0.121836
sI4
F-2.202797
sI5
F1.0
ssbsg15
g0
(g16
g2
Ntp1138
Rp1139
(dp1140
g20
I0
sbsba(ics475_types
Instance
p1141
(dp1142
g10
(ics475_types
FeatureVector
p1143
(dp1144
g13
(dp1145
I1
F0.651159
sI2
F1.386347
sI3
F0.917619
sI4
F0.805583
sI7
F1.0
ssbsg15
g0
(g16
g2
Ntp1146
Rp1147
(dp1148
g20
I0
sbsba(ics475_types
Instance
p1149
(dp1150
g10
(ics475_types
FeatureVector
p1151
(dp1152
g13
(dp1153
I1
F-1.276657
sI2
F1.160312
sI3
F-0.855412
sI4
F-0.276727
sI9
F1.0
ssbsg15
g0
(g16
g2
Ntp1154
Rp1155
(dp1156
g20
I1
sbsba(ics475_types
Instance
p1157
(dp1158
g10
(ics475_types
FeatureVector
p1159
(dp1160
g13
(dp1161
I1
F-0.404909
sI2
F-0.345605
sI3
F-0.660765
sI4
F-0.377884
sI5
F1.0
ssbsg15
g0
(g16
g2
Ntp1162
Rp1163
(dp1164
g20
I0
sbsba(ics475_types
Instance
p1165
(dp1166
g10
(ics475_types
FeatureVector
p1167
(dp1168
g13
(dp1169
I1
F0.723343
sI2
F-0.991233
sI3
F-0.631951
sI4
F-1.293252
sI9
F1.0
ssbsg15
g0
(g16
g2
Ntp1170
Rp1171
(dp1172
g20
I1
sbsba(ics475_types
Instance
p1173
(dp1174
g10
(ics475_types
FeatureVector
p1175
(dp1176
g13
(dp1177
I1
F0.695834
sI2
F-0.599129
sI3
F0.273819
sI4
F1.059211
sI9
F1.0
ssbsg15
g0
(g16
g2
Ntp1178
Rp1179
(dp1180
g20
I1
sbsba(ics475_types
Instance
p1181
(dp1182
g10
(ics475_types
FeatureVector
p1183
(dp1184
g13
(dp1185
I1
F1.187242
sI2
F0.544782
sI3
F0.15338
sI4
F0.621412
sI10
F1.0
ssbsg15
g0
(g16
g2
Ntp1186
Rp1187
(dp1188
g20
I1
sbsba(ics475_types
Instance
p1189
(dp1190
g10
(ics475_types
FeatureVector
p1191
(dp1192
g13
(dp1193
I1
F-0.590425
sI2
F0.022411
sI3
F1.325755
sI4
F0.147727
sI5
F1.0
ssbsg15
g0
(g16
g2
Ntp1194
Rp1195
(dp1196
g20
I0
sbsba(ics475_types
Instance
p1197
(dp1198
g10
(ics475_types
FeatureVector
p1199
(dp1200
g13
(dp1201
I1
F0.726874
sI2
F-0.204535
sI3
F0.559018
sI4
F-0.906986
sI10
F1.0
ssbsg15
g0
(g16
g2
Ntp1202
Rp1203
(dp1204
g20
I1
sbsba(ics475_types
Instance
p1205
(dp1206
g10
(ics475_types
FeatureVector
p1207
(dp1208
g13
(dp1209
I1
F0.733658
sI2
F0.221602
sI3
F1.231533
sI4
F0.003393
sI9
F1.0
ssbsg15
g0
(g16
g2
Ntp1210
Rp1211
(dp1212
g20
I1
sbsba(ics475_types
Instance
p1213
(dp1214
g10
(ics475_types
FeatureVector
p1215
(dp1216
g13
(dp1217
I1
F-1.644417
sI2
F0.180978
sI3
F0.209157
sI4
F-0.264099
sI5
F1.0
ssbsg15
g0
(g16
g2
Ntp1218
Rp1219
(dp1220
g20
I0
sbsba(ics475_types
Instance
p1221
(dp1222
g10
(ics475_types
FeatureVector
p1223
(dp1224
g13
(dp1225
I1
F1.30995
sI2
F-0.372274
sI3
F0.204259
sI4
F-0.963716
sI6
F1.0
ssbsg15
g0
(g16
g2
Ntp1226
Rp1227
(dp1228
g20
I0
sbsba(ics475_types
Instance
p1229
(dp1230
g10
(ics475_types
FeatureVector
p1231
(dp1232
g13
(dp1233
I1
F-0.191326
sI2
F-1.236839
sI3
F-1.988005
sI4
F-1.209113
sI7
F1.0
ssbsg15
g0
(g16
g2
Ntp1234
Rp1235
(dp1236
g20
I0
sbsba(ics475_types
Instance
p1237
(dp1238
g10
(ics475_types
FeatureVector
p1239
(dp1240
g13
(dp1241
I1
F0.017053
sI2
F-1.894227
sI3
F-0.15142
sI4
F-0.339721
sI10
F1.0
ssbsg15
g0
(g16
g2
Ntp1242
Rp1243
(dp1244
g20
I1
sbsba(ics475_types
Instance
p1245
(dp1246
g10
(ics475_types
FeatureVector
p1247
(dp1248
g13
(dp1249
I8
F1.0
sI1
F0.959783
sI2
F-0.793376
sI3
F0.8465
sI4
F0.107971
ssbsg15
g0
(g16
g2
Ntp1250
Rp1251
(dp1252
g20
I1
sbsba(ics475_types
Instance
p1253
(dp1254
g10
(ics475_types
FeatureVector
p1255
(dp1256
g13
(dp1257
I1
F2.12797
sI2
F-1.481124
sI3
F0.690947
sI4
F1.090855
sI5
F1.0
ssbsg15
g0
(g16
g2
Ntp1258
Rp1259
(dp1260
g20
I0
sbsba(ics475_types
Instance
p1261
(dp1262
g10
(ics475_types
FeatureVector
p1263
(dp1264
g13
(dp1265
I1
F-1.102221
sI2
F0.433403
sI3
F0.298028
sI4
F-0.764742
sI7
F1.0
ssbsg15
g0
(g16
g2
Ntp1266
Rp1267
(dp1268
g20
I0
sbsba(ics475_types
Instance
p1269
(dp1270
g10
(ics475_types
FeatureVector
p1271
(dp1272
g13
(dp1273
I1
F-0.560621
sI2
F-1.234693
sI3
F-0.649647
sI4
F0.026772
sI10
F1.0
ssbsg15
g0
(g16
g2
Ntp1274
Rp1275
(dp1276
g20
I1
sbsba(ics475_types
Instance
p1277
(dp1278
g10
(ics475_types
FeatureVector
p1279
(dp1280
g13
(dp1281
I1
F0.895505
sI2
F0.768354
sI3
F1.336372
sI4
F-0.765539
sI9
F1.0
ssbsg15
g0
(g16
g2
Ntp1282
Rp1283
(dp1284
g20
I1
sbsba(ics475_types
Instance
p1285
(dp1286
g10
(ics475_types
FeatureVector
p1287
(dp1288
g13
(dp1289
I1
F0.320723
sI2
F-0.635066
sI3
F1.351866
sI4
F0.496087
sI5
F1.0
ssbsg15
g0
(g16
g2
Ntp1290
Rp1291
(dp1292
g20
I0
sbsba(ics475_types
Instance
p1293
(dp1294
g10
(ics475_types
FeatureVector
p1295
(dp1296
g13
(dp1297
I1
F-0.797135
sI2
F-0.698759
sI3
F0.688113
sI4
F-0.627621
sI7
F1.0
ssbsg15
g0
(g16
g2
Ntp1298
Rp1299
(dp1300
g20
I0
sbsba(ics475_types
Instance
p1301
(dp1302
g10
(ics475_types
FeatureVector
p1303
(dp1304
g13
(dp1305
I1
F0.507953
sI2
F-0.227934
sI3
F1.123669
sI4
F-1.577578
sI7
F1.0
ssbsg15
g0
(g16
g2
Ntp1306
Rp1307
(dp1308
g20
I0
sbsba(ics475_types
Instance
p1309
(dp1310
g10
(ics475_types
FeatureVector
p1311
(dp1312
g13
(dp1313
I8
F1.0
sI1
F1.400342
sI2
F1.452149
sI3
F-0.087482
sI4
F-2.37872
ssbsg15
g0
(g16
g2
Ntp1314
Rp1315
(dp1316
g20
I1
sbsba(ics475_types
Instance
p1317
(dp1318
g10
(ics475_types
FeatureVector
p1319
(dp1320
g13
(dp1321
I1
F-0.80538
sI2
F-0.87066
sI3
F-0.874105
sI4
F0.162689
sI6
F1.0
ssbsg15
g0
(g16
g2
Ntp1322
Rp1323
(dp1324
g20
I0
sbsba(ics475_types
Instance
p1325
(dp1326
g10
(ics475_types
FeatureVector
p1327
(dp1328
g13
(dp1329
I1
F-0.831721
sI2
F-0.814811
sI3
F-0.081434
sI4
F-3.501696
sI10
F1.0
ssbsg15
g0
(g16
g2
Ntp1330
Rp1331
(dp1332
g20
I1
sbsba(ics475_types
Instance
p1333
(dp1334
g10
(ics475_types
FeatureVector
p1335
(dp1336
g13
(dp1337
I1
F-1.489798
sI2
F-0.88836
sI3
F0.032405
sI4
F0.09315
sI9
F1.0
ssbsg15
g0
(g16
g2
Ntp1338
Rp1339
(dp1340
g20
I1
sbsba(ics475_types
Instance
p1341
(dp1342
g10
(ics475_types
FeatureVector
p1343
(dp1344
g13
(dp1345
I1
F0.342348
sI2
F-1.121041
sI3
F0.816075
sI4
F-1.24377
sI10
F1.0
ssbsg15
g0
(g16
g2
Ntp1346
Rp1347
(dp1348
g20
I1
sbsba(ics475_types
Instance
p1349
(dp1350
g10
(ics475_types
FeatureVector
p1351
(dp1352
g13
(dp1353
I1
F-0.316651
sI2
F-0.764059
sI3
F-0.851549
sI4
F1.091748
sI10
F1.0
ssbsg15
g0
(g16
g2
Ntp1354
Rp1355
(dp1356
g20
I1
sbsba(ics475_types
Instance
p1357
(dp1358
g10
(ics475_types
FeatureVector
p1359
(dp1360
g13
(dp1361
I1
F-0.512984
sI2
F1.111058
sI3
F0.658498
sI4
F-1.660834
sI10
F1.0
ssbsg15
g0
(g16
g2
Ntp1362
Rp1363
(dp1364
g20
I1
sbsba(ics475_types
Instance
p1365
(dp1366
g10
(ics475_types
FeatureVector
p1367
(dp1368
g13
(dp1369
I1
F0.609858
sI2
F0.697341
sI3
F2.547094
sI4
F-0.482559
sI6
F1.0
ssbsg15
g0
(g16
g2
Ntp1370
Rp1371
(dp1372
g20
I0
sbsba(ics475_types
Instance
p1373
(dp1374
g10
(ics475_types
FeatureVector
p1375
(dp1376
g13
(dp1377
I1
F0.156073
sI2
F0.713409
sI3
F1.565094
sI4
F-0.526949
sI7
F1.0
ssbsg15
g0
(g16
g2
Ntp1378
Rp1379
(dp1380
g20
I0
sbsba(ics475_types
Instance
p1381
(dp1382
g10
(ics475_types
FeatureVector
p1383
(dp1384
g13
(dp1385
I1
F0.68434
sI2
F0.446802
sI3
F-1.178806
sI4
F-0.4257
sI5
F1.0
ssbsg15
g0
(g16
g2
Ntp1386
Rp1387
(dp1388
g20
I0
sbsba(ics475_types
Instance
p1389
(dp1390
g10
(ics475_types
FeatureVector
p1391
(dp1392
g13
(dp1393
I1
F0.801928
sI2
F-1.421621
sI3
F0.523145
sI4
F-0.354782
sI7
F1.0
ssbsg15
g0
(g16
g2
Ntp1394
Rp1395
(dp1396
g20
I0
sbsba(ics475_types
Instance
p1397
(dp1398
g10
(ics475_types
FeatureVector
p1399
(dp1400
g13
(dp1401
I1
F-0.913499
sI2
F-0.778756
sI3
F1.289167
sI4
F1.388172
sI9
F1.0
ssbsg15
g0
(g16
g2
Ntp1402
Rp1403
(dp1404
g20
I1
sbsba(ics475_types
Instance
p1405
(dp1406
g10
(ics475_types
FeatureVector
p1407
(dp1408
g13
(dp1409
I1
F0.514932
sI2
F-0.022757
sI3
F0.258215
sI4
F-0.07297
sI10
F1.0
ssbsg15
g0
(g16
g2
Ntp1410
Rp1411
(dp1412
g20
I1
sbsba(ics475_types
Instance
p1413
(dp1414
g10
(ics475_types
FeatureVector
p1415
(dp1416
g13
(dp1417
I1
F0.796769
sI2
F-2.006135
sI3
F0.547001
sI4
F0.23404
sI7
F1.0
ssbsg15
g0
(g16
g2
Ntp1418
Rp1419
(dp1420
g20
I0
sbsba(ics475_types
Instance
p1421
(dp1422
g10
(ics475_types
FeatureVector
p1423
(dp1424
g13
(dp1425
I1
F1.087324
sI2
F0.95416
sI3
F0.573513
sI4
F-0.315166
sI6
F1.0
ssbsg15
g0
(g16
g2
Ntp1426
Rp1427
(dp1428
g20
I0
sbsba(ics475_types
Instance
p1429
(dp1430
g10
(ics475_types
FeatureVector
p1431
(dp1432
g13
(dp1433
I8
F1.0
sI1
F-1.418195
sI2
F-0.778291
sI3
F-0.122967
sI4
F-0.766089
ssbsg15
g0
(g16
g2
Ntp1434
Rp1435
(dp1436
g20
I1
sbsba(ics475_types
Instance
p1437
(dp1438
g10
(ics475_types
FeatureVector
p1439
(dp1440
g13
(dp1441
I1
F0.257576
sI2
F1.007774
sI3
F-2.423144
sI4
F2.882562
sI9
F1.0
ssbsg15
g0
(g16
g2
Ntp1442
Rp1443
(dp1444
g20
I1
sbsba(ics475_types
Instance
p1445
(dp1446
g10
(ics475_types
FeatureVector
p1447
(dp1448
g13
(dp1449
I1
F1.314715
sI2
F-0.257642
sI3
F1.679164
sI4
F-1.185908
sI7
F1.0
ssbsg15
g0
(g16
g2
Ntp1450
Rp1451
(dp1452
g20
I0
sbsba(ics475_types
Instance
p1453
(dp1454
g10
(ics475_types
FeatureVector
p1455
(dp1456
g13
(dp1457
I1
F-0.43367
sI2
F-1.405086
sI3
F-1.122769
sI4
F0.040189
sI6
F1.0
ssbsg15
g0
(g16
g2
Ntp1458
Rp1459
(dp1460
g20
I0
sbsba(ics475_types
Instance
p1461
(dp1462
g10
(ics475_types
FeatureVector
p1463
(dp1464
g13
(dp1465
I1
F0.1146
sI2
F-2.896597
sI3
F-0.103678
sI4
F-2.333352
sI10
F1.0
ssbsg15
g0
(g16
g2
Ntp1466
Rp1467
(dp1468
g20
I1
sbsba(ics475_types
Instance
p1469
(dp1470
g10
(ics475_types
FeatureVector
p1471
(dp1472
g13
(dp1473
I1
F1.766397
sI2
F1.107904
sI3
F1.416664
sI4
F-0.454478
sI10
F1.0
ssbsg15
g0
(g16
g2
Ntp1474
Rp1475
(dp1476
g20
I1
sbsba(ics475_types
Instance
p1477
(dp1478
g10
(ics475_types
FeatureVector
p1479
(dp1480
g13
(dp1481
I8
F1.0
sI1
F1.235233
sI2
F-0.87008
sI3
F-0.918153
sI4
F-1.077804
ssbsg15
g0
(g16
g2
Ntp1482
Rp1483
(dp1484
g20
I1
sbsba(ics475_types
Instance
p1485
(dp1486
g10
(ics475_types
FeatureVector
p1487
(dp1488
g13
(dp1489
I1
F-1.621232
sI2
F-1.883563
sI3
F-1.821869
sI4
F-0.376404
sI5
F1.0
ssbsg15
g0
(g16
g2
Ntp1490
Rp1491
(dp1492
g20
I0
sbsba(ics475_types
Instance
p1493
(dp1494
g10
(ics475_types
FeatureVector
p1495
(dp1496
g13
(dp1497
I1
F-0.47762
sI2
F-1.204889
sI3
F0.025986
sI4
F-0.00198
sI6
F1.0
ssbsg15
g0
(g16
g2
Ntp1498
Rp1499
(dp1500
g20
I0
sbsba(ics475_types
Instance
p1501
(dp1502
g10
(ics475_types
FeatureVector
p1503
(dp1504
g13
(dp1505
I8
F1.0
sI1
F-1.316401
sI2
F-0.050796
sI3
F-1.33539
sI4
F-0.286538
ssbsg15
g0
(g16
g2
Ntp1506
Rp1507
(dp1508
g20
I1
sbsba(ics475_types
Instance
p1509
(dp1510
g10
(ics475_types
FeatureVector
p1511
(dp1512
g13
(dp1513
I1
F-0.079259
sI2
F1.075247
sI3
F1.201708
sI4
F1.17537
sI6
F1.0
ssbsg15
g0
(g16
g2
Ntp1514
Rp1515
(dp1516
g20
I0
sbsba(ics475_types
Instance
p1517
(dp1518
g10
(ics475_types
FeatureVector
p1519
(dp1520
g13
(dp1521
I1
F-0.782367
sI2
F2.289992
sI3
F-0.529328
sI4
F-0.754979
sI7
F1.0
ssbsg15
g0
(g16
g2
Ntp1522
Rp1523
(dp1524
g20
I0
sbsba(ics475_types
Instance
p1525
(dp1526
g10
(ics475_types
FeatureVector
p1527
(dp1528
g13
(dp1529
I8
F1.0
sI1
F0.609685
sI2
F1.097271
sI3
F0.34417
sI4
F0.212378
ssbsg15
g0
(g16
g2
Ntp1530
Rp1531
(dp1532
g20
I1
sbsba(ics475_types
Instance
p1533
(dp1534
g10
(ics475_types
FeatureVector
p1535
(dp1536
g13
(dp1537
I1
F-0.565021
sI2
F1.001786
sI3
F1.408456
sI4
F-0.412576
sI9
F1.0
ssbsg15
g0
(g16
g2
Ntp1538
Rp1539
(dp1540
g20
I1
sbsba(ics475_types
Instance
p1541
(dp1542
g10
(ics475_types
FeatureVector
p1543
(dp1544
g13
(dp1545
I1
F1.476503
sI2
F-0.881059
sI3
F-0.661218
sI4
F0.026039
sI6
F1.0
ssbsg15
g0
(g16
g2
Ntp1546
Rp1547
(dp1548
g20
I0
sbsba(ics475_types
Instance
p1549
(dp1550
g10
(ics475_types
FeatureVector
p1551
(dp1552
g13
(dp1553
I8
F1.0
sI1
F-0.444356
sI2
F-0.306404
sI3
F1.519153
sI4
F-1.954077
ssbsg15
g0
(g16
g2
Ntp1554
Rp1555
(dp1556
g20
I1
sbsba(ics475_types
Instance
p1557
(dp1558
g10
(ics475_types
FeatureVector
p1559
(dp1560
g13
(dp1561
I1
F-1.495855
sI2
F-0.436639
sI3
F-1.882818
sI4
F-0.722699
sI6
F1.0
ssbsg15
g0
(g16
g2
Ntp1562
Rp1563
(dp1564
g20
I0
sbsba(ics475_types
Instance
p1565
(dp1566
g10
(ics475_types
FeatureVector
p1567
(dp1568
g13
(dp1569
I8
F1.0
sI1
F-0.016377
sI2
F0.852804
sI3
F0.846253
sI4
F1.130285
ssbsg15
g0
(g16
g2
Ntp1570
Rp1571
(dp1572
g20
I1
sbsba(ics475_types
Instance
p1573
(dp1574
g10
(ics475_types
FeatureVector
p1575
(dp1576
g13
(dp1577
I1
F-0.950756
sI2
F1.237677
sI3
F-0.019058
sI4
F0.106324
sI9
F1.0
ssbsg15
g0
(g16
g2
Ntp1578
Rp1579
(dp1580
g20
I1
sbsba(ics475_types
Instance
p1581
(dp1582
g10
(ics475_types
FeatureVector
p1583
(dp1584
g13
(dp1585
I1
F-0.434735
sI2
F0.070619
sI3
F0.324157
sI4
F-0.86999
sI10
F1.0
ssbsg15
g0
(g16
g2
Ntp1586
Rp1587
(dp1588
g20
I1
sbsba(ics475_types
Instance
p1589
(dp1590
g10
(ics475_types
FeatureVector
p1591
(dp1592
g13
(dp1593
I8
F1.0
sI1
F1.20661
sI2
F-0.462466
sI3
F-0.159122
sI4
F0.447763
ssbsg15
g0
(g16
g2
Ntp1594
Rp1595
(dp1596
g20
I1
sbsba(ics475_types
Instance
p1597
(dp1598
g10
(ics475_types
FeatureVector
p1599
(dp1600
g13
(dp1601
I1
F-0.209954
sI2
F-0.73342
sI3
F-0.794551
sI4
F0.008351
sI5
F1.0
ssbsg15
g0
(g16
g2
Ntp1602
Rp1603
(dp1604
g20
I0
sbsba(ics475_types
Instance
p1605
(dp1606
g10
(ics475_types
FeatureVector
p1607
(dp1608
g13
(dp1609
I8
F1.0
sI1
F-0.733764
sI2
F0.600284
sI3
F-0.807463
sI4
F-0.050248
ssbsg15
g0
(g16
g2
Ntp1610
Rp1611
(dp1612
g20
I1
sbsba(ics475_types
Instance
p1613
(dp1614
g10
(ics475_types
FeatureVector
p1615
(dp1616
g13
(dp1617
I1
F-1.735254
sI2
F1.022202
sI3
F-0.014632
sI4
F0.202064
sI7
F1.0
ssbsg15
g0
(g16
g2
Ntp1618
Rp1619
(dp1620
g20
I0
sbsba(ics475_types
Instance
p1621
(dp1622
g10
(ics475_types
FeatureVector
p1623
(dp1624
g13
(dp1625
I1
F0.546598
sI2
F0.883519
sI3
F0.506709
sI4
F0.605686
sI10
F1.0
ssbsg15
g0
(g16
g2
Ntp1626
Rp1627
(dp1628
g20
I1
sbsba(ics475_types
Instance
p1629
(dp1630
g10
(ics475_types
FeatureVector
p1631
(dp1632
g13
(dp1633
I1
F0.562537
sI2
F-1.260238
sI3
F-0.512703
sI4
F-0.834192
sI10
F1.0
ssbsg15
g0
(g16
g2
Ntp1634
Rp1635
(dp1636
g20
I1
sbsba(ics475_types
Instance
p1637
(dp1638
g10
(ics475_types
FeatureVector
p1639
(dp1640
g13
(dp1641
I1
F0.117663
sI2
F-1.107386
sI3
F0.999763
sI4
F-0.460933
sI10
F1.0
ssbsg15
g0
(g16
g2
Ntp1642
Rp1643
(dp1644
g20
I1
sbsba(ics475_types
Instance
p1645
(dp1646
g10
(ics475_types
FeatureVector
p1647
(dp1648
g13
(dp1649
I1
F-1.412377
sI2
F-0.393376
sI3
F-0.856765
sI4
F-0.545746
sI9
F1.0
ssbsg15
g0
(g16
g2
Ntp1650
Rp1651
(dp1652
g20
I1
sbsba(ics475_types
Instance
p1653
(dp1654
g10
(ics475_types
FeatureVector
p1655
(dp1656
g13
(dp1657
I1
F-0.831074
sI2
F1.769307
sI3
F0.196756
sI4
F0.358776
sI5
F1.0
ssbsg15
g0
(g16
g2
Ntp1658
Rp1659
(dp1660
g20
I0
sbsba(ics475_types
Instance
p1661
(dp1662
g10
(ics475_types
FeatureVector
p1663
(dp1664
g13
(dp1665
I8
F1.0
sI1
F0.009975
sI2
F1.212179
sI3
F0.387539
sI4
F0.492292
ssbsg15
g0
(g16
g2
Ntp1666
Rp1667
(dp1668
g20
I1
sbsba(ics475_types
Instance
p1669
(dp1670
g10
(ics475_types
FeatureVector
p1671
(dp1672
g13
(dp1673
I1
F0.239211
sI2
F0.563245
sI3
F-0.650799
sI4
F-0.18933
sI7
F1.0
ssbsg15
g0
(g16
g2
Ntp1674
Rp1675
(dp1676
g20
I0
sbsba(ics475_types
Instance
p1677
(dp1678
g10
(ics475_types
FeatureVector
p1679
(dp1680
g13
(dp1681
I1
F1.465066
sI2
F-0.511211
sI3
F-1.031867
sI4
F-0.967066
sI6
F1.0
ssbsg15
g0
(g16
g2
Ntp1682
Rp1683
(dp1684
g20
I0
sbsba(ics475_types
Instance
p1685
(dp1686
g10
(ics475_types
FeatureVector
p1687
(dp1688
g13
(dp1689
I1
F0.261315
sI2
F1.305191
sI3
F0.76311
sI4
F-0.059457
sI7
F1.0
ssbsg15
g0
(g16
g2
Ntp1690
Rp1691
(dp1692
g20
I0
sbsba(ics475_types
Instance
p1693
(dp1694
g10
(ics475_types
FeatureVector
p1695
(dp1696
g13
(dp1697
I1
F0.155217
sI2
F0.661366
sI3
F-0.771923
sI4
F-1.672133
sI10
F1.0
ssbsg15
g0
(g16
g2
Ntp1698
Rp1699
(dp1700
g20
I1
sbsba(ics475_types
Instance
p1701
(dp1702
g10
(ics475_types
FeatureVector
p1703
(dp1704
g13
(dp1705
I1
F1.139378
sI2
F-1.39547
sI3
F2.14858
sI4
F-0.543076
sI6
F1.0
ssbsg15
g0
(g16
g2
Ntp1706
Rp1707
(dp1708
g20
I0
sbsba(ics475_types
Instance
p1709
(dp1710
g10
(ics475_types
FeatureVector
p1711
(dp1712
g13
(dp1713
I1
F-0.734545
sI2
F-0.341365
sI3
F0.576011
sI4
F0.548777
sI7
F1.0
ssbsg15
g0
(g16
g2
Ntp1714
Rp1715
(dp1716
g20
I0
sbsba(ics475_types
Instance
p1717
(dp1718
g10
(ics475_types
FeatureVector
p1719
(dp1720
g13
(dp1721
I1
F0.257541
sI2
F-0.809294
sI3
F-1.048714
sI4
F0.644371
sI10
F1.0
ssbsg15
g0
(g16
g2
Ntp1722
Rp1723
(dp1724
g20
I1
sbsba(ics475_types
Instance
p1725
(dp1726
g10
(ics475_types
FeatureVector
p1727
(dp1728
g13
(dp1729
I1
F0.591161
sI2
F-0.040239
sI3
F0.434235
sI4
F-0.257194
sI9
F1.0
ssbsg15
g0
(g16
g2
Ntp1730
Rp1731
(dp1732
g20
I1
sbsba(ics475_types
Instance
p1733
(dp1734
g10
(ics475_types
FeatureVector
p1735
(dp1736
g13
(dp1737
I8
F1.0
sI1
F-0.150731
sI2
F-0.608481
sI3
F-0.192414
sI4
F0.431339
ssbsg15
g0
(g16
g2
Ntp1738
Rp1739
(dp1740
g20
I1
sbsba(ics475_types
Instance
p1741
(dp1742
g10
(ics475_types
FeatureVector
p1743
(dp1744
g13
(dp1745
I1
F1.303735
sI2
F0.017788
sI3
F0.571434
sI4
F0.908662
sI9
F1.0
ssbsg15
g0
(g16
g2
Ntp1746
Rp1747
(dp1748
g20
I1
sbsba(ics475_types
Instance
p1749
(dp1750
g10
(ics475_types
FeatureVector
p1751
(dp1752
g13
(dp1753
I1
F-1.721939
sI2
F1.413522
sI3
F0.122281
sI4
F1.160229
sI6
F1.0
ssbsg15
g0
(g16
g2
Ntp1754
Rp1755
(dp1756
g20
I0
sbsba(ics475_types
Instance
p1757
(dp1758
g10
(ics475_types
FeatureVector
p1759
(dp1760
g13
(dp1761
I1
F0.298621
sI2
F-1.537645
sI3
F0.931671
sI4
F0.850216
sI6
F1.0
ssbsg15
g0
(g16
g2
Ntp1762
Rp1763
(dp1764
g20
I0
sbsba(ics475_types
Instance
p1765
(dp1766
g10
(ics475_types
FeatureVector
p1767
(dp1768
g13
(dp1769
I8
F1.0
sI1
F0.480018
sI2
F-1.029133
sI3
F-0.237653
sI4
F-1.174898
ssbsg15
g0
(g16
g2
Ntp1770
Rp1771
(dp1772
g20
I1
sbsba(ics475_types
Instance
p1773
(dp1774
g10
(ics475_types
FeatureVector
p1775
(dp1776
g13
(dp1777
I1
F1.738012
sI2
F-1.059087
sI3
F-1.194669
sI4
F0.480908
sI9
F1.0
ssbsg15
g0
(g16
g2
Ntp1778
Rp1779
(dp1780
g20
I1
sbsba(ics475_types
Instance
p1781
(dp1782
g10
(ics475_types
FeatureVector
p1783
(dp1784
g13
(dp1785
I1
F-2.605002
sI2
F0.344588
sI3
F-1.035871
sI4
F1.261809
sI6
F1.0
ssbsg15
g0
(g16
g2
Ntp1786
Rp1787
(dp1788
g20
I0
sbsba(ics475_types
Instance
p1789
(dp1790
g10
(ics475_types
FeatureVector
p1791
(dp1792
g13
(dp1793
I1
F0.321046
sI2
F-0.695034
sI3
F-0.061
sI4
F-0.746072
sI10
F1.0
ssbsg15
g0
(g16
g2
Ntp1794
Rp1795
(dp1796
g20
I1
sbsba(ics475_types
Instance
p1797
(dp1798
g10
(ics475_types
FeatureVector
p1799
(dp1800
g13
(dp1801
I1
F1.67688
sI2
F-1.807351
sI3
F3.564788
sI4
F1.805686
sI5
F1.0
ssbsg15
g0
(g16
g2
Ntp1802
Rp1803
(dp1804
g20
I0
sbsba(ics475_types
Instance
p1805
(dp1806
g10
(ics475_types
FeatureVector
p1807
(dp1808
g13
(dp1809
I1
F-0.416091
sI2
F-0.006512
sI3
F0.814302
sI4
F1.224519
sI6
F1.0
ssbsg15
g0
(g16
g2
Ntp1810
Rp1811
(dp1812
g20
I0
sbsba(ics475_types
Instance
p1813
(dp1814
g10
(ics475_types
FeatureVector
p1815
(dp1816
g13
(dp1817
I1
F-0.199222
sI2
F-1.562438
sI3
F-0.149824
sI4
F-0.206056
sI10
F1.0
ssbsg15
g0
(g16
g2
Ntp1818
Rp1819
(dp1820
g20
I1
sbsba(ics475_types
Instance
p1821
(dp1822
g10
(ics475_types
FeatureVector
p1823
(dp1824
g13
(dp1825
I1
F0.436799
sI2
F0.54177
sI3
F0.34716
sI4
F0.048225
sI5
F1.0
ssbsg15
g0
(g16
g2
Ntp1826
Rp1827
(dp1828
g20
I0
sbsba(ics475_types
Instance
p1829
(dp1830
g10
(ics475_types
FeatureVector
p1831
(dp1832
g13
(dp1833
I1
F-1.259624
sI2
F0.381939
sI3
F0.762593
sI4
F1.747672
sI6
F1.0
ssbsg15
g0
(g16
g2
Ntp1834
Rp1835
(dp1836
g20
I0
sbsba(ics475_types
Instance
p1837
(dp1838
g10
(ics475_types
FeatureVector
p1839
(dp1840
g13
(dp1841
I1
F0.050455
sI2
F-1.106285
sI3
F0.282139
sI4
F1.449949
sI9
F1.0
ssbsg15
g0
(g16
g2
Ntp1842
Rp1843
(dp1844
g20
I1
sbsba(ics475_types
Instance
p1845
(dp1846
g10
(ics475_types
FeatureVector
p1847
(dp1848
g13
(dp1849
I1
F-0.738838
sI2
F1.527891
sI3
F-0.149906
sI4
F-0.642305
sI9
F1.0
ssbsg15
g0
(g16
g2
Ntp1850
Rp1851
(dp1852
g20
I1
sbsba(ics475_types
Instance
p1853
(dp1854
g10
(ics475_types
FeatureVector
p1855
(dp1856
g13
(dp1857
I8
F1.0
sI1
F-0.816135
sI2
F0.825353
sI3
F-0.78141
sI4
F1.956092
ssbsg15
g0
(g16
g2
Ntp1858
Rp1859
(dp1860
g20
I1
sbsba(ics475_types
Instance
p1861
(dp1862
g10
(ics475_types
FeatureVector
p1863
(dp1864
g13
(dp1865
I8
F1.0
sI1
F0.941084
sI2
F-0.933211
sI3
F0.571593
sI4
F-1.201349
ssbsg15
g0
(g16
g2
Ntp1866
Rp1867
(dp1868
g20
I1
sbsba(ics475_types
Instance
p1869
(dp1870
g10
(ics475_types
FeatureVector
p1871
(dp1872
g13
(dp1873
I8
F1.0
sI1
F-0.15994
sI2
F0.697727
sI3
F0.937209
sI4
F-0.181785
ssbsg15
g0
(g16
g2
Ntp1874
Rp1875
(dp1876
g20
I1
sbsba(ics475_types
Instance
p1877
(dp1878
g10
(ics475_types
FeatureVector
p1879
(dp1880
g13
(dp1881
I1
F-0.373142
sI2
F0.152791
sI3
F0.79212
sI4
F0.767632
sI10
F1.0
ssbsg15
g0
(g16
g2
Ntp1882
Rp1883
(dp1884
g20
I1
sbsba(ics475_types
Instance
p1885
(dp1886
g10
(ics475_types
FeatureVector
p1887
(dp1888
g13
(dp1889
I1
F0.313113
sI2
F1.770403
sI3
F0.180798
sI4
F0.294891
sI10
F1.0
ssbsg15
g0
(g16
g2
Ntp1890
Rp1891
(dp1892
g20
I1
sbsba(ics475_types
Instance
p1893
(dp1894
g10
(ics475_types
FeatureVector
p1895
(dp1896
g13
(dp1897
I1
F-0.193357
sI2
F-0.967284
sI3
F-0.397014
sI4
F2.074701
sI6
F1.0
ssbsg15
g0
(g16
g2
Ntp1898
Rp1899
(dp1900
g20
I0
sbsba(ics475_types
Instance
p1901
(dp1902
g10
(ics475_types
FeatureVector
p1903
(dp1904
g13
(dp1905
I1
F-0.86598
sI2
F0.315723
sI3
F0.534094
sI4
F-1.119383
sI10
F1.0
ssbsg15
g0
(g16
g2
Ntp1906
Rp1907
(dp1908
g20
I1
sbsba(ics475_types
Instance
p1909
(dp1910
g10
(ics475_types
FeatureVector
p1911
(dp1912
g13
(dp1913
I1
F0.468631
sI2
F-0.952938
sI3
F1.376244
sI4
F0.121132
sI7
F1.0
ssbsg15
g0
(g16
g2
Ntp1914
Rp1915
(dp1916
g20
I0
sbsba(ics475_types
Instance
p1917
(dp1918
g10
(ics475_types
FeatureVector
p1919
(dp1920
g13
(dp1921
I1
F1.227682
sI2
F-1.203632
sI3
F0.015705
sI4
F-0.007156
sI10
F1.0
ssbsg15
g0
(g16
g2
Ntp1922
Rp1923
(dp1924
g20
I1
sbsba(ics475_types
Instance
p1925
(dp1926
g10
(ics475_types
FeatureVector
p1927
(dp1928
g13
(dp1929
I1
F0.889255
sI2
F0.168888
sI3
F0.230584
sI4
F0.040358
sI9
F1.0
ssbsg15
g0
(g16
g2
Ntp1930
Rp1931
(dp1932
g20
I1
sbsba(ics475_types
Instance
p1933
(dp1934
g10
(ics475_types
FeatureVector
p1935
(dp1936
g13
(dp1937
I1
F-0.013704
sI2
F-2.439998
sI3
F-0.184453
sI4
F0.41616
sI6
F1.0
ssbsg15
g0
(g16
g2
Ntp1938
Rp1939
(dp1940
g20
I0
sbsba(ics475_types
Instance
p1941
(dp1942
g10
(ics475_types
FeatureVector
p1943
(dp1944
g13
(dp1945
I1
F-0.801254
sI2
F-1.045036
sI3
F-0.011912
sI4
F-0.695059
sI6
F1.0
ssbsg15
g0
(g16
g2
Ntp1946
Rp1947
(dp1948
g20
I0
sbsba(ics475_types
Instance
p1949
(dp1950
g10
(ics475_types
FeatureVector
p1951
(dp1952
g13
(dp1953
I1
F0.241709
sI2
F-2.170754
sI3
F1.400509
sI4
F0.821814
sI10
F1.0
ssbsg15
g0
(g16
g2
Ntp1954
Rp1955
(dp1956
g20
I1
sbsba(ics475_types
Instance
p1957
(dp1958
g10
(ics475_types
FeatureVector
p1959
(dp1960
g13
(dp1961
I1
F-0.002459
sI2
F-0.934063
sI3
F0.151684
sI4
F0.062029
sI10
F1.0
ssbsg15
g0
(g16
g2
Ntp1962
Rp1963
(dp1964
g20
I1
sbsba(ics475_types
Instance
p1965
(dp1966
g10
(ics475_types
FeatureVector
p1967
(dp1968
g13
(dp1969
I1
F0.787
sI2
F-1.158924
sI3
F-0.437947
sI4
F0.584884
sI5
F1.0
ssbsg15
g0
(g16
g2
Ntp1970
Rp1971
(dp1972
g20
I0
sbsba(ics475_types
Instance
p1973
(dp1974
g10
(ics475_types
FeatureVector
p1975
(dp1976
g13
(dp1977
I1
F0.037775
sI2
F-0.965864
sI3
F0.460046
sI4
F-0.224562
sI5
F1.0
ssbsg15
g0
(g16
g2
Ntp1978
Rp1979
(dp1980
g20
I0
sbsba(ics475_types
Instance
p1981
(dp1982
g10
(ics475_types
FeatureVector
p1983
(dp1984
g13
(dp1985
I1
F0.075139
sI2
F1.174369
sI3
F0.489093
sI4
F0.666129
sI10
F1.0
ssbsg15
g0
(g16
g2
Ntp1986
Rp1987
(dp1988
g20
I1
sbsba(ics475_types
Instance
p1989
(dp1990
g10
(ics475_types
FeatureVector
p1991
(dp1992
g13
(dp1993
I1
F-0.252099
sI2
F1.770277
sI3
F-0.823532
sI4
F-0.24591
sI9
F1.0
ssbsg15
g0
(g16
g2
Ntp1994
Rp1995
(dp1996
g20
I1
sbsba(ics475_types
Instance
p1997
(dp1998
g10
(ics475_types
FeatureVector
p1999
(dp2000
g13
(dp2001
I1
F0.971755
sI2
F0.133352
sI3
F-0.849397
sI4
F-0.483111
sI5
F1.0
ssbsg15
g0
(g16
g2
Ntp2002
Rp2003
(dp2004
g20
I0
sbsba(ics475_types
Instance
p2005
(dp2006
g10
(ics475_types
FeatureVector
p2007
(dp2008
g13
(dp2009
I1
F-2.272031
sI2
F-1.564656
sI3
F-0.171669
sI4
F-0.001203
sI10
F1.0
ssbsg15
g0
(g16
g2
Ntp2010
Rp2011
(dp2012
g20
I1
sbsba(ics475_types
Instance
p2013
(dp2014
g10
(ics475_types
FeatureVector
p2015
(dp2016
g13
(dp2017
I1
F-0.567288
sI2
F0.067796
sI3
F2.259231
sI4
F0.760561
sI9
F1.0
ssbsg15
g0
(g16
g2
Ntp2018
Rp2019
(dp2020
g20
I1
sbsba(ics475_types
Instance
p2021
(dp2022
g10
(ics475_types
FeatureVector
p2023
(dp2024
g13
(dp2025
I1
F-0.605537
sI2
F-0.878715
sI3
F-1.24979
sI4
F0.026265
sI9
F1.0
ssbsg15
g0
(g16
g2
Ntp2026
Rp2027
(dp2028
g20
I1
sbsba(ics475_types
Instance
p2029
(dp2030
g10
(ics475_types
FeatureVector
p2031
(dp2032
g13
(dp2033
I1
F1.076806
sI2
F-0.903121
sI3
F0.256513
sI4
F-1.313223
sI10
F1.0
ssbsg15
g0
(g16
g2
Ntp2034
Rp2035
(dp2036
g20
I1
sbsba(ics475_types
Instance
p2037
(dp2038
g10
(ics475_types
FeatureVector
p2039
(dp2040
g13
(dp2041
I1
F0.551913
sI2
F-0.70127
sI3
F-0.470569
sI4
F0.275935
sI6
F1.0
ssbsg15
g0
(g16
g2
Ntp2042
Rp2043
(dp2044
g20
I0
sbsba(ics475_types
Instance
p2045
(dp2046
g10
(ics475_types
FeatureVector
p2047
(dp2048
g13
(dp2049
I1
F1.134859
sI2
F1.838448
sI3
F-0.061395
sI4
F0.713413
sI9
F1.0
ssbsg15
g0
(g16
g2
Ntp2050
Rp2051
(dp2052
g20
I1
sbsba(ics475_types
Instance
p2053
(dp2054
g10
(ics475_types
FeatureVector
p2055
(dp2056
g13
(dp2057
I1
F-1.063374
sI2
F-1.161404
sI3
F0.763883
sI4
F0.692013
sI10
F1.0
ssbsg15
g0
(g16
g2
Ntp2058
Rp2059
(dp2060
g20
I1
sbsba(ics475_types
Instance
p2061
(dp2062
g10
(ics475_types
FeatureVector
p2063
(dp2064
g13
(dp2065
I1
F0.142923
sI2
F-1.041241
sI3
F1.199545
sI4
F0.689174
sI6
F1.0
ssbsg15
g0
(g16
g2
Ntp2066
Rp2067
(dp2068
g20
I0
sbsba(ics475_types
Instance
p2069
(dp2070
g10
(ics475_types
FeatureVector
p2071
(dp2072
g13
(dp2073
I1
F-0.165506
sI2
F2.460573
sI3
F0.468738
sI4
F1.860994
sI10
F1.0
ssbsg15
g0
(g16
g2
Ntp2074
Rp2075
(dp2076
g20
I1
sbsba(ics475_types
Instance
p2077
(dp2078
g10
(ics475_types
FeatureVector
p2079
(dp2080
g13
(dp2081
I1
F-0.439052
sI2
F1.73286
sI3
F-1.450387
sI4
F0.247955
sI6
F1.0
ssbsg15
g0
(g16
g2
Ntp2082
Rp2083
(dp2084
g20
I0
sbsba(ics475_types
Instance
p2085
(dp2086
g10
(ics475_types
FeatureVector
p2087
(dp2088
g13
(dp2089
I8
F1.0
sI1
F-0.049773
sI2
F-0.558883
sI3
F-1.071535
sI4
F0.491574
ssbsg15
g0
(g16
g2
Ntp2090
Rp2091
(dp2092
g20
I1
sbsba(ics475_types
Instance
p2093
(dp2094
g10
(ics475_types
FeatureVector
p2095
(dp2096
g13
(dp2097
I1
F-0.851895
sI2
F-0.746953
sI3
F1.063656
sI4
F0.437454
sI5
F1.0
ssbsg15
g0
(g16
g2
Ntp2098
Rp2099
(dp2100
g20
I0
sbsba(ics475_types
Instance
p2101
(dp2102
g10
(ics475_types
FeatureVector
p2103
(dp2104
g13
(dp2105
I8
F1.0
sI1
F-0.608095
sI2
F-0.258116
sI3
F1.277637
sI4
F-0.964073
ssbsg15
g0
(g16
g2
Ntp2106
Rp2107
(dp2108
g20
I1
sbsba(ics475_types
Instance
p2109
(dp2110
g10
(ics475_types
FeatureVector
p2111
(dp2112
g13
(dp2113
I1
F0.397447
sI2
F-1.03516
sI3
F0.42756
sI4
F0.392117
sI9
F1.0
ssbsg15
g0
(g16
g2
Ntp2114
Rp2115
(dp2116
g20
I1
sbsba(ics475_types
Instance
p2117
(dp2118
g10
(ics475_types
FeatureVector
p2119
(dp2120
g13
(dp2121
I1
F0.005485
sI2
F1.657809
sI3
F0.592079
sI4
F0.099403
sI10
F1.0
ssbsg15
g0
(g16
g2
Ntp2122
Rp2123
(dp2124
g20
I1
sbsba(ics475_types
Instance
p2125
(dp2126
g10
(ics475_types
FeatureVector
p2127
(dp2128
g13
(dp2129
I1
F0.272435
sI2
F0.533788
sI3
F1.16308
sI4
F-1.074984
sI5
F1.0
ssbsg15
g0
(g16
g2
Ntp2130
Rp2131
(dp2132
g20
I0
sbsba(ics475_types
Instance
p2133
(dp2134
g10
(ics475_types
FeatureVector
p2135
(dp2136
g13
(dp2137
I1
F-0.115388
sI2
F0.517151
sI3
F-0.493393
sI4
F0.430376
sI9
F1.0
ssbsg15
g0
(g16
g2
Ntp2138
Rp2139
(dp2140
g20
I1
sbsba(ics475_types
Instance
p2141
(dp2142
g10
(ics475_types
FeatureVector
p2143
(dp2144
g13
(dp2145
I1
F0.132347
sI2
F0.127733
sI3
F-0.513228
sI4
F0.12144
sI9
F1.0
ssbsg15
g0
(g16
g2
Ntp2146
Rp2147
(dp2148
g20
I1
sbsba(ics475_types
Instance
p2149
(dp2150
g10
(ics475_types
FeatureVector
p2151
(dp2152
g13
(dp2153
I1
F1.522354
sI2
F0.848887
sI3
F1.845034
sI4
F0.491255
sI5
F1.0
ssbsg15
g0
(g16
g2
Ntp2154
Rp2155
(dp2156
g20
I0
sbsba(ics475_types
Instance
p2157
(dp2158
g10
(ics475_types
FeatureVector
p2159
(dp2160
g13
(dp2161
I1
F-0.23553
sI2
F-1.468159
sI3
F0.987179
sI4
F1.176918
sI7
F1.0
ssbsg15
g0
(g16
g2
Ntp2162
Rp2163
(dp2164
g20
I0
sbsba(ics475_types
Instance
p2165
(dp2166
g10
(ics475_types
FeatureVector
p2167
(dp2168
g13
(dp2169
I1
F0.355511
sI2
F-0.266732
sI3
F1.365135
sI4
F0.179055
sI5
F1.0
ssbsg15
g0
(g16
g2
Ntp2170
Rp2171
(dp2172
g20
I0
sbsba(ics475_types
Instance
p2173
(dp2174
g10
(ics475_types
FeatureVector
p2175
(dp2176
g13
(dp2177
I1
F1.041864
sI2
F1.30648
sI3
F-1.47876
sI4
F0.003306
sI10
F1.0
ssbsg15
g0
(g16
g2
Ntp2178
Rp2179
(dp2180
g20
I1
sbsba(ics475_types
Instance
p2181
(dp2182
g10
(ics475_types
FeatureVector
p2183
(dp2184
g13
(dp2185
I1
F0.478686
sI2
F-0.651852
sI3
F-3.235265
sI4
F-0.903072
sI9
F1.0
ssbsg15
g0
(g16
g2
Ntp2186
Rp2187
(dp2188
g20
I1
sbsba(ics475_types
Instance
p2189
(dp2190
g10
(ics475_types
FeatureVector
p2191
(dp2192
g13
(dp2193
I1
F-0.639511
sI2
F0.227493
sI3
F-0.385673
sI4
F0.675419
sI9
F1.0
ssbsg15
g0
(g16
g2
Ntp2194
Rp2195
(dp2196
g20
I1
sbsba(ics475_types
Instance
p2197
(dp2198
g10
(ics475_types
FeatureVector
p2199
(dp2200
g13
(dp2201
I1
F0.594227
sI2
F-0.294402
sI3
F-0.559632
sI4
F0.45443
sI5
F1.0
ssbsg15
g0
(g16
g2
Ntp2202
Rp2203
(dp2204
g20
I0
sbsba(ics475_types
Instance
p2205
(dp2206
g10
(ics475_types
FeatureVector
p2207
(dp2208
g13
(dp2209
I8
F1.0
sI1
F-0.35299
sI2
F-0.092174
sI3
F1.484149
sI4
F-1.005846
ssbsg15
g0
(g16
g2
Ntp2210
Rp2211
(dp2212
g20
I1
sbsba(ics475_types
Instance
p2213
(dp2214
g10
(ics475_types
FeatureVector
p2215
(dp2216
g13
(dp2217
I1
F0.602307
sI2
F0.225091
sI3
F-1.393515
sI4
F0.905043
sI6
F1.0
ssbsg15
g0
(g16
g2
Ntp2218
Rp2219
(dp2220
g20
I0
sbsba(ics475_types
Instance
p2221
(dp2222
g10
(ics475_types
FeatureVector
p2223
(dp2224
g13
(dp2225
I1
F1.186277
sI2
F-1.58419
sI3
F-0.315976
sI4
F1.286959
sI10
F1.0
ssbsg15
g0
(g16
g2
Ntp2226
Rp2227
(dp2228
g20
I1
sbsba(ics475_types
Instance
p2229
(dp2230
g10
(ics475_types
FeatureVector
p2231
(dp2232
g13
(dp2233
I1
F-0.05945
sI2
F0.660823
sI3
F-1.270226
sI4
F1.571067
sI9
F1.0
ssbsg15
g0
(g16
g2
Ntp2234
Rp2235
(dp2236
g20
I1
sbsba(ics475_types
Instance
p2237
(dp2238
g10
(ics475_types
FeatureVector
p2239
(dp2240
g13
(dp2241
I8
F1.0
sI1
F-1.689989
sI2
F-1.345693
sI3
F1.2895
sI4
F-0.236485
ssbsg15
g0
(g16
g2
Ntp2242
Rp2243
(dp2244
g20
I1
sbsba(ics475_types
Instance
p2245
(dp2246
g10
(ics475_types
FeatureVector
p2247
(dp2248
g13
(dp2249
I1
F-0.870295
sI2
F0.250179
sI3
F0.762017
sI4
F-0.64035
sI7
F1.0
ssbsg15
g0
(g16
g2
Ntp2250
Rp2251
(dp2252
g20
I0
sbsba(ics475_types
Instance
p2253
(dp2254
g10
(ics475_types
FeatureVector
p2255
(dp2256
g13
(dp2257
I1
F0.724732
sI2
F-0.24643
sI3
F-0.603805
sI4
F-0.6765
sI7
F1.0
ssbsg15
g0
(g16
g2
Ntp2258
Rp2259
(dp2260
g20
I0
sbsba(ics475_types
Instance
p2261
(dp2262
g10
(ics475_types
FeatureVector
p2263
(dp2264
g13
(dp2265
I8
F1.0
sI1
F1.583587
sI2
F-1.20273
sI3
F0.996426
sI4
F-0.710608
ssbsg15
g0
(g16
g2
Ntp2266
Rp2267
(dp2268
g20
I1
sbsba(ics475_types
Instance
p2269
(dp2270
g10
(ics475_types
FeatureVector
p2271
(dp2272
g13
(dp2273
I8
F1.0
sI1
F0.780402
sI2
F-0.745075
sI3
F-1.005384
sI4
F0.580729
ssbsg15
g0
(g16
g2
Ntp2274
Rp2275
(dp2276
g20
I1
sbsba(ics475_types
Instance
p2277
(dp2278
g10
(ics475_types
FeatureVector
p2279
(dp2280
g13
(dp2281
I1
F1.036603
sI2
F1.101213
sI3
F-0.754694
sI4
F-0.542389
sI7
F1.0
ssbsg15
g0
(g16
g2
Ntp2282
Rp2283
(dp2284
g20
I0
sbsba(ics475_types
Instance
p2285
(dp2286
g10
(ics475_types
FeatureVector
p2287
(dp2288
g13
(dp2289
I1
F0.093472
sI2
F-0.253905
sI3
F-0.632911
sI4
F-0.817432
sI5
F1.0
ssbsg15
g0
(g16
g2
Ntp2290
Rp2291
(dp2292
g20
I0
sbsba(ics475_types
Instance
p2293
(dp2294
g10
(ics475_types
FeatureVector
p2295
(dp2296
g13
(dp2297
I1
F0.705301
sI2
F0.425461
sI3
F-0.027274
sI4
F-0.860077
sI6
F1.0
ssbsg15
g0
(g16
g2
Ntp2298
Rp2299
(dp2300
g20
I0
sbsba(ics475_types
Instance
p2301
(dp2302
g10
(ics475_types
FeatureVector
p2303
(dp2304
g13
(dp2305
I1
F-0.182064
sI2
F-1.372836
sI3
F-1.646071
sI4
F0.693511
sI6
F1.0
ssbsg15
g0
(g16
g2
Ntp2306
Rp2307
(dp2308
g20
I0
sbsba(ics475_types
Instance
p2309
(dp2310
g10
(ics475_types
FeatureVector
p2311
(dp2312
g13
(dp2313
I1
F0.761606
sI2
F1.089547
sI3
F0.468147
sI4
F0.574838
sI6
F1.0
ssbsg15
g0
(g16
g2
Ntp2314
Rp2315
(dp2316
g20
I0
sbsba(ics475_types
Instance
p2317
(dp2318
g10
(ics475_types
FeatureVector
p2319
(dp2320
g13
(dp2321
I1
F0.876248
sI2
F0.088477
sI3
F-0.59312
sI4
F0.306008
sI6
F1.0
ssbsg15
g0
(g16
g2
Ntp2322
Rp2323
(dp2324
g20
I0
sbsba(ics475_types
Instance
p2325
(dp2326
g10
(ics475_types
FeatureVector
p2327
(dp2328
g13
(dp2329
I1
F0.250449
sI2
F1.111362
sI3
F1.022035
sI4
F0.829017
sI6
F1.0
ssbsg15
g0
(g16
g2
Ntp2330
Rp2331
(dp2332
g20
I0
sbsba(ics475_types
Instance
p2333
(dp2334
g10
(ics475_types
FeatureVector
p2335
(dp2336
g13
(dp2337
I8
F1.0
sI1
F0.701476
sI2
F0.076265
sI3
F-1.481038
sI4
F-1.40953
ssbsg15
g0
(g16
g2
Ntp2338
Rp2339
(dp2340
g20
I1
sbsba(ics475_types
Instance
p2341
(dp2342
g10
(ics475_types
FeatureVector
p2343
(dp2344
g13
(dp2345
I1
F0.319904
sI2
F-0.247365
sI3
F-0.784431
sI4
F-0.484309
sI10
F1.0
ssbsg15
g0
(g16
g2
Ntp2346
Rp2347
(dp2348
g20
I1
sbsba(ics475_types
Instance
p2349
(dp2350
g10
(ics475_types
FeatureVector
p2351
(dp2352
g13
(dp2353
I1
F1.059723
sI2
F0.349323
sI3
F-1.090888
sI4
F1.152838
sI6
F1.0
ssbsg15
g0
(g16
g2
Ntp2354
Rp2355
(dp2356
g20
I0
sbsba(ics475_types
Instance
p2357
(dp2358
g10
(ics475_types
FeatureVector
p2359
(dp2360
g13
(dp2361
I1
F0.832334
sI2
F-1.18475
sI3
F-0.413485
sI4
F0.077489
sI7
F1.0
ssbsg15
g0
(g16
g2
Ntp2362
Rp2363
(dp2364
g20
I0
sbsba(ics475_types
Instance
p2365
(dp2366
g10
(ics475_types
FeatureVector
p2367
(dp2368
g13
(dp2369
I1
F0.323868
sI2
F-0.388501
sI3
F1.948317
sI4
F0.472584
sI5
F1.0
ssbsg15
g0
(g16
g2
Ntp2370
Rp2371
(dp2372
g20
I0
sbsba(ics475_types
Instance
p2373
(dp2374
g10
(ics475_types
FeatureVector
p2375
(dp2376
g13
(dp2377
I8
F1.0
sI1
F-0.427646
sI2
F0.481898
sI3
F-1.243549
sI4
F-0.724643
ssbsg15
g0
(g16
g2
Ntp2378
Rp2379
(dp2380
g20
I1
sbsba(ics475_types
Instance
p2381
(dp2382
g10
(ics475_types
FeatureVector
p2383
(dp2384
g13
(dp2385
I1
F2.072815
sI2
F0.137757
sI3
F-0.152448
sI4
F1.632562
sI5
F1.0
ssbsg15
g0
(g16
g2
Ntp2386
Rp2387
(dp2388
g20
I0
sbsba(ics475_types
Instance
p2389
(dp2390
g10
(ics475_types
FeatureVector
p2391
(dp2392
g13
(dp2393
I8
F1.0
sI1
F-0.241153
sI2
F-1.54089
sI3
F1.490387
sI4
F0.126917
ssbsg15
g0
(g16
g2
Ntp2394
Rp2395
(dp2396
g20
I1
sbsba(ics475_types
Instance
p2397
(dp2398
g10
(ics475_types
FeatureVector
p2399
(dp2400
g13
(dp2401
I1
F0.522014
sI2
F-1.240984
sI3
F0.219507
sI4
F-0.4608
sI5
F1.0
ssbsg15
g0
(g16
g2
Ntp2402
Rp2403
(dp2404
g20
I0
sbsba(ics475_types
Instance
p2405
(dp2406
g10
(ics475_types
FeatureVector
p2407
(dp2408
g13
(dp2409
I1
F0.280949
sI2
F-0.102485
sI3
F0.709484
sI4
F0.39479
sI9
F1.0
ssbsg15
g0
(g16
g2
Ntp2410
Rp2411
(dp2412
g20
I1
sbsba(ics475_types
Instance
p2413
(dp2414
g10
(ics475_types
FeatureVector
p2415
(dp2416
g13
(dp2417
I1
F-0.042176
sI2
F0.327987
sI3
F0.157687
sI4
F1.265452
sI5
F1.0
ssbsg15
g0
(g16
g2
Ntp2418
Rp2419
(dp2420
g20
I0
sbsba(ics475_types
Instance
p2421
(dp2422
g10
(ics475_types
FeatureVector
p2423
(dp2424
g13
(dp2425
I1
F-0.857348
sI2
F0.977103
sI3
F-0.986977
sI4
F-0.373177
sI6
F1.0
ssbsg15
g0
(g16
g2
Ntp2426
Rp2427
(dp2428
g20
I0
sbsba(ics475_types
Instance
p2429
(dp2430
g10
(ics475_types
FeatureVector
p2431
(dp2432
g13
(dp2433
I8
F1.0
sI1
F-0.568988
sI2
F-0.191334
sI3
F-0.318846
sI4
F-2.263231
ssbsg15
g0
(g16
g2
Ntp2434
Rp2435
(dp2436
g20
I1
sbsba(ics475_types
Instance
p2437
(dp2438
g10
(ics475_types
FeatureVector
p2439
(dp2440
g13
(dp2441
I1
F0.304579
sI2
F-1.131157
sI3
F0.952997
sI4
F-0.13684
sI7
F1.0
ssbsg15
g0
(g16
g2
Ntp2442
Rp2443
(dp2444
g20
I0
sbsba(ics475_types
Instance
p2445
(dp2446
g10
(ics475_types
FeatureVector
p2447
(dp2448
g13
(dp2449
I8
F1.0
sI1
F0.749981
sI2
F0.314471
sI3
F1.440943
sI4
F0.280631
ssbsg15
g0
(g16
g2
Ntp2450
Rp2451
(dp2452
g20
I1
sbsba(ics475_types
Instance
p2453
(dp2454
g10
(ics475_types
FeatureVector
p2455
(dp2456
g13
(dp2457
I8
F1.0
sI1
F-0.878749
sI2
F0.032882
sI3
F0.470274
sI4
F0.756112
ssbsg15
g0
(g16
g2
Ntp2458
Rp2459
(dp2460
g20
I1
sbsba(ics475_types
Instance
p2461
(dp2462
g10
(ics475_types
FeatureVector
p2463
(dp2464
g13
(dp2465
I1
F0.979078
sI2
F-1.530055
sI3
F1.399198
sI4
F-0.16596
sI10
F1.0
ssbsg15
g0
(g16
g2
Ntp2466
Rp2467
(dp2468
g20
I1
sbsba(ics475_types
Instance
p2469
(dp2470
g10
(ics475_types
FeatureVector
p2471
(dp2472
g13
(dp2473
I1
F0.903728
sI2
F-1.994257
sI3
F0.216027
sI4
F0.581586
sI9
F1.0
ssbsg15
g0
(g16
g2
Ntp2474
Rp2475
(dp2476
g20
I1
sbsba(ics475_types
Instance
p2477
(dp2478
g10
(ics475_types
FeatureVector
p2479
(dp2480
g13
(dp2481
I1
F-2.079184
sI2
F0.306072
sI3
F-0.082558
sI4
F-0.332752
sI6
F1.0
ssbsg15
g0
(g16
g2
Ntp2482
Rp2483
(dp2484
g20
I0
sbsba(ics475_types
Instance
p2485
(dp2486
g10
(ics475_types
FeatureVector
p2487
(dp2488
g13
(dp2489
I1
F-3.209351
sI2
F0.480567
sI3
F-0.432953
sI4
F-0.28424
sI10
F1.0
ssbsg15
g0
(g16
g2
Ntp2490
Rp2491
(dp2492
g20
I1
sbsba(ics475_types
Instance
p2493
(dp2494
g10
(ics475_types
FeatureVector
p2495
(dp2496
g13
(dp2497
I1
F1.058844
sI2
F-1.183669
sI3
F0.04498
sI4
F-0.010333
sI9
F1.0
ssbsg15
g0
(g16
g2
Ntp2498
Rp2499
(dp2500
g20
I1
sbsba(ics475_types
Instance
p2501
(dp2502
g10
(ics475_types
FeatureVector
p2503
(dp2504
g13
(dp2505
I1
F-0.890818
sI2
F0.679565
sI3
F-0.473409
sI4
F1.574469
sI7
F1.0
ssbsg15
g0
(g16
g2
Ntp2506
Rp2507
(dp2508
g20
I0
sbsba(ics475_types
Instance
p2509
(dp2510
g10
(ics475_types
FeatureVector
p2511
(dp2512
g13
(dp2513
I1
F0.117846
sI2
F0.263323
sI3
F-0.310418
sI4
F0.000129
sI9
F1.0
ssbsg15
g0
(g16
g2
Ntp2514
Rp2515
(dp2516
g20
I1
sbsba(ics475_types
Instance
p2517
(dp2518
g10
(ics475_types
FeatureVector
p2519
(dp2520
g13
(dp2521
I1
F0.895433
sI2
F1.547775
sI3
F-1.101263
sI4
F0.484058
sI6
F1.0
ssbsg15
g0
(g16
g2
Ntp2522
Rp2523
(dp2524
g20
I0
sbsba(ics475_types
Instance
p2525
(dp2526
g10
(ics475_types
FeatureVector
p2527
(dp2528
g13
(dp2529
I1
F-0.746785
sI2
F0.206352
sI3
F1.109863
sI4
F0.160796
sI10
F1.0
ssbsg15
g0
(g16
g2
Ntp2530
Rp2531
(dp2532
g20
I1
sbsba(ics475_types
Instance
p2533
(dp2534
g10
(ics475_types
FeatureVector
p2535
(dp2536
g13
(dp2537
I1
F-0.74287
sI2
F0.838841
sI3
F0.592932
sI4
F0.702968
sI6
F1.0
ssbsg15
g0
(g16
g2
Ntp2538
Rp2539
(dp2540
g20
I0
sbsba(ics475_types
Instance
p2541
(dp2542
g10
(ics475_types
FeatureVector
p2543
(dp2544
g13
(dp2545
I1
F-0.264778
sI2
F1.37231
sI3
F-0.685615
sI4
F0.829966
sI7
F1.0
ssbsg15
g0
(g16
g2
Ntp2546
Rp2547
(dp2548
g20
I0
sbsba(ics475_types
Instance
p2549
(dp2550
g10
(ics475_types
FeatureVector
p2551
(dp2552
g13
(dp2553
I1
F1.562393
sI2
F0.171791
sI3
F0.919347
sI4
F-0.681161
sI9
F1.0
ssbsg15
g0
(g16
g2
Ntp2554
Rp2555
(dp2556
g20
I1
sbsba(ics475_types
Instance
p2557
(dp2558
g10
(ics475_types
FeatureVector
p2559
(dp2560
g13
(dp2561
I1
F-0.641533
sI2
F-0.277205
sI3
F-0.081859
sI4
F0.005382
sI5
F1.0
ssbsg15
g0
(g16
g2
Ntp2562
Rp2563
(dp2564
g20
I0
sbsba(ics475_types
Instance
p2565
(dp2566
g10
(ics475_types
FeatureVector
p2567
(dp2568
g13
(dp2569
I1
F0.176175
sI2
F0.734827
sI3
F0.812696
sI4
F0.334269
sI9
F1.0
ssbsg15
g0
(g16
g2
Ntp2570
Rp2571
(dp2572
g20
I1
sbsba(ics475_types
Instance
p2573
(dp2574
g10
(ics475_types
FeatureVector
p2575
(dp2576
g13
(dp2577
I1
F-0.082418
sI2
F0.659045
sI3
F-0.369139
sI4
F-2.005828
sI6
F1.0
ssbsg15
g0
(g16
g2
Ntp2578
Rp2579
(dp2580
g20
I0
sbsba(ics475_types
Instance
p2581
(dp2582
g10
(ics475_types
FeatureVector
p2583
(dp2584
g13
(dp2585
I8
F1.0
sI1
F-1.000126
sI2
F-0.679708
sI3
F-1.460852
sI4
F-2.365079
ssbsg15
g0
(g16
g2
Ntp2586
Rp2587
(dp2588
g20
I1
sbsba(ics475_types
Instance
p2589
(dp2590
g10
(ics475_types
FeatureVector
p2591
(dp2592
g13
(dp2593
I1
F0.451403
sI2
F-1.375792
sI3
F-0.846517
sI4
F-0.443495
sI7
F1.0
ssbsg15
g0
(g16
g2
Ntp2594
Rp2595
(dp2596
g20
I0
sbsba(ics475_types
Instance
p2597
(dp2598
g10
(ics475_types
FeatureVector
p2599
(dp2600
g13
(dp2601
I1
F-0.874271
sI2
F-0.673061
sI3
F0.120164
sI4
F-0.758182
sI5
F1.0
ssbsg15
g0
(g16
g2
Ntp2602
Rp2603
(dp2604
g20
I0
sbsba(ics475_types
Instance
p2605
(dp2606
g10
(ics475_types
FeatureVector
p2607
(dp2608
g13
(dp2609
I8
F1.0
sI1
F2.100465
sI2
F0.490913
sI3
F-0.952057
sI4
F1.872483
ssbsg15
g0
(g16
g2
Ntp2610
Rp2611
(dp2612
g20
I1
sbsba(ics475_types
Instance
p2613
(dp2614
g10
(ics475_types
FeatureVector
p2615
(dp2616
g13
(dp2617
I8
F1.0
sI1
F0.823115
sI2
F-0.961618
sI3
F0.983689
sI4
F-1.128319
ssbsg15
g0
(g16
g2
Ntp2618
Rp2619
(dp2620
g20
I1
sbsba(ics475_types
Instance
p2621
(dp2622
g10
(ics475_types
FeatureVector
p2623
(dp2624
g13
(dp2625
I1
F-1.322975
sI2
F-1.582324
sI3
F-1.007832
sI4
F-2.079368
sI10
F1.0
ssbsg15
g0
(g16
g2
Ntp2626
Rp2627
(dp2628
g20
I1
sbsba(ics475_types
Instance
p2629
(dp2630
g10
(ics475_types
FeatureVector
p2631
(dp2632
g13
(dp2633
I1
F0.079224
sI2
F-1.242448
sI3
F0.325439
sI4
F-1.811266
sI7
F1.0
ssbsg15
g0
(g16
g2
Ntp2634
Rp2635
(dp2636
g20
I0
sbsba(ics475_types
Instance
p2637
(dp2638
g10
(ics475_types
FeatureVector
p2639
(dp2640
g13
(dp2641
I8
F1.0
sI1
F0.982184
sI2
F-0.949386
sI3
F-1.590344
sI4
F-0.09489
ssbsg15
g0
(g16
g2
Ntp2642
Rp2643
(dp2644
g20
I1
sbsba(ics475_types
Instance
p2645
(dp2646
g10
(ics475_types
FeatureVector
p2647
(dp2648
g13
(dp2649
I1
F-2.258181
sI2
F0.414987
sI3
F-0.940406
sI4
F2.842428
sI10
F1.0
ssbsg15
g0
(g16
g2
Ntp2650
Rp2651
(dp2652
g20
I1
sbsba(ics475_types
Instance
p2653
(dp2654
g10
(ics475_types
FeatureVector
p2655
(dp2656
g13
(dp2657
I1
F1.748334
sI2
F-1.332317
sI3
F0.022143
sI4
F0.317163
sI10
F1.0
ssbsg15
g0
(g16
g2
Ntp2658
Rp2659
(dp2660
g20
I1
sbsba(ics475_types
Instance
p2661
(dp2662
g10
(ics475_types
FeatureVector
p2663
(dp2664
g13
(dp2665
I1
F-0.402096
sI2
F-0.443921
sI3
F1.614326
sI4
F-1.106325
sI9
F1.0
ssbsg15
g0
(g16
g2
Ntp2666
Rp2667
(dp2668
g20
I1
sbsba(ics475_types
Instance
p2669
(dp2670
g10
(ics475_types
FeatureVector
p2671
(dp2672
g13
(dp2673
I1
F-1.251329
sI2
F1.164679
sI3
F-0.793972
sI4
F0.934462
sI7
F1.0
ssbsg15
g0
(g16
g2
Ntp2674
Rp2675
(dp2676
g20
I0
sbsba(ics475_types
Instance
p2677
(dp2678
g10
(ics475_types
FeatureVector
p2679
(dp2680
g13
(dp2681
I1
F-0.749468
sI2
F0.072352
sI3
F1.586524
sI4
F0.569767
sI10
F1.0
ssbsg15
g0
(g16
g2
Ntp2682
Rp2683
(dp2684
g20
I1
sbsba(ics475_types
Instance
p2685
(dp2686
g10
(ics475_types
FeatureVector
p2687
(dp2688
g13
(dp2689
I1
F-0.300761
sI2
F0.308035
sI3
F0.622663
sI4
F-0.253163
sI5
F1.0
ssbsg15
g0
(g16
g2
Ntp2690
Rp2691
(dp2692
g20
I0
sbsba(ics475_types
Instance
p2693
(dp2694
g10
(ics475_types
FeatureVector
p2695
(dp2696
g13
(dp2697
I1
F0.00186
sI2
F0.279032
sI3
F0.032033
sI4
F1.268619
sI5
F1.0
ssbsg15
g0
(g16
g2
Ntp2698
Rp2699
(dp2700
g20
I0
sbsba(ics475_types
Instance
p2701
(dp2702
g10
(ics475_types
FeatureVector
p2703
(dp2704
g13
(dp2705
I1
F0.9588
sI2
F-0.550424
sI3
F-0.06622
sI4
F-1.040691
sI10
F1.0
ssbsg15
g0
(g16
g2
Ntp2706
Rp2707
(dp2708
g20
I1
sbsba(ics475_types
Instance
p2709
(dp2710
g10
(ics475_types
FeatureVector
p2711
(dp2712
g13
(dp2713
I1
F0.665646
sI2
F0.31089
sI3
F-2.511695
sI4
F0.222128
sI7
F1.0
ssbsg15
g0
(g16
g2
Ntp2714
Rp2715
(dp2716
g20
I0
sbsba(ics475_types
Instance
p2717
(dp2718
g10
(ics475_types
FeatureVector
p2719
(dp2720
g13
(dp2721
I8
F1.0
sI1
F-0.920376
sI2
F-0.134868
sI3
F0.32041
sI4
F0.533187
ssbsg15
g0
(g16
g2
Ntp2722
Rp2723
(dp2724
g20
I1
sbsba(ics475_types
Instance
p2725
(dp2726
g10
(ics475_types
FeatureVector
p2727
(dp2728
g13
(dp2729
I1
F-1.35911
sI2
F-0.602243
sI3
F1.054324
sI4
F0.167223
sI6
F1.0
ssbsg15
g0
(g16
g2
Ntp2730
Rp2731
(dp2732
g20
I0
sbsba(ics475_types
Instance
p2733
(dp2734
g10
(ics475_types
FeatureVector
p2735
(dp2736
g13
(dp2737
I1
F-0.330857
sI2
F-0.237122
sI3
F-1.258466
sI4
F0.880326
sI10
F1.0
ssbsg15
g0
(g16
g2
Ntp2738
Rp2739
(dp2740
g20
I1
sbsba(ics475_types
Instance
p2741
(dp2742
g10
(ics475_types
FeatureVector
p2743
(dp2744
g13
(dp2745
I1
F0.383179
sI2
F0.564485
sI3
F-1.717951
sI4
F0.059363
sI5
F1.0
ssbsg15
g0
(g16
g2
Ntp2746
Rp2747
(dp2748
g20
I0
sbsba(ics475_types
Instance
p2749
(dp2750
g10
(ics475_types
FeatureVector
p2751
(dp2752
g13
(dp2753
I1
F-0.796468
sI2
F-0.261942
sI3
F0.291606
sI4
F0.801653
sI10
F1.0
ssbsg15
g0
(g16
g2
Ntp2754
Rp2755
(dp2756
g20
I1
sbsba(ics475_types
Instance
p2757
(dp2758
g10
(ics475_types
FeatureVector
p2759
(dp2760
g13
(dp2761
I1
F0.070427
sI2
F0.774529
sI3
F1.882868
sI4
F1.107197
sI5
F1.0
ssbsg15
g0
(g16
g2
Ntp2762
Rp2763
(dp2764
g20
I0
sbsba(ics475_types
Instance
p2765
(dp2766
g10
(ics475_types
FeatureVector
p2767
(dp2768
g13
(dp2769
I1
F1.36508
sI2
F0.438403
sI3
F-1.345707
sI4
F1.264676
sI10
F1.0
ssbsg15
g0
(g16
g2
Ntp2770
Rp2771
(dp2772
g20
I1
sbsba(ics475_types
Instance
p2773
(dp2774
g10
(ics475_types
FeatureVector
p2775
(dp2776
g13
(dp2777
I8
F1.0
sI1
F0.553307
sI2
F-0.048257
sI3
F0.577588
sI4
F0.12484
ssbsg15
g0
(g16
g2
Ntp2778
Rp2779
(dp2780
g20
I1
sbsba(ics475_types
Instance
p2781
(dp2782
g10
(ics475_types
FeatureVector
p2783
(dp2784
g13
(dp2785
I1
F-0.949143
sI2
F0.511494
sI3
F-1.552189
sI4
F-0.877876
sI6
F1.0
ssbsg15
g0
(g16
g2
Ntp2786
Rp2787
(dp2788
g20
I0
sbsba(ics475_types
Instance
p2789
(dp2790
g10
(ics475_types
FeatureVector
p2791
(dp2792
g13
(dp2793
I1
F1.801988
sI2
F0.138257
sI3
F-0.700897
sI4
F-0.803181
sI10
F1.0
ssbsg15
g0
(g16
g2
Ntp2794
Rp2795
(dp2796
g20
I1
sbsba(ics475_types
Instance
p2797
(dp2798
g10
(ics475_types
FeatureVector
p2799
(dp2800
g13
(dp2801
I1
F-0.704636
sI2
F-0.089124
sI3
F-0.113019
sI4
F-0.73294
sI10
F1.0
ssbsg15
g0
(g16
g2
Ntp2802
Rp2803
(dp2804
g20
I1
sbsba(ics475_types
Instance
p2805
(dp2806
g10
(ics475_types
FeatureVector
p2807
(dp2808
g13
(dp2809
I1
F-0.492767
sI2
F0.023793
sI3
F1.41312
sI4
F-0.352774
sI6
F1.0
ssbsg15
g0
(g16
g2
Ntp2810
Rp2811
(dp2812
g20
I0
sbsba(ics475_types
Instance
p2813
(dp2814
g10
(ics475_types
FeatureVector
p2815
(dp2816
g13
(dp2817
I1
F1.30909
sI2
F1.596204
sI3
F1.383334
sI4
F2.519946
sI7
F1.0
ssbsg15
g0
(g16
g2
Ntp2818
Rp2819
(dp2820
g20
I0
sbsba(ics475_types
Instance
p2821
(dp2822
g10
(ics475_types
FeatureVector
p2823
(dp2824
g13
(dp2825
I1
F0.705964
sI2
F1.103758
sI3
F-1.890517
sI4
F0.574035
sI6
F1.0
ssbsg15
g0
(g16
g2
Ntp2826
Rp2827
(dp2828
g20
I0
sbsba(ics475_types
Instance
p2829
(dp2830
g10
(ics475_types
FeatureVector
p2831
(dp2832
g13
(dp2833
I8
F1.0
sI1
F-0.191683
sI2
F-0.733134
sI3
F-0.123512
sI4
F-0.077283
ssbsg15
g0
(g16
g2
Ntp2834
Rp2835
(dp2836
g20
I1
sbsba(ics475_types
Instance
p2837
(dp2838
g10
(ics475_types
FeatureVector
p2839
(dp2840
g13
(dp2841
I8
F1.0
sI1
F0.878676
sI2
F1.483203
sI3
F-0.578603
sI4
F-1.256167
ssbsg15
g0
(g16
g2
Ntp2842
Rp2843
(dp2844
g20
I1
sbsba(ics475_types
Instance
p2845
(dp2846
g10
(ics475_types
FeatureVector
p2847
(dp2848
g13
(dp2849
I1
F-0.627706
sI2
F0.1294
sI3
F-0.93929
sI4
F-1.182431
sI10
F1.0
ssbsg15
g0
(g16
g2
Ntp2850
Rp2851
(dp2852
g20
I1
sbsba(ics475_types
Instance
p2853
(dp2854
g10
(ics475_types
FeatureVector
p2855
(dp2856
g13
(dp2857
I8
F1.0
sI1
F-0.960446
sI2
F0.329317
sI3
F-0.637049
sI4
F0.371692
ssbsg15
g0
(g16
g2
Ntp2858
Rp2859
(dp2860
g20
I1
sbsba(ics475_types
Instance
p2861
(dp2862
g10
(ics475_types
FeatureVector
p2863
(dp2864
g13
(dp2865
I1
F0.017264
sI2
F-0.342541
sI3
F-0.857547
sI4
F0.910382
sI7
F1.0
ssbsg15
g0
(g16
g2
Ntp2866
Rp2867
(dp2868
g20
I0
sbsba(ics475_types
Instance
p2869
(dp2870
g10
(ics475_types
FeatureVector
p2871
(dp2872
g13
(dp2873
I1
F0.820886
sI2
F1.145406
sI3
F-0.871838
sI4
F-0.576557
sI5
F1.0
ssbsg15
g0
(g16
g2
Ntp2874
Rp2875
(dp2876
g20
I0
sbsba(ics475_types
Instance
p2877
(dp2878
g10
(ics475_types
FeatureVector
p2879
(dp2880
g13
(dp2881
I1
F-1.558356
sI2
F0.084547
sI3
F-0.110497
sI4
F-0.878545
sI9
F1.0
ssbsg15
g0
(g16
g2
Ntp2882
Rp2883
(dp2884
g20
I1
sbsba(ics475_types
Instance
p2885
(dp2886
g10
(ics475_types
FeatureVector
p2887
(dp2888
g13
(dp2889
I1
F0.065744
sI2
F-0.981365
sI3
F-0.255419
sI4
F1.640893
sI6
F1.0
ssbsg15
g0
(g16
g2
Ntp2890
Rp2891
(dp2892
g20
I0
sbsba(ics475_types
Instance
p2893
(dp2894
g10
(ics475_types
FeatureVector
p2895
(dp2896
g13
(dp2897
I8
F1.0
sI1
F0.522306
sI2
F0.190773
sI3
F1.47254
sI4
F-0.895284
ssbsg15
g0
(g16
g2
Ntp2898
Rp2899
(dp2900
g20
I1
sbsba(ics475_types
Instance
p2901
(dp2902
g10
(ics475_types
FeatureVector
p2903
(dp2904
g13
(dp2905
I8
F1.0
sI1
F0.906289
sI2
F0.816145
sI3
F-1.139232
sI4
F0.204852
ssbsg15
g0
(g16
g2
Ntp2906
Rp2907
(dp2908
g20
I1
sbsba(ics475_types
Instance
p2909
(dp2910
g10
(ics475_types
FeatureVector
p2911
(dp2912
g13
(dp2913
I1
F0.880259
sI2
F-1.773352
sI3
F1.47196
sI4
F0.789505
sI7
F1.0
ssbsg15
g0
(g16
g2
Ntp2914
Rp2915
(dp2916
g20
I0
sbsba(ics475_types
Instance
p2917
(dp2918
g10
(ics475_types
FeatureVector
p2919
(dp2920
g13
(dp2921
I1
F-0.484752
sI2
F-0.388623
sI3
F-0.549143
sI4
F-0.055156
sI6
F1.0
ssbsg15
g0
(g16
g2
Ntp2922
Rp2923
(dp2924
g20
I0
sbsba(ics475_types
Instance
p2925
(dp2926
g10
(ics475_types
FeatureVector
p2927
(dp2928
g13
(dp2929
I1
F1.504166
sI2
F2.278627
sI3
F-1.695054
sI4
F-0.012742
sI9
F1.0
ssbsg15
g0
(g16
g2
Ntp2930
Rp2931
(dp2932
g20
I1
sbsba(ics475_types
Instance
p2933
(dp2934
g10
(ics475_types
FeatureVector
p2935
(dp2936
g13
(dp2937
I1
F-0.034842
sI2
F-0.448173
sI3
F0.287238
sI4
F-0.218813
sI7
F1.0
ssbsg15
g0
(g16
g2
Ntp2938
Rp2939
(dp2940
g20
I0
sbsba(ics475_types
Instance
p2941
(dp2942
g10
(ics475_types
FeatureVector
p2943
(dp2944
g13
(dp2945
I1
F-0.219567
sI2
F0.815077
sI3
F0.213572
sI4
F2.024534
sI7
F1.0
ssbsg15
g0
(g16
g2
Ntp2946
Rp2947
(dp2948
g20
I0
sbsba(ics475_types
Instance
p2949
(dp2950
g10
(ics475_types
FeatureVector
p2951
(dp2952
g13
(dp2953
I1
F-0.878425
sI2
F0.377534
sI3
F-0.749959
sI4
F-1.652938
sI10
F1.0
ssbsg15
g0
(g16
g2
Ntp2954
Rp2955
(dp2956
g20
I1
sbsba(ics475_types
Instance
p2957
(dp2958
g10
(ics475_types
FeatureVector
p2959
(dp2960
g13
(dp2961
I1
F2.132142
sI2
F-0.610105
sI3
F-1.001128
sI4
F0.290647
sI6
F1.0
ssbsg15
g0
(g16
g2
Ntp2962
Rp2963
(dp2964
g20
I0
sbsba(ics475_types
Instance
p2965
(dp2966
g10
(ics475_types
FeatureVector
p2967
(dp2968
g13
(dp2969
I1
F0.680692
sI2
F-0.987865
sI3
F0.199628
sI4
F0.739245
sI6
F1.0
ssbsg15
g0
(g16
g2
Ntp2970
Rp2971
(dp2972
g20
I0
sbsba(ics475_types
Instance
p2973
(dp2974
g10
(ics475_types
FeatureVector
p2975
(dp2976
g13
(dp2977
I1
F1.079079
sI2
F-0.579179
sI3
F-0.38997
sI4
F0.3939
sI9
F1.0
ssbsg15
g0
(g16
g2
Ntp2978
Rp2979
(dp2980
g20
I1
sbsba(ics475_types
Instance
p2981
(dp2982
g10
(ics475_types
FeatureVector
p2983
(dp2984
g13
(dp2985
I1
F0.192512
sI2
F1.266174
sI3
F-1.225466
sI4
F-0.607721
sI5
F1.0
ssbsg15
g0
(g16
g2
Ntp2986
Rp2987
(dp2988
g20
I0
sbsba(ics475_types
Instance
p2989
(dp2990
g10
(ics475_types
FeatureVector
p2991
(dp2992
g13
(dp2993
I1
F0.533509
sI2
F0.077109
sI3
F0.024158
sI4
F-0.44771
sI9
F1.0
ssbsg15
g0
(g16
g2
Ntp2994
Rp2995
(dp2996
g20
I1
sbsba(ics475_types
Instance
p2997
(dp2998
g10
(ics475_types
FeatureVector
p2999
(dp3000
g13
(dp3001
I1
F2.070909
sI2
F-0.106487
sI3
F0.770719
sI4
F-0.098267
sI10
F1.0
ssbsg15
g0
(g16
g2
Ntp3002
Rp3003
(dp3004
g20
I1
sbsba(ics475_types
Instance
p3005
(dp3006
g10
(ics475_types
FeatureVector
p3007
(dp3008
g13
(dp3009
I1
F-0.986013
sI2
F0.119127
sI3
F-1.826202
sI4
F-0.174119
sI10
F1.0
ssbsg15
g0
(g16
g2
Ntp3010
Rp3011
(dp3012
g20
I1
sbsba(ics475_types
Instance
p3013
(dp3014
g10
(ics475_types
FeatureVector
p3015
(dp3016
g13
(dp3017
I1
F-1.02138
sI2
F-1.450017
sI3
F0.903423
sI4
F0.249985
sI5
F1.0
ssbsg15
g0
(g16
g2
Ntp3018
Rp3019
(dp3020
g20
I0
sbsba(ics475_types
Instance
p3021
(dp3022
g10
(ics475_types
FeatureVector
p3023
(dp3024
g13
(dp3025
I8
F1.0
sI1
F0.733709
sI2
F0.246484
sI3
F1.423937
sI4
F-1.49531
ssbsg15
g0
(g16
g2
Ntp3026
Rp3027
(dp3028
g20
I1
sbsba(ics475_types
Instance
p3029
(dp3030
g10
(ics475_types
FeatureVector
p3031
(dp3032
g13
(dp3033
I1
F0.194123
sI2
F-0.617043
sI3
F0.424678
sI4
F-0.899727
sI9
F1.0
ssbsg15
g0
(g16
g2
Ntp3034
Rp3035
(dp3036
g20
I1
sbsba(ics475_types
Instance
p3037
(dp3038
g10
(ics475_types
FeatureVector
p3039
(dp3040
g13
(dp3041
I1
F0.765295
sI2
F0.999273
sI3
F-0.884322
sI4
F1.897572
sI6
F1.0
ssbsg15
g0
(g16
g2
Ntp3042
Rp3043
(dp3044
g20
I0
sbsba(ics475_types
Instance
p3045
(dp3046
g10
(ics475_types
FeatureVector
p3047
(dp3048
g13
(dp3049
I1
F-1.753938
sI2
F-0.48761
sI3
F-1.338865
sI4
F0.009903
sI6
F1.0
ssbsg15
g0
(g16
g2
Ntp3050
Rp3051
(dp3052
g20
I0
sbsba(ics475_types
Instance
p3053
(dp3054
g10
(ics475_types
FeatureVector
p3055
(dp3056
g13
(dp3057
I1
F-0.927027
sI2
F-0.429571
sI3
F-1.030512
sI4
F-0.465842
sI5
F1.0
ssbsg15
g0
(g16
g2
Ntp3058
Rp3059
(dp3060
g20
I0
sbsba(ics475_types
Instance
p3061
(dp3062
g10
(ics475_types
FeatureVector
p3063
(dp3064
g13
(dp3065
I1
F0.264794
sI2
F0.410953
sI3
F0.755787
sI4
F1.484471
sI10
F1.0
ssbsg15
g0
(g16
g2
Ntp3066
Rp3067
(dp3068
g20
I1
sbsba(ics475_types
Instance
p3069
(dp3070
g10
(ics475_types
FeatureVector
p3071
(dp3072
g13
(dp3073
I8
F1.0
sI1
F1.087082
sI2
F0.528559
sI3
F0.746091
sI4
F-0.119861
ssbsg15
g0
(g16
g2
Ntp3074
Rp3075
(dp3076
g20
I1
sbsba(ics475_types
Instance
p3077
(dp3078
g10
(ics475_types
FeatureVector
p3079
(dp3080
g13
(dp3081
I1
F-0.693869
sI2
F-1.968398
sI3
F-1.002865
sI4
F0.367948
sI9
F1.0
ssbsg15
g0
(g16
g2
Ntp3082
Rp3083
(dp3084
g20
I1
sbsba(ics475_types
Instance
p3085
(dp3086
g10
(ics475_types
FeatureVector
p3087
(dp3088
g13
(dp3089
I1
F0.765421
sI2
F-0.367365
sI3
F-0.921931
sI4
F-0.154017
sI6
F1.0
ssbsg15
g0
(g16
g2
Ntp3090
Rp3091
(dp3092
g20
I0
sbsba(ics475_types
Instance
p3093
(dp3094
g10
(ics475_types
FeatureVector
p3095
(dp3096
g13
(dp3097
I8
F1.0
sI1
F-0.332249
sI2
F0.037055
sI3
F1.516901
sI4
F1.338493
ssbsg15
g0
(g16
g2
Ntp3098
Rp3099
(dp3100
g20
I1
sbsba(ics475_types
Instance
p3101
(dp3102
g10
(ics475_types
FeatureVector
p3103
(dp3104
g13
(dp3105
I1
F0.003362
sI2
F0.055151
sI3
F-1.483505
sI4
F-2.013951
sI5
F1.0
ssbsg15
g0
(g16
g2
Ntp3106
Rp3107
(dp3108
g20
I0
sbsba(ics475_types
Instance
p3109
(dp3110
g10
(ics475_types
FeatureVector
p3111
(dp3112
g13
(dp3113
I1
F0.155075
sI2
F-0.305898
sI3
F1.248155
sI4
F-2.342506
sI9
F1.0
ssbsg15
g0
(g16
g2
Ntp3114
Rp3115
(dp3116
g20
I1
sbsba(ics475_types
Instance
p3117
(dp3118
g10
(ics475_types
FeatureVector
p3119
(dp3120
g13
(dp3121
I1
F0.318344
sI2
F-2.20691
sI3
F0.257506
sI4
F-0.531458
sI10
F1.0
ssbsg15
g0
(g16
g2
Ntp3122
Rp3123
(dp3124
g20
I1
sbsba(ics475_types
Instance
p3125
(dp3126
g10
(ics475_types
FeatureVector
p3127
(dp3128
g13
(dp3129
I1
F1.213851
sI2
F1.138057
sI3
F0.056414
sI4
F-0.593393
sI6
F1.0
ssbsg15
g0
(g16
g2
Ntp3130
Rp3131
(dp3132
g20
I0
sbsba(ics475_types
Instance
p3133
(dp3134
g10
(ics475_types
FeatureVector
p3135
(dp3136
g13
(dp3137
I1
F-0.537429
sI2
F0.428537
sI3
F-0.088647
sI4
F1.114949
sI7
F1.0
ssbsg15
g0
(g16
g2
Ntp3138
Rp3139
(dp3140
g20
I0
sbsba(ics475_types
Instance
p3141
(dp3142
g10
(ics475_types
FeatureVector
p3143
(dp3144
g13
(dp3145
I1
F-0.196579
sI2
F0.29326
sI3
F1.455918
sI4
F0.210255
sI10
F1.0
ssbsg15
g0
(g16
g2
Ntp3146
Rp3147
(dp3148
g20
I1
sbsba(ics475_types
Instance
p3149
(dp3150
g10
(ics475_types
FeatureVector
p3151
(dp3152
g13
(dp3153
I1
F-1.724623
sI2
F0.989438
sI3
F-0.446314
sI4
F0.343044
sI10
F1.0
ssbsg15
g0
(g16
g2
Ntp3154
Rp3155
(dp3156
g20
I1
sbsba(ics475_types
Instance
p3157
(dp3158
g10
(ics475_types
FeatureVector
p3159
(dp3160
g13
(dp3161
I1
F-1.440239
sI2
F1.142725
sI3
F0.402216
sI4
F-0.346371
sI5
F1.0
ssbsg15
g0
(g16
g2
Ntp3162
Rp3163
(dp3164
g20
I0
sbsba(ics475_types
Instance
p3165
(dp3166
g10
(ics475_types
FeatureVector
p3167
(dp3168
g13
(dp3169
I1
F-1.382074
sI2
F0.731066
sI3
F-0.07305
sI4
F1.548785
sI6
F1.0
ssbsg15
g0
(g16
g2
Ntp3170
Rp3171
(dp3172
g20
I0
sbsba(ics475_types
Instance
p3173
(dp3174
g10
(ics475_types
FeatureVector
p3175
(dp3176
g13
(dp3177
I1
F-0.995527
sI2
F-2.275663
sI3
F0.347641
sI4
F0.238044
sI9
F1.0
ssbsg15
g0
(g16
g2
Ntp3178
Rp3179
(dp3180
g20
I1
sbsba(ics475_types
Instance
p3181
(dp3182
g10
(ics475_types
FeatureVector
p3183
(dp3184
g13
(dp3185
I8
F1.0
sI1
F-0.724795
sI2
F-1.760557
sI3
F0.051293
sI4
F-0.622957
ssbsg15
g0
(g16
g2
Ntp3186
Rp3187
(dp3188
g20
I1
sbsba(ics475_types
Instance
p3189
(dp3190
g10
(ics475_types
FeatureVector
p3191
(dp3192
g13
(dp3193
I1
F-0.546392
sI2
F1.649735
sI3
F-1.033517
sI4
F1.766917
sI7
F1.0
ssbsg15
g0
(g16
g2
Ntp3194
Rp3195
(dp3196
g20
I0
sbsba(ics475_types
Instance
p3197
(dp3198
g10
(ics475_types
FeatureVector
p3199
(dp3200
g13
(dp3201
I8
F1.0
sI1
F0.95144
sI2
F-0.866346
sI3
F-0.040257
sI4
F-0.536017
ssbsg15
g0
(g16
g2
Ntp3202
Rp3203
(dp3204
g20
I1
sbsba(ics475_types
Instance
p3205
(dp3206
g10
(ics475_types
FeatureVector
p3207
(dp3208
g13
(dp3209
I1
F0.321788
sI2
F-0.171011
sI3
F1.216774
sI4
F-1.223671
sI6
F1.0
ssbsg15
g0
(g16
g2
Ntp3210
Rp3211
(dp3212
g20
I0
sbsba(ics475_types
Instance
p3213
(dp3214
g10
(ics475_types
FeatureVector
p3215
(dp3216
g13
(dp3217
I1
F0.453121
sI2
F-0.362653
sI3
F-0.156279
sI4
F0.370852
sI6
F1.0
ssbsg15
g0
(g16
g2
Ntp3218
Rp3219
(dp3220
g20
I0
sbsba(ics475_types
Instance
p3221
(dp3222
g10
(ics475_types
FeatureVector
p3223
(dp3224
g13
(dp3225
I1
F1.477376
sI2
F-0.119676
sI3
F-1.872202
sI4
F0.366426
sI9
F1.0
ssbsg15
g0
(g16
g2
Ntp3226
Rp3227
(dp3228
g20
I1
sbsba(ics475_types
Instance
p3229
(dp3230
g10
(ics475_types
FeatureVector
p3231
(dp3232
g13
(dp3233
I1
F-0.187145
sI2
F0.495863
sI3
F-0.588607
sI4
F-1.138931
sI7
F1.0
ssbsg15
g0
(g16
g2
Ntp3234
Rp3235
(dp3236
g20
I0
sbsba(ics475_types
Instance
p3237
(dp3238
g10
(ics475_types
FeatureVector
p3239
(dp3240
g13
(dp3241
I1
F0.529927
sI2
F-0.526105
sI3
F0.972741
sI4
F1.513463
sI6
F1.0
ssbsg15
g0
(g16
g2
Ntp3242
Rp3243
(dp3244
g20
I0
sbsba(ics475_types
Instance
p3245
(dp3246
g10
(ics475_types
FeatureVector
p3247
(dp3248
g13
(dp3249
I8
F1.0
sI1
F1.533049
sI2
F-0.634775
sI3
F-0.170336
sI4
F2.323356
ssbsg15
g0
(g16
g2
Ntp3250
Rp3251
(dp3252
g20
I1
sbsba(ics475_types
Instance
p3253
(dp3254
g10
(ics475_types
FeatureVector
p3255
(dp3256
g13
(dp3257
I1
F-0.430846
sI2
F-0.352104
sI3
F-1.91618
sI4
F0.337142
sI9
F1.0
ssbsg15
g0
(g16
g2
Ntp3258
Rp3259
(dp3260
g20
I1
sbsba(ics475_types
Instance
p3261
(dp3262
g10
(ics475_types
FeatureVector
p3263
(dp3264
g13
(dp3265
I1
F-0.352455
sI2
F-1.629952
sI3
F1.432547
sI4
F-2.826927
sI6
F1.0
ssbsg15
g0
(g16
g2
Ntp3266
Rp3267
(dp3268
g20
I0
sbsba(ics475_types
Instance
p3269
(dp3270
g10
(ics475_types
FeatureVector
p3271
(dp3272
g13
(dp3273
I1
F0.824784
sI2
F1.845084
sI3
F-0.90256
sI4
F-1.02195
sI10
F1.0
ssbsg15
g0
(g16
g2
Ntp3274
Rp3275
(dp3276
g20
I1
sbsba(ics475_types
Instance
p3277
(dp3278
g10
(ics475_types
FeatureVector
p3279
(dp3280
g13
(dp3281
I1
F0.598505
sI2
F-0.723867
sI3
F-0.941769
sI4
F-0.076255
sI6
F1.0
ssbsg15
g0
(g16
g2
Ntp3282
Rp3283
(dp3284
g20
I0
sbsba(ics475_types
Instance
p3285
(dp3286
g10
(ics475_types
FeatureVector
p3287
(dp3288
g13
(dp3289
I8
F1.0
sI1
F-0.335172
sI2
F-0.601992
sI3
F-0.492603
sI4
F-0.182176
ssbsg15
g0
(g16
g2
Ntp3290
Rp3291
(dp3292
g20
I1
sbsba(ics475_types
Instance
p3293
(dp3294
g10
(ics475_types
FeatureVector
p3295
(dp3296
g13
(dp3297
I1
F1.316413
sI2
F0.587136
sI3
F0.518473
sI4
F-0.729863
sI10
F1.0
ssbsg15
g0
(g16
g2
Ntp3298
Rp3299
(dp3300
g20
I1
sbsba(ics475_types
Instance
p3301
(dp3302
g10
(ics475_types
FeatureVector
p3303
(dp3304
g13
(dp3305
I1
F1.291167
sI2
F-1.468019
sI3
F-0.187487
sI4
F0.317021
sI7
F1.0
ssbsg15
g0
(g16
g2
Ntp3306
Rp3307
(dp3308
g20
I0
sbsba(ics475_types
Instance
p3309
(dp3310
g10
(ics475_types
FeatureVector
p3311
(dp3312
g13
(dp3313
I8
F1.0
sI1
F-2.030807
sI2
F-2.808889
sI3
F0.455295
sI4
F-0.584949
ssbsg15
g0
(g16
g2
Ntp3314
Rp3315
(dp3316
g20
I1
sbsba(ics475_types
Instance
p3317
(dp3318
g10
(ics475_types
FeatureVector
p3319
(dp3320
g13
(dp3321
I1
F0.030237
sI2
F0.810654
sI3
F-0.34965
sI4
F1.180998
sI10
F1.0
ssbsg15
g0
(g16
g2
Ntp3322
Rp3323
(dp3324
g20
I1
sbsba(ics475_types
Instance
p3325
(dp3326
g10
(ics475_types
FeatureVector
p3327
(dp3328
g13
(dp3329
I1
F-0.476325
sI2
F-0.231766
sI3
F-1.740916
sI4
F0.271752
sI5
F1.0
ssbsg15
g0
(g16
g2
Ntp3330
Rp3331
(dp3332
g20
I0
sbsba(ics475_types
Instance
p3333
(dp3334
g10
(ics475_types
FeatureVector
p3335
(dp3336
g13
(dp3337
I1
F-0.260643
sI2
F-0.249054
sI3
F-1.260991
sI4
F0.141719
sI10
F1.0
ssbsg15
g0
(g16
g2
Ntp3338
Rp3339
(dp3340
g20
I1
sbsba(ics475_types
Instance
p3341
(dp3342
g10
(ics475_types
FeatureVector
p3343
(dp3344
g13
(dp3345
I1
F-0.798517
sI2
F2.629505
sI3
F-0.832811
sI4
F0.24359
sI7
F1.0
ssbsg15
g0
(g16
g2
Ntp3346
Rp3347
(dp3348
g20
I0
sbsba(ics475_types
Instance
p3349
(dp3350
g10
(ics475_types
FeatureVector
p3351
(dp3352
g13
(dp3353
I1
F0.721898
sI2
F-0.354557
sI3
F-0.474115
sI4
F-1.041505
sI6
F1.0
ssbsg15
g0
(g16
g2
Ntp3354
Rp3355
(dp3356
g20
I0
sbsba(ics475_types
Instance
p3357
(dp3358
g10
(ics475_types
FeatureVector
p3359
(dp3360
g13
(dp3361
I1
F-1.277524
sI2
F0.169642
sI3
F0.86955
sI4
F-0.215683
sI7
F1.0
ssbsg15
g0
(g16
g2
Ntp3362
Rp3363
(dp3364
g20
I0
sbsba(ics475_types
Instance
p3365
(dp3366
g10
(ics475_types
FeatureVector
p3367
(dp3368
g13
(dp3369
I1
F-0.820191
sI2
F-0.227136
sI3
F-0.006726
sI4
F0.617567
sI5
F1.0
ssbsg15
g0
(g16
g2
Ntp3370
Rp3371
(dp3372
g20
I0
sbsba(ics475_types
Instance
p3373
(dp3374
g10
(ics475_types
FeatureVector
p3375
(dp3376
g13
(dp3377
I1
F-2.495091
sI2
F-0.328495
sI3
F0.104784
sI4
F0.879861
sI9
F1.0
ssbsg15
g0
(g16
g2
Ntp3378
Rp3379
(dp3380
g20
I1
sbsba(ics475_types
Instance
p3381
(dp3382
g10
(ics475_types
FeatureVector
p3383
(dp3384
g13
(dp3385
I1
F1.261743
sI2
F1.123683
sI3
F-0.358081
sI4
F1.582058
sI7
F1.0
ssbsg15
g0
(g16
g2
Ntp3386
Rp3387
(dp3388
g20
I0
sbsba(ics475_types
Instance
p3389
(dp3390
g10
(ics475_types
FeatureVector
p3391
(dp3392
g13
(dp3393
I1
F0.157134
sI2
F-0.930341
sI3
F-0.312596
sI4
F-1.436427
sI9
F1.0
ssbsg15
g0
(g16
g2
Ntp3394
Rp3395
(dp3396
g20
I1
sbsba(ics475_types
Instance
p3397
(dp3398
g10
(ics475_types
FeatureVector
p3399
(dp3400
g13
(dp3401
I8
F1.0
sI1
F-0.401443
sI2
F-0.363241
sI3
F-1.476647
sI4
F0.529453
ssbsg15
g0
(g16
g2
Ntp3402
Rp3403
(dp3404
g20
I1
sbsba(ics475_types
Instance
p3405
(dp3406
g10
(ics475_types
FeatureVector
p3407
(dp3408
g13
(dp3409
I1
F0.689219
sI2
F-0.502188
sI3
F-0.218667
sI4
F0.701662
sI5
F1.0
ssbsg15
g0
(g16
g2
Ntp3410
Rp3411
(dp3412
g20
I0
sbsba(ics475_types
Instance
p3413
(dp3414
g10
(ics475_types
FeatureVector
p3415
(dp3416
g13
(dp3417
I8
F1.0
sI1
F0.570656
sI2
F0.608574
sI3
F0.917136
sI4
F-1.179777
ssbsg15
g0
(g16
g2
Ntp3418
Rp3419
(dp3420
g20
I1
sbsba(ics475_types
Instance
p3421
(dp3422
g10
(ics475_types
FeatureVector
p3423
(dp3424
g13
(dp3425
I1
F-0.932103
sI2
F0.670939
sI3
F-1.633615
sI4
F0.465885
sI5
F1.0
ssbsg15
g0
(g16
g2
Ntp3426
Rp3427
(dp3428
g20
I0
sbsba(ics475_types
Instance
p3429
(dp3430
g10
(ics475_types
FeatureVector
p3431
(dp3432
g13
(dp3433
I1
F-1.032011
sI2
F1.813432
sI3
F-0.194808
sI4
F0.576105
sI10
F1.0
ssbsg15
g0
(g16
g2
Ntp3434
Rp3435
(dp3436
g20
I1
sbsba(ics475_types
Instance
p3437
(dp3438
g10
(ics475_types
FeatureVector
p3439
(dp3440
g13
(dp3441
I8
F1.0
sI1
F0.037075
sI2
F0.473455
sI3
F-2.537648
sI4
F-0.470961
ssbsg15
g0
(g16
g2
Ntp3442
Rp3443
(dp3444
g20
I1
sbsba(ics475_types
Instance
p3445
(dp3446
g10
(ics475_types
FeatureVector
p3447
(dp3448
g13
(dp3449
I1
F0.077296
sI2
F-0.625646
sI3
F0.542333
sI4
F1.040812
sI7
F1.0
ssbsg15
g0
(g16
g2
Ntp3450
Rp3451
(dp3452
g20
I0
sbsba(ics475_types
Instance
p3453
(dp3454
g10
(ics475_types
FeatureVector
p3455
(dp3456
g13
(dp3457
I1
F-0.90519
sI2
F0.719016
sI3
F1.546407
sI4
F-1.474013
sI10
F1.0
ssbsg15
g0
(g16
g2
Ntp3458
Rp3459
(dp3460
g20
I1
sbsba(ics475_types
Instance
p3461
(dp3462
g10
(ics475_types
FeatureVector
p3463
(dp3464
g13
(dp3465
I1
F-0.624599
sI2
F1.416602
sI3
F-0.451699
sI4
F-0.838848
sI10
F1.0
ssbsg15
g0
(g16
g2
Ntp3466
Rp3467
(dp3468
g20
I1
sbsba(ics475_types
Instance
p3469
(dp3470
g10
(ics475_types
FeatureVector
p3471
(dp3472
g13
(dp3473
I1
F-0.416253
sI2
F-0.711401
sI3
F0.485303
sI4
F1.327792
sI10
F1.0
ssbsg15
g0
(g16
g2
Ntp3474
Rp3475
(dp3476
g20
I1
sbsba(ics475_types
Instance
p3477
(dp3478
g10
(ics475_types
FeatureVector
p3479
(dp3480
g13
(dp3481
I1
F-0.697479
sI2
F0.228873
sI3
F-0.4384
sI4
F0.207789
sI10
F1.0
ssbsg15
g0
(g16
g2
Ntp3482
Rp3483
(dp3484
g20
I1
sbsba(ics475_types
Instance
p3485
(dp3486
g10
(ics475_types
FeatureVector
p3487
(dp3488
g13
(dp3489
I1
F0.674312
sI2
F0.033632
sI3
F0.47351
sI4
F0.509602
sI5
F1.0
ssbsg15
g0
(g16
g2
Ntp3490
Rp3491
(dp3492
g20
I0
sbsba(ics475_types
Instance
p3493
(dp3494
g10
(ics475_types
FeatureVector
p3495
(dp3496
g13
(dp3497
I1
F-1.470227
sI2
F-0.986302
sI3
F-0.772089
sI4
F-0.982857
sI10
F1.0
ssbsg15
g0
(g16
g2
Ntp3498
Rp3499
(dp3500
g20
I1
sbsba(ics475_types
Instance
p3501
(dp3502
g10
(ics475_types
FeatureVector
p3503
(dp3504
g13
(dp3505
I8
F1.0
sI1
F3.044276
sI2
F0.511767
sI3
F1.183559
sI4
F-2.260491
ssbsg15
g0
(g16
g2
Ntp3506
Rp3507
(dp3508
g20
I1
sbsba(ics475_types
Instance
p3509
(dp3510
g10
(ics475_types
FeatureVector
p3511
(dp3512
g13
(dp3513
I8
F1.0
sI1
F0.83112
sI2
F1.441728
sI3
F1.802167
sI4
F-1.355957
ssbsg15
g0
(g16
g2
Ntp3514
Rp3515
(dp3516
g20
I1
sbsba(ics475_types
Instance
p3517
(dp3518
g10
(ics475_types
FeatureVector
p3519
(dp3520
g13
(dp3521
I8
F1.0
sI1
F1.759669
sI2
F-0.184991
sI3
F0.887895
sI4
F0.831912
ssbsg15
g0
(g16
g2
Ntp3522
Rp3523
(dp3524
g20
I1
sbsba(ics475_types
Instance
p3525
(dp3526
g10
(ics475_types
FeatureVector
p3527
(dp3528
g13
(dp3529
I1
F1.469409
sI2
F0.447
sI3
F-0.444311
sI4
F-0.293777
sI5
F1.0
ssbsg15
g0
(g16
g2
Ntp3530
Rp3531
(dp3532
g20
I0
sbsba(ics475_types
Instance
p3533
(dp3534
g10
(ics475_types
FeatureVector
p3535
(dp3536
g13
(dp3537
I8
F1.0
sI1
F-1.196535
sI2
F1.054668
sI3
F-0.607109
sI4
F-0.206931
ssbsg15
g0
(g16
g2
Ntp3538
Rp3539
(dp3540
g20
I1
sbsba(ics475_types
Instance
p3541
(dp3542
g10
(ics475_types
FeatureVector
p3543
(dp3544
g13
(dp3545
I8
F1.0
sI1
F-0.645793
sI2
F1.05234
sI3
F1.19526
sI4
F0.6885
ssbsg15
g0
(g16
g2
Ntp3546
Rp3547
(dp3548
g20
I1
sbsba(ics475_types
Instance
p3549
(dp3550
g10
(ics475_types
FeatureVector
p3551
(dp3552
g13
(dp3553
I1
F-0.146638
sI2
F0.807735
sI3
F0.505567
sI4
F1.166802
sI10
F1.0
ssbsg15
g0
(g16
g2
Ntp3554
Rp3555
(dp3556
g20
I1
sbsba(ics475_types
Instance
p3557
(dp3558
g10
(ics475_types
FeatureVector
p3559
(dp3560
g13
(dp3561
I1
F-2.18478
sI2
F0.122358
sI3
F0.674791
sI4
F-0.947838
sI10
F1.0
ssbsg15
g0
(g16
g2
Ntp3562
Rp3563
(dp3564
g20
I1
sbsba(ics475_types
Instance
p3565
(dp3566
g10
(ics475_types
FeatureVector
p3567
(dp3568
g13
(dp3569
I8
F1.0
sI1
F0.506291
sI2
F-1.367939
sI3
F-0.341934
sI4
F0.254422
ssbsg15
g0
(g16
g2
Ntp3570
Rp3571
(dp3572
g20
I1
sbsba(ics475_types
Instance
p3573
(dp3574
g10
(ics475_types
FeatureVector
p3575
(dp3576
g13
(dp3577
I1
F1.160474
sI2
F-0.157613
sI3
F-0.624172
sI4
F-1.207797
sI7
F1.0
ssbsg15
g0
(g16
g2
Ntp3578
Rp3579
(dp3580
g20
I0
sbsba(ics475_types
Instance
p3581
(dp3582
g10
(ics475_types
FeatureVector
p3583
(dp3584
g13
(dp3585
I1
F-0.561216
sI2
F0.322245
sI3
F-0.041176
sI4
F0.705862
sI9
F1.0
ssbsg15
g0
(g16
g2
Ntp3586
Rp3587
(dp3588
g20
I1
sbsba(ics475_types
Instance
p3589
(dp3590
g10
(ics475_types
FeatureVector
p3591
(dp3592
g13
(dp3593
I8
F1.0
sI1
F-0.204097
sI2
F1.968778
sI3
F0.54667
sI4
F0.491016
ssbsg15
g0
(g16
g2
Ntp3594
Rp3595
(dp3596
g20
I1
sbsba(ics475_types
Instance
p3597
(dp3598
g10
(ics475_types
FeatureVector
p3599
(dp3600
g13
(dp3601
I1
F-0.750471
sI2
F-0.05006
sI3
F-1.114144
sI4
F0.363812
sI6
F1.0
ssbsg15
g0
(g16
g2
Ntp3602
Rp3603
(dp3604
g20
I0
sbsba(ics475_types
Instance
p3605
(dp3606
g10
(ics475_types
FeatureVector
p3607
(dp3608
g13
(dp3609
I1
F0.48453
sI2
F0.172684
sI3
F-1.925055
sI4
F-0.346116
sI9
F1.0
ssbsg15
g0
(g16
g2
Ntp3610
Rp3611
(dp3612
g20
I1
sbsba(ics475_types
Instance
p3613
(dp3614
g10
(ics475_types
FeatureVector
p3615
(dp3616
g13
(dp3617
I1
F-0.136659
sI2
F1.448316
sI3
F0.096888
sI4
F-0.499967
sI10
F1.0
ssbsg15
g0
(g16
g2
Ntp3618
Rp3619
(dp3620
g20
I1
sbsba(ics475_types
Instance
p3621
(dp3622
g10
(ics475_types
FeatureVector
p3623
(dp3624
g13
(dp3625
I1
F-0.133603
sI2
F-0.315971
sI3
F-1.39178
sI4
F0.599441
sI7
F1.0
ssbsg15
g0
(g16
g2
Ntp3626
Rp3627
(dp3628
g20
I0
sbsba(ics475_types
Instance
p3629
(dp3630
g10
(ics475_types
FeatureVector
p3631
(dp3632
g13
(dp3633
I1
F0.280382
sI2
F0.014229
sI3
F1.35431
sI4
F-0.333709
sI10
F1.0
ssbsg15
g0
(g16
g2
Ntp3634
Rp3635
(dp3636
g20
I1
sbsba(ics475_types
Instance
p3637
(dp3638
g10
(ics475_types
FeatureVector
p3639
(dp3640
g13
(dp3641
I1
F1.872674
sI2
F0.551521
sI3
F0.109945
sI4
F-1.012133
sI5
F1.0
ssbsg15
g0
(g16
g2
Ntp3642
Rp3643
(dp3644
g20
I0
sbsba(ics475_types
Instance
p3645
(dp3646
g10
(ics475_types
FeatureVector
p3647
(dp3648
g13
(dp3649
I1
F0.175132
sI2
F-1.621432
sI3
F0.523199
sI4
F0.302614
sI7
F1.0
ssbsg15
g0
(g16
g2
Ntp3650
Rp3651
(dp3652
g20
I0
sbsba(ics475_types
Instance
p3653
(dp3654
g10
(ics475_types
FeatureVector
p3655
(dp3656
g13
(dp3657
I1
F1.422815
sI2
F1.223
sI3
F-0.1207
sI4
F-0.572082
sI6
F1.0
ssbsg15
g0
(g16
g2
Ntp3658
Rp3659
(dp3660
g20
I0
sbsba(ics475_types
Instance
p3661
(dp3662
g10
(ics475_types
FeatureVector
p3663
(dp3664
g13
(dp3665
I1
F0.745629
sI2
F0.175064
sI3
F-0.348293
sI4
F-1.131462
sI9
F1.0
ssbsg15
g0
(g16
g2
Ntp3666
Rp3667
(dp3668
g20
I1
sbsba(ics475_types
Instance
p3669
(dp3670
g10
(ics475_types
FeatureVector
p3671
(dp3672
g13
(dp3673
I8
F1.0
sI1
F1.292185
sI2
F0.014703
sI3
F-1.62473
sI4
F-0.372772
ssbsg15
g0
(g16
g2
Ntp3674
Rp3675
(dp3676
g20
I1
sbsba(ics475_types
Instance
p3677
(dp3678
g10
(ics475_types
FeatureVector
p3679
(dp3680
g13
(dp3681
I1
F1.156793
sI2
F0.924601
sI3
F-1.276529
sI4
F-1.453715
sI7
F1.0
ssbsg15
g0
(g16
g2
Ntp3682
Rp3683
(dp3684
g20
I0
sbsba(ics475_types
Instance
p3685
(dp3686
g10
(ics475_types
FeatureVector
p3687
(dp3688
g13
(dp3689
I8
F1.0
sI1
F-1.826843
sI2
F1.180916
sI3
F-0.414915
sI4
F-0.758625
ssbsg15
g0
(g16
g2
Ntp3690
Rp3691
(dp3692
g20
I1
sbsba(ics475_types
Instance
p3693
(dp3694
g10
(ics475_types
FeatureVector
p3695
(dp3696
g13
(dp3697
I1
F0.515878
sI2
F1.141695
sI3
F1.564983
sI4
F-0.219065
sI6
F1.0
ssbsg15
g0
(g16
g2
Ntp3698
Rp3699
(dp3700
g20
I0
sbsba(ics475_types
Instance
p3701
(dp3702
g10
(ics475_types
FeatureVector
p3703
(dp3704
g13
(dp3705
I1
F-1.345174
sI2
F0.189359
sI3
F-1.652243
sI4
F0.601843
sI7
F1.0
ssbsg15
g0
(g16
g2
Ntp3706
Rp3707
(dp3708
g20
I0
sbsba(ics475_types
Instance
p3709
(dp3710
g10
(ics475_types
FeatureVector
p3711
(dp3712
g13
(dp3713
I1
F-0.016619
sI2
F-0.002324
sI3
F0.445531
sI4
F0.727621
sI5
F1.0
ssbsg15
g0
(g16
g2
Ntp3714
Rp3715
(dp3716
g20
I0
sbsba(ics475_types
Instance
p3717
(dp3718
g10
(ics475_types
FeatureVector
p3719
(dp3720
g13
(dp3721
I1
F0.182647
sI2
F0.335037
sI3
F-0.495667
sI4
F-2.116732
sI7
F1.0
ssbsg15
g0
(g16
g2
Ntp3722
Rp3723
(dp3724
g20
I0
sbsba(ics475_types
Instance
p3725
(dp3726
g10
(ics475_types
FeatureVector
p3727
(dp3728
g13
(dp3729
I8
F1.0
sI1
F0.6784
sI2
F-0.310142
sI3
F0.492494
sI4
F-2.258073
ssbsg15
g0
(g16
g2
Ntp3730
Rp3731
(dp3732
g20
I1
sbsba(ics475_types
Instance
p3733
(dp3734
g10
(ics475_types
FeatureVector
p3735
(dp3736
g13
(dp3737
I1
F0.559876
sI2
F0.712129
sI3
F-0.356453
sI4
F0.378554
sI10
F1.0
ssbsg15
g0
(g16
g2
Ntp3738
Rp3739
(dp3740
g20
I1
sbsba(ics475_types
Instance
p3741
(dp3742
g10
(ics475_types
FeatureVector
p3743
(dp3744
g13
(dp3745
I1
F-0.247836
sI2
F1.493687
sI3
F1.099266
sI4
F-0.341062
sI10
F1.0
ssbsg15
g0
(g16
g2
Ntp3746
Rp3747
(dp3748
g20
I1
sbsba(ics475_types
Instance
p3749
(dp3750
g10
(ics475_types
FeatureVector
p3751
(dp3752
g13
(dp3753
I8
F1.0
sI1
F1.144877
sI2
F-0.530725
sI3
F-0.030801
sI4
F0.964441
ssbsg15
g0
(g16
g2
Ntp3754
Rp3755
(dp3756
g20
I1
sbsba(ics475_types
Instance
p3757
(dp3758
g10
(ics475_types
FeatureVector
p3759
(dp3760
g13
(dp3761
I1
F-0.667256
sI2
F0.895261
sI3
F-0.429049
sI4
F-1.163618
sI5
F1.0
ssbsg15
g0
(g16
g2
Ntp3762
Rp3763
(dp3764
g20
I0
sbsba(ics475_types
Instance
p3765
(dp3766
g10
(ics475_types
FeatureVector
p3767
(dp3768
g13
(dp3769
I1
F-0.211317
sI2
F0.580816
sI3
F-0.6155
sI4
F0.637799
sI7
F1.0
ssbsg15
g0
(g16
g2
Ntp3770
Rp3771
(dp3772
g20
I0
sbsba(ics475_types
Instance
p3773
(dp3774
g10
(ics475_types
FeatureVector
p3775
(dp3776
g13
(dp3777
I1
F0.93046
sI2
F-0.84691
sI3
F0.102851
sI4
F-0.416832
sI10
F1.0
ssbsg15
g0
(g16
g2
Ntp3778
Rp3779
(dp3780
g20
I1
sbsba(ics475_types
Instance
p3781
(dp3782
g10
(ics475_types
FeatureVector
p3783
(dp3784
g13
(dp3785
I1
F-0.773786
sI2
F-0.202766
sI3
F0.511035
sI4
F-0.129915
sI9
F1.0
ssbsg15
g0
(g16
g2
Ntp3786
Rp3787
(dp3788
g20
I1
sbsba(ics475_types
Instance
p3789
(dp3790
g10
(ics475_types
FeatureVector
p3791
(dp3792
g13
(dp3793
I1
F0.866625
sI2
F-1.235202
sI3
F1.299064
sI4
F-0.122247
sI10
F1.0
ssbsg15
g0
(g16
g2
Ntp3794
Rp3795
(dp3796
g20
I1
sbsba(ics475_types
Instance
p3797
(dp3798
g10
(ics475_types
FeatureVector
p3799
(dp3800
g13
(dp3801
I1
F0.965056
sI2
F-1.029296
sI3
F-0.439718
sI4
F-1.845368
sI6
F1.0
ssbsg15
g0
(g16
g2
Ntp3802
Rp3803
(dp3804
g20
I0
sbsba(ics475_types
Instance
p3805
(dp3806
g10
(ics475_types
FeatureVector
p3807
(dp3808
g13
(dp3809
I8
F1.0
sI1
F0.59298
sI2
F-0.332236
sI3
F0.963608
sI4
F1.356157
ssbsg15
g0
(g16
g2
Ntp3810
Rp3811
(dp3812
g20
I1
sbsba(ics475_types
Instance
p3813
(dp3814
g10
(ics475_types
FeatureVector
p3815
(dp3816
g13
(dp3817
I1
F0.630396
sI2
F-0.958321
sI3
F-1.72761
sI4
F-1.074438
sI5
F1.0
ssbsg15
g0
(g16
g2
Ntp3818
Rp3819
(dp3820
g20
I0
sbsba(ics475_types
Instance
p3821
(dp3822
g10
(ics475_types
FeatureVector
p3823
(dp3824
g13
(dp3825
I1
F-1.297432
sI2
F-0.915654
sI3
F-0.329903
sI4
F-0.019259
sI7
F1.0
ssbsg15
g0
(g16
g2
Ntp3826
Rp3827
(dp3828
g20
I0
sbsba(ics475_types
Instance
p3829
(dp3830
g10
(ics475_types
FeatureVector
p3831
(dp3832
g13
(dp3833
I1
F0.880145
sI2
F-0.559379
sI3
F-0.256002
sI4
F-0.018627
sI7
F1.0
ssbsg15
g0
(g16
g2
Ntp3834
Rp3835
(dp3836
g20
I0
sbsba(ics475_types
Instance
p3837
(dp3838
g10
(ics475_types
FeatureVector
p3839
(dp3840
g13
(dp3841
I1
F1.183749
sI2
F-0.001675
sI3
F-0.352259
sI4
F0.883999
sI6
F1.0
ssbsg15
g0
(g16
g2
Ntp3842
Rp3843
(dp3844
g20
I0
sbsba(ics475_types
Instance
p3845
(dp3846
g10
(ics475_types
FeatureVector
p3847
(dp3848
g13
(dp3849
I1
F-0.812838
sI2
F0.300547
sI3
F-0.153373
sI4
F0.090468
sI6
F1.0
ssbsg15
g0
(g16
g2
Ntp3850
Rp3851
(dp3852
g20
I0
sbsba(ics475_types
Instance
p3853
(dp3854
g10
(ics475_types
FeatureVector
p3855
(dp3856
g13
(dp3857
I8
F1.0
sI1
F-1.523979
sI2
F0.316969
sI3
F-0.161789
sI4
F2.418849
ssbsg15
g0
(g16
g2
Ntp3858
Rp3859
(dp3860
g20
I1
sbsba(ics475_types
Instance
p3861
(dp3862
g10
(ics475_types
FeatureVector
p3863
(dp3864
g13
(dp3865
I1
F-0.758641
sI2
F2.598594
sI3
F0.000962
sI4
F-1.778896
sI5
F1.0
ssbsg15
g0
(g16
g2
Ntp3866
Rp3867
(dp3868
g20
I0
sbsba(ics475_types
Instance
p3869
(dp3870
g10
(ics475_types
FeatureVector
p3871
(dp3872
g13
(dp3873
I1
F-3.379218
sI2
F0.345024
sI3
F0.873421
sI4
F0.901132
sI7
F1.0
ssbsg15
g0
(g16
g2
Ntp3874
Rp3875
(dp3876
g20
I0
sbsba(ics475_types
Instance
p3877
(dp3878
g10
(ics475_types
FeatureVector
p3879
(dp3880
g13
(dp3881
I1
F0.851915
sI2
F0.217317
sI3
F1.175169
sI4
F0.250476
sI6
F1.0
ssbsg15
g0
(g16
g2
Ntp3882
Rp3883
(dp3884
g20
I0
sbsba(ics475_types
Instance
p3885
(dp3886
g10
(ics475_types
FeatureVector
p3887
(dp3888
g13
(dp3889
I8
F1.0
sI1
F-0.696318
sI2
F1.339959
sI3
F-1.640998
sI4
F0.798252
ssbsg15
g0
(g16
g2
Ntp3890
Rp3891
(dp3892
g20
I1
sbsba(ics475_types
Instance
p3893
(dp3894
g10
(ics475_types
FeatureVector
p3895
(dp3896
g13
(dp3897
I1
F0.630398
sI2
F0.972071
sI3
F-1.511
sI4
F0.649562
sI7
F1.0
ssbsg15
g0
(g16
g2
Ntp3898
Rp3899
(dp3900
g20
I0
sbsba(ics475_types
Instance
p3901
(dp3902
g10
(ics475_types
FeatureVector
p3903
(dp3904
g13
(dp3905
I1
F0.436031
sI2
F-1.162134
sI3
F0.304421
sI4
F-0.465172
sI7
F1.0
ssbsg15
g0
(g16
g2
Ntp3906
Rp3907
(dp3908
g20
I0
sbsba(ics475_types
Instance
p3909
(dp3910
g10
(ics475_types
FeatureVector
p3911
(dp3912
g13
(dp3913
I1
F0.006885
sI2
F0.204384
sI3
F0.654226
sI4
F-1.542994
sI6
F1.0
ssbsg15
g0
(g16
g2
Ntp3914
Rp3915
(dp3916
g20
I0
sbsba(ics475_types
Instance
p3917
(dp3918
g10
(ics475_types
FeatureVector
p3919
(dp3920
g13
(dp3921
I1
F-0.07197
sI2
F0.660373
sI3
F-0.11762
sI4
F-0.795847
sI7
F1.0
ssbsg15
g0
(g16
g2
Ntp3922
Rp3923
(dp3924
g20
I0
sbsba(ics475_types
Instance
p3925
(dp3926
g10
(ics475_types
FeatureVector
p3927
(dp3928
g13
(dp3929
I1
F1.018973
sI2
F-0.631777
sI3
F-1.47167
sI4
F-1.248452
sI5
F1.0
ssbsg15
g0
(g16
g2
Ntp3930
Rp3931
(dp3932
g20
I0
sbsba(ics475_types
Instance
p3933
(dp3934
g10
(ics475_types
FeatureVector
p3935
(dp3936
g13
(dp3937
I1
F-1.38746
sI2
F0.992306
sI3
F0.582832
sI4
F-0.535513
sI6
F1.0
ssbsg15
g0
(g16
g2
Ntp3938
Rp3939
(dp3940
g20
I0
sbsba(ics475_types
Instance
p3941
(dp3942
g10
(ics475_types
FeatureVector
p3943
(dp3944
g13
(dp3945
I1
F-0.122415
sI2
F0.470133
sI3
F0.351043
sI4
F0.634133
sI10
F1.0
ssbsg15
g0
(g16
g2
Ntp3946
Rp3947
(dp3948
g20
I1
sbsba(ics475_types
Instance
p3949
(dp3950
g10
(ics475_types
FeatureVector
p3951
(dp3952
g13
(dp3953
I1
F-0.597443
sI2
F-0.547016
sI3
F-0.756252
sI4
F-1.292805
sI7
F1.0
ssbsg15
g0
(g16
g2
Ntp3954
Rp3955
(dp3956
g20
I0
sbsba(ics475_types
Instance
p3957
(dp3958
g10
(ics475_types
FeatureVector
p3959
(dp3960
g13
(dp3961
I1
F1.671414
sI2
F0.139448
sI3
F-1.102669
sI4
F0.721713
sI7
F1.0
ssbsg15
g0
(g16
g2
Ntp3962
Rp3963
(dp3964
g20
I0
sbsba(ics475_types
Instance
p3965
(dp3966
g10
(ics475_types
FeatureVector
p3967
(dp3968
g13
(dp3969
I1
F-0.459809
sI2
F0.062875
sI3
F-0.20915
sI4
F-0.405693
sI6
F1.0
ssbsg15
g0
(g16
g2
Ntp3970
Rp3971
(dp3972
g20
I0
sbsba(ics475_types
Instance
p3973
(dp3974
g10
(ics475_types
FeatureVector
p3975
(dp3976
g13
(dp3977
I1
F1.700093
sI2
F1.958818
sI3
F-0.760586
sI4
F-0.489741
sI10
F1.0
ssbsg15
g0
(g16
g2
Ntp3978
Rp3979
(dp3980
g20
I1
sbsba(ics475_types
Instance
p3981
(dp3982
g10
(ics475_types
FeatureVector
p3983
(dp3984
g13
(dp3985
I8
F1.0
sI1
F-0.190437
sI2
F-0.088062
sI3
F1.751323
sI4
F0.052951
ssbsg15
g0
(g16
g2
Ntp3986
Rp3987
(dp3988
g20
I1
sbsba(ics475_types
Instance
p3989
(dp3990
g10
(ics475_types
FeatureVector
p3991
(dp3992
g13
(dp3993
I1
F-1.688863
sI2
F-0.982664
sI3
F1.003639
sI4
F-0.911681
sI9
F1.0
ssbsg15
g0
(g16
g2
Ntp3994
Rp3995
(dp3996
g20
I1
sbsba(ics475_types
Instance
p3997
(dp3998
g10
(ics475_types
FeatureVector
p3999
(dp4000
g13
(dp4001
I1
F-0.878318
sI2
F1.190916
sI3
F-1.004307
sI4
F-0.200669
sI6
F1.0
ssbsg15
g0
(g16
g2
Ntp4002
Rp4003
(dp4004
g20
I0
sbsba(ics475_types
Instance
p4005
(dp4006
g10
(ics475_types
FeatureVector
p4007
(dp4008
g13
(dp4009
I1
F-0.53336
sI2
F-0.498118
sI3
F-0.267103
sI4
F0.606281
sI5
F1.0
ssbsg15
g0
(g16
g2
Ntp4010
Rp4011
(dp4012
g20
I0
sbsba(ics475_types
Instance
p4013
(dp4014
g10
(ics475_types
FeatureVector
p4015
(dp4016
g13
(dp4017
I1
F-0.153555
sI2
F-0.6149
sI3
F-0.905528
sI4
F0.498006
sI6
F1.0
ssbsg15
g0
(g16
g2
Ntp4018
Rp4019
(dp4020
g20
I0
sbsba(ics475_types
Instance
p4021
(dp4022
g10
(ics475_types
FeatureVector
p4023
(dp4024
g13
(dp4025
I1
F0.212065
sI2
F-0.040602
sI3
F-1.472689
sI4
F-0.744878
sI9
F1.0
ssbsg15
g0
(g16
g2
Ntp4026
Rp4027
(dp4028
g20
I1
sbsba(ics475_types
Instance
p4029
(dp4030
g10
(ics475_types
FeatureVector
p4031
(dp4032
g13
(dp4033
I1
F-0.890869
sI2
F-0.326471
sI3
F-0.152998
sI4
F0.26225
sI5
F1.0
ssbsg15
g0
(g16
g2
Ntp4034
Rp4035
(dp4036
g20
I0
sbsba(ics475_types
Instance
p4037
(dp4038
g10
(ics475_types
FeatureVector
p4039
(dp4040
g13
(dp4041
I1
F-0.88898
sI2
F0.171554
sI3
F-1.235257
sI4
F-1.163226
sI10
F1.0
ssbsg15
g0
(g16
g2
Ntp4042
Rp4043
(dp4044
g20
I1
sbsba(ics475_types
Instance
p4045
(dp4046
g10
(ics475_types
FeatureVector
p4047
(dp4048
g13
(dp4049
I1
F0.374839
sI2
F0.865331
sI3
F-0.427238
sI4
F0.343676
sI5
F1.0
ssbsg15
g0
(g16
g2
Ntp4050
Rp4051
(dp4052
g20
I0
sbsba(ics475_types
Instance
p4053
(dp4054
g10
(ics475_types
FeatureVector
p4055
(dp4056
g13
(dp4057
I1
F0.377215
sI2
F-0.760226
sI3
F-2.012957
sI4
F-1.010698
sI9
F1.0
ssbsg15
g0
(g16
g2
Ntp4058
Rp4059
(dp4060
g20
I1
sbsba(ics475_types
Instance
p4061
(dp4062
g10
(ics475_types
FeatureVector
p4063
(dp4064
g13
(dp4065
I1
F0.050666
sI2
F-0.362186
sI3
F0.077893
sI4
F-0.279781
sI6
F1.0
ssbsg15
g0
(g16
g2
Ntp4066
Rp4067
(dp4068
g20
I0
sbsba(ics475_types
Instance
p4069
(dp4070
g10
(ics475_types
FeatureVector
p4071
(dp4072
g13
(dp4073
I1
F-0.229519
sI2
F-1.502337
sI3
F0.866543
sI4
F-1.356505
sI6
F1.0
ssbsg15
g0
(g16
g2
Ntp4074
Rp4075
(dp4076
g20
I0
sbsba(ics475_types
Instance
p4077
(dp4078
g10
(ics475_types
FeatureVector
p4079
(dp4080
g13
(dp4081
I1
F-0.468071
sI2
F0.012536
sI3
F0.433072
sI4
F0.939769
sI7
F1.0
ssbsg15
g0
(g16
g2
Ntp4082
Rp4083
(dp4084
g20
I0
sbsba(ics475_types
Instance
p4085
(dp4086
g10
(ics475_types
FeatureVector
p4087
(dp4088
g13
(dp4089
I8
F1.0
sI1
F-0.222215
sI2
F-1.348257
sI3
F1.721444
sI4
F-0.707277
ssbsg15
g0
(g16
g2
Ntp4090
Rp4091
(dp4092
g20
I1
sbsba(ics475_types
Instance
p4093
(dp4094
g10
(ics475_types
FeatureVector
p4095
(dp4096
g13
(dp4097
I1
F0.509986
sI2
F-0.711377
sI3
F0.347573
sI4
F-1.174212
sI10
F1.0
ssbsg15
g0
(g16
g2
Ntp4098
Rp4099
(dp4100
g20
I1
sbsba(ics475_types
Instance
p4101
(dp4102
g10
(ics475_types
FeatureVector
p4103
(dp4104
g13
(dp4105
I1
F0.206299
sI2
F-0.085566
sI3
F2.134679
sI4
F0.784947
sI5
F1.0
ssbsg15
g0
(g16
g2
Ntp4106
Rp4107
(dp4108
g20
I0
sbsba(ics475_types
Instance
p4109
(dp4110
g10
(ics475_types
FeatureVector
p4111
(dp4112
g13
(dp4113
I8
F1.0
sI1
F-1.242048
sI2
F1.346572
sI3
F-0.846466
sI4
F0.337734
ssbsg15
g0
(g16
g2
Ntp4114
Rp4115
(dp4116
g20
I1
sbsba(ics475_types
Instance
p4117
(dp4118
g10
(ics475_types
FeatureVector
p4119
(dp4120
g13
(dp4121
I1
F-0.408047
sI2
F-0.74443
sI3
F0.093354
sI4
F-1.588522
sI5
F1.0
ssbsg15
g0
(g16
g2
Ntp4122
Rp4123
(dp4124
g20
I0
sbsba(ics475_types
Instance
p4125
(dp4126
g10
(ics475_types
FeatureVector
p4127
(dp4128
g13
(dp4129
I1
F0.782405
sI2
F-0.208402
sI3
F0.333455
sI4
F-0.544315
sI9
F1.0
ssbsg15
g0
(g16
g2
Ntp4130
Rp4131
(dp4132
g20
I1
sbsba(ics475_types
Instance
p4133
(dp4134
g10
(ics475_types
FeatureVector
p4135
(dp4136
g13
(dp4137
I8
F1.0
sI1
F0.476318
sI2
F0.608671
sI3
F2.351912
sI4
F1.263811
ssbsg15
g0
(g16
g2
Ntp4138
Rp4139
(dp4140
g20
I1
sbsba(ics475_types
Instance
p4141
(dp4142
g10
(ics475_types
FeatureVector
p4143
(dp4144
g13
(dp4145
I1
F-0.080831
sI2
F0.47201
sI3
F1.050036
sI4
F-0.190715
sI6
F1.0
ssbsg15
g0
(g16
g2
Ntp4146
Rp4147
(dp4148
g20
I0
sbsba(ics475_types
Instance
p4149
(dp4150
g10
(ics475_types
FeatureVector
p4151
(dp4152
g13
(dp4153
I1
F0.298888
sI2
F-0.068688
sI3
F-0.519339
sI4
F-0.092443
sI9
F1.0
ssbsg15
g0
(g16
g2
Ntp4154
Rp4155
(dp4156
g20
I1
sbsba(ics475_types
Instance
p4157
(dp4158
g10
(ics475_types
FeatureVector
p4159
(dp4160
g13
(dp4161
I8
F1.0
sI1
F-1.551089
sI2
F1.406332
sI3
F-0.140686
sI4
F-0.155843
ssbsg15
g0
(g16
g2
Ntp4162
Rp4163
(dp4164
g20
I1
sbsba(ics475_types
Instance
p4165
(dp4166
g10
(ics475_types
FeatureVector
p4167
(dp4168
g13
(dp4169
I1
F0.736749
sI2
F-1.386148
sI3
F-2.106629
sI4
F-0.251177
sI9
F1.0
ssbsg15
g0
(g16
g2
Ntp4170
Rp4171
(dp4172
g20
I1
sbsba(ics475_types
Instance
p4173
(dp4174
g10
(ics475_types
FeatureVector
p4175
(dp4176
g13
(dp4177
I8
F1.0
sI1
F1.740204
sI2
F-0.684913
sI3
F0.663213
sI4
F1.253191
ssbsg15
g0
(g16
g2
Ntp4178
Rp4179
(dp4180
g20
I1
sbsba(ics475_types
Instance
p4181
(dp4182
g10
(ics475_types
FeatureVector
p4183
(dp4184
g13
(dp4185
I1
F0.434477
sI2
F1.309134
sI3
F-0.56391
sI4
F-0.397544
sI10
F1.0
ssbsg15
g0
(g16
g2
Ntp4186
Rp4187
(dp4188
g20
I1
sbsba(ics475_types
Instance
p4189
(dp4190
g10
(ics475_types
FeatureVector
p4191
(dp4192
g13
(dp4193
I1
F0.329735
sI2
F1.247561
sI3
F0.162987
sI4
F0.177631
sI6
F1.0
ssbsg15
g0
(g16
g2
Ntp4194
Rp4195
(dp4196
g20
I0
sbsba(ics475_types
Instance
p4197
(dp4198
g10
(ics475_types
FeatureVector
p4199
(dp4200
g13
(dp4201
I1
F-0.281249
sI2
F0.746685
sI3
F2.332504
sI4
F1.379397
sI6
F1.0
ssbsg15
g0
(g16
g2
Ntp4202
Rp4203
(dp4204
g20
I0
sbsba(ics475_types
Instance
p4205
(dp4206
g10
(ics475_types
FeatureVector
p4207
(dp4208
g13
(dp4209
I1
F0.848648
sI2
F0.417482
sI3
F0.63506
sI4
F-0.202729
sI7
F1.0
ssbsg15
g0
(g16
g2
Ntp4210
Rp4211
(dp4212
g20
I0
sbsba(ics475_types
Instance
p4213
(dp4214
g10
(ics475_types
FeatureVector
p4215
(dp4216
g13
(dp4217
I1
F0.80404
sI2
F-0.017509
sI3
F0.63012
sI4
F-0.697544
sI5
F1.0
ssbsg15
g0
(g16
g2
Ntp4218
Rp4219
(dp4220
g20
I0
sbsba(ics475_types
Instance
p4221
(dp4222
g10
(ics475_types
FeatureVector
p4223
(dp4224
g13
(dp4225
I1
F1.603454
sI2
F-0.785056
sI3
F1.668068
sI4
F0.294406
sI5
F1.0
ssbsg15
g0
(g16
g2
Ntp4226
Rp4227
(dp4228
g20
I0
sbsba(ics475_types
Instance
p4229
(dp4230
g10
(ics475_types
FeatureVector
p4231
(dp4232
g13
(dp4233
I1
F0.162321
sI2
F1.954417
sI3
F0.4225
sI4
F0.378734
sI10
F1.0
ssbsg15
g0
(g16
g2
Ntp4234
Rp4235
(dp4236
g20
I1
sbsba(ics475_types
Instance
p4237
(dp4238
g10
(ics475_types
FeatureVector
p4239
(dp4240
g13
(dp4241
I1
F-1.05874
sI2
F-0.937694
sI3
F-0.22184
sI4
F-1.522659
sI6
F1.0
ssbsg15
g0
(g16
g2
Ntp4242
Rp4243
(dp4244
g20
I0
sbsba(ics475_types
Instance
p4245
(dp4246
g10
(ics475_types
FeatureVector
p4247
(dp4248
g13
(dp4249
I1
F-1.655668
sI2
F-1.679093
sI3
F-0.09614
sI4
F-0.428469
sI5
F1.0
ssbsg15
g0
(g16
g2
Ntp4250
Rp4251
(dp4252
g20
I0
sbsba(ics475_types
Instance
p4253
(dp4254
g10
(ics475_types
FeatureVector
p4255
(dp4256
g13
(dp4257
I1
F2.159906
sI2
F1.210449
sI3
F-1.169926
sI4
F-1.547807
sI9
F1.0
ssbsg15
g0
(g16
g2
Ntp4258
Rp4259
(dp4260
g20
I1
sbsba(ics475_types
Instance
p4261
(dp4262
g10
(ics475_types
FeatureVector
p4263
(dp4264
g13
(dp4265
I1
F1.747928
sI2
F-0.426509
sI3
F-0.579363
sI4
F1.166432
sI9
F1.0
ssbsg15
g0
(g16
g2
Ntp4266
Rp4267
(dp4268
g20
I1
sbsba(ics475_types
Instance
p4269
(dp4270
g10
(ics475_types
FeatureVector
p4271
(dp4272
g13
(dp4273
I1
F-0.121043
sI2
F0.878905
sI3
F0.263467
sI4
F1.351242
sI5
F1.0
ssbsg15
g0
(g16
g2
Ntp4274
Rp4275
(dp4276
g20
I0
sbsba(ics475_types
Instance
p4277
(dp4278
g10
(ics475_types
FeatureVector
p4279
(dp4280
g13
(dp4281
I1
F-0.307841
sI2
F-2.289822
sI3
F0.106471
sI4
F-0.558246
sI10
F1.0
ssbsg15
g0
(g16
g2
Ntp4282
Rp4283
(dp4284
g20
I1
sbsba(ics475_types
Instance
p4285
(dp4286
g10
(ics475_types
FeatureVector
p4287
(dp4288
g13
(dp4289
I1
F1.111011
sI2
F0.273537
sI3
F-0.428819
sI4
F-1.581912
sI5
F1.0
ssbsg15
g0
(g16
g2
Ntp4290
Rp4291
(dp4292
g20
I0
sbsba(ics475_types
Instance
p4293
(dp4294
g10
(ics475_types
FeatureVector
p4295
(dp4296
g13
(dp4297
I1
F-0.626412
sI2
F0.439996
sI3
F0.678995
sI4
F-1.281956
sI6
F1.0
ssbsg15
g0
(g16
g2
Ntp4298
Rp4299
(dp4300
g20
I0
sbsba(ics475_types
Instance
p4301
(dp4302
g10
(ics475_types
FeatureVector
p4303
(dp4304
g13
(dp4305
I1
F-1.306764
sI2
F-0.986409
sI3
F1.414822
sI4
F-0.700197
sI7
F1.0
ssbsg15
g0
(g16
g2
Ntp4306
Rp4307
(dp4308
g20
I0
sbsba(ics475_types
Instance
p4309
(dp4310
g10
(ics475_types
FeatureVector
p4311
(dp4312
g13
(dp4313
I1
F0.926254
sI2
F1.358849
sI3
F-1.076723
sI4
F0.326938
sI9
F1.0
ssbsg15
g0
(g16
g2
Ntp4314
Rp4315
(dp4316
g20
I1
sbsba(ics475_types
Instance
p4317
(dp4318
g10
(ics475_types
FeatureVector
p4319
(dp4320
g13
(dp4321
I1
F-0.448534
sI2
F-0.279824
sI3
F-0.816544
sI4
F1.502769
sI5
F1.0
ssbsg15
g0
(g16
g2
Ntp4322
Rp4323
(dp4324
g20
I0
sbsba(ics475_types
Instance
p4325
(dp4326
g10
(ics475_types
FeatureVector
p4327
(dp4328
g13
(dp4329
I1
F0.527096
sI2
F-1.976318
sI3
F-0.01004
sI4
F0.675826
sI9
F1.0
ssbsg15
g0
(g16
g2
Ntp4330
Rp4331
(dp4332
g20
I1
sbsba(ics475_types
Instance
p4333
(dp4334
g10
(ics475_types
FeatureVector
p4335
(dp4336
g13
(dp4337
I1
F-1.062949
sI2
F-0.893137
sI3
F-0.644843
sI4
F2.370965
sI6
F1.0
ssbsg15
g0
(g16
g2
Ntp4338
Rp4339
(dp4340
g20
I0
sbsba(ics475_types
Instance
p4341
(dp4342
g10
(ics475_types
FeatureVector
p4343
(dp4344
g13
(dp4345
I1
F-0.311724
sI2
F-0.212053
sI3
F0.221282
sI4
F0.899768
sI7
F1.0
ssbsg15
g0
(g16
g2
Ntp4346
Rp4347
(dp4348
g20
I0
sbsba(ics475_types
Instance
p4349
(dp4350
g10
(ics475_types
FeatureVector
p4351
(dp4352
g13
(dp4353
I8
F1.0
sI1
F-1.203709
sI2
F-0.700889
sI3
F0.112056
sI4
F-1.474671
ssbsg15
g0
(g16
g2
Ntp4354
Rp4355
(dp4356
g20
I1
sbsba(ics475_types
Instance
p4357
(dp4358
g10
(ics475_types
FeatureVector
p4359
(dp4360
g13
(dp4361
I1
F-0.098004
sI2
F-0.933218
sI3
F-0.195743
sI4
F0.948926
sI10
F1.0
ssbsg15
g0
(g16
g2
Ntp4362
Rp4363
(dp4364
g20
I1
sbsba(ics475_types
Instance
p4365
(dp4366
g10
(ics475_types
FeatureVector
p4367
(dp4368
g13
(dp4369
I8
F1.0
sI1
F1.37938
sI2
F0.229842
sI3
F0.770311
sI4
F-0.108511
ssbsg15
g0
(g16
g2
Ntp4370
Rp4371
(dp4372
g20
I1
sbsba(ics475_types
Instance
p4373
(dp4374
g10
(ics475_types
FeatureVector
p4375
(dp4376
g13
(dp4377
I1
F1.198446
sI2
F-0.527605
sI3
F-1.377273
sI4
F0.71795
sI9
F1.0
ssbsg15
g0
(g16
g2
Ntp4378
Rp4379
(dp4380
g20
I1
sbsba(ics475_types
Instance
p4381
(dp4382
g10
(ics475_types
FeatureVector
p4383
(dp4384
g13
(dp4385
I1
F0.01601
sI2
F-1.031832
sI3
F-0.06441
sI4
F0.406685
sI7
F1.0
ssbsg15
g0
(g16
g2
Ntp4386
Rp4387
(dp4388
g20
I0
sbsba(ics475_types
Instance
p4389
(dp4390
g10
(ics475_types
FeatureVector
p4391
(dp4392
g13
(dp4393
I8
F1.0
sI1
F0.560795
sI2
F0.678263
sI3
F-1.019638
sI4
F0.603297
ssbsg15
g0
(g16
g2
Ntp4394
Rp4395
(dp4396
g20
I1
sbsba(ics475_types
Instance
p4397
(dp4398
g10
(ics475_types
FeatureVector
p4399
(dp4400
g13
(dp4401
I1
F-1.839344
sI2
F0.369566
sI3
F-1.316574
sI4
F0.629617
sI10
F1.0
ssbsg15
g0
(g16
g2
Ntp4402
Rp4403
(dp4404
g20
I1
sbsba(ics475_types
Instance
p4405
(dp4406
g10
(ics475_types
FeatureVector
p4407
(dp4408
g13
(dp4409
I1
F-0.583283
sI2
F1.177118
sI3
F-0.975141
sI4
F1.111523
sI9
F1.0
ssbsg15
g0
(g16
g2
Ntp4410
Rp4411
(dp4412
g20
I1
sbsba(ics475_types
Instance
p4413
(dp4414
g10
(ics475_types
FeatureVector
p4415
(dp4416
g13
(dp4417
I8
F1.0
sI1
F0.647706
sI2
F0.771826
sI3
F-1.013149
sI4
F0.349313
ssbsg15
g0
(g16
g2
Ntp4418
Rp4419
(dp4420
g20
I1
sbsba(ics475_types
Instance
p4421
(dp4422
g10
(ics475_types
FeatureVector
p4423
(dp4424
g13
(dp4425
I1
F0.515197
sI2
F-1.685336
sI3
F-0.721024
sI4
F0.353178
sI5
F1.0
ssbsg15
g0
(g16
g2
Ntp4426
Rp4427
(dp4428
g20
I0
sbsba(ics475_types
Instance
p4429
(dp4430
g10
(ics475_types
FeatureVector
p4431
(dp4432
g13
(dp4433
I8
F1.0
sI1
F-0.540639
sI2
F-0.182822
sI3
F0.905446
sI4
F-0.833442
ssbsg15
g0
(g16
g2
Ntp4434
Rp4435
(dp4436
g20
I1
sbsba(ics475_types
Instance
p4437
(dp4438
g10
(ics475_types
FeatureVector
p4439
(dp4440
g13
(dp4441
I1
F1.504796
sI2
F0.348552
sI3
F-0.607533
sI4
F-0.13297
sI5
F1.0
ssbsg15
g0
(g16
g2
Ntp4442
Rp4443
(dp4444
g20
I0
sbsba(ics475_types
Instance
p4445
(dp4446
g10
(ics475_types
FeatureVector
p4447
(dp4448
g13
(dp4449
I1
F0.029967
sI2
F0.245562
sI3
F1.029308
sI4
F-0.623772
sI10
F1.0
ssbsg15
g0
(g16
g2
Ntp4450
Rp4451
(dp4452
g20
I1
sbsba(ics475_types
Instance
p4453
(dp4454
g10
(ics475_types
FeatureVector
p4455
(dp4456
g13
(dp4457
I8
F1.0
sI1
F0.788134
sI2
F0.334435
sI3
F1.008266
sI4
F0.710864
ssbsg15
g0
(g16
g2
Ntp4458
Rp4459
(dp4460
g20
I1
sbsba(ics475_types
Instance
p4461
(dp4462
g10
(ics475_types
FeatureVector
p4463
(dp4464
g13
(dp4465
I1
F0.58579
sI2
F-0.205011
sI3
F-0.32275
sI4
F-1.110394
sI7
F1.0
ssbsg15
g0
(g16
g2
Ntp4466
Rp4467
(dp4468
g20
I0
sbsba(ics475_types
Instance
p4469
(dp4470
g10
(ics475_types
FeatureVector
p4471
(dp4472
g13
(dp4473
I1
F0.83588
sI2
F-0.282947
sI3
F0.587287
sI4
F0.317415
sI6
F1.0
ssbsg15
g0
(g16
g2
Ntp4474
Rp4475
(dp4476
g20
I0
sbsba(ics475_types
Instance
p4477
(dp4478
g10
(ics475_types
FeatureVector
p4479
(dp4480
g13
(dp4481
I8
F1.0
sI1
F0.682277
sI2
F-1.650195
sI3
F-0.835347
sI4
F-0.413707
ssbsg15
g0
(g16
g2
Ntp4482
Rp4483
(dp4484
g20
I1
sbsba(ics475_types
Instance
p4485
(dp4486
g10
(ics475_types
FeatureVector
p4487
(dp4488
g13
(dp4489
I1
F1.585913
sI2
F1.128392
sI3
F-1.913331
sI4
F2.065354
sI9
F1.0
ssbsg15
g0
(g16
g2
Ntp4490
Rp4491
(dp4492
g20
I1
sbsba(ics475_types
Instance
p4493
(dp4494
g10
(ics475_types
FeatureVector
p4495
(dp4496
g13
(dp4497
I8
F1.0
sI1
F-0.37604
sI2
F-1.179684
sI3
F1.189454
sI4
F-2.070375
ssbsg15
g0
(g16
g2
Ntp4498
Rp4499
(dp4500
g20
I1
sbsba(ics475_types
Instance
p4501
(dp4502
g10
(ics475_types
FeatureVector
p4503
(dp4504
g13
(dp4505
I1
F-0.517439
sI2
F-0.159766
sI3
F1.55625
sI4
F-0.814886
sI6
F1.0
ssbsg15
g0
(g16
g2
Ntp4506
Rp4507
(dp4508
g20
I0
sbsba(ics475_types
Instance
p4509
(dp4510
g10
(ics475_types
FeatureVector
p4511
(dp4512
g13
(dp4513
I8
F1.0
sI1
F0.44814
sI2
F-0.7038
sI3
F0.237245
sI4
F0.499819
ssbsg15
g0
(g16
g2
Ntp4514
Rp4515
(dp4516
g20
I1
sbsba(ics475_types
Instance
p4517
(dp4518
g10
(ics475_types
FeatureVector
p4519
(dp4520
g13
(dp4521
I8
F1.0
sI1
F0.518045
sI2
F-1.323566
sI3
F0.421666
sI4
F0.202043
ssbsg15
g0
(g16
g2
Ntp4522
Rp4523
(dp4524
g20
I1
sbsba(ics475_types
Instance
p4525
(dp4526
g10
(ics475_types
FeatureVector
p4527
(dp4528
g13
(dp4529
I8
F1.0
sI1
F1.546043
sI2
F-0.552379
sI3
F0.250314
sI4
F-0.179027
ssbsg15
g0
(g16
g2
Ntp4530
Rp4531
(dp4532
g20
I1
sbsba(ics475_types
Instance
p4533
(dp4534
g10
(ics475_types
FeatureVector
p4535
(dp4536
g13
(dp4537
I1
F1.50031
sI2
F0.620329
sI3
F-1.114309
sI4
F-0.786591
sI9
F1.0
ssbsg15
g0
(g16
g2
Ntp4538
Rp4539
(dp4540
g20
I1
sbsba(ics475_types
Instance
p4541
(dp4542
g10
(ics475_types
FeatureVector
p4543
(dp4544
g13
(dp4545
I1
F-0.909731
sI2
F1.074265
sI3
F0.920937
sI4
F-0.218708
sI10
F1.0
ssbsg15
g0
(g16
g2
Ntp4546
Rp4547
(dp4548
g20
I1
sbsba(ics475_types
Instance
p4549
(dp4550
g10
(ics475_types
FeatureVector
p4551
(dp4552
g13
(dp4553
I1
F1.410403
sI2
F-0.02593
sI3
F1.275207
sI4
F-1.705623
sI10
F1.0
ssbsg15
g0
(g16
g2
Ntp4554
Rp4555
(dp4556
g20
I1
sbsba(ics475_types
Instance
p4557
(dp4558
g10
(ics475_types
FeatureVector
p4559
(dp4560
g13
(dp4561
I8
F1.0
sI1
F-0.538363
sI2
F-1.690719
sI3
F-0.104506
sI4
F-1.354063
ssbsg15
g0
(g16
g2
Ntp4562
Rp4563
(dp4564
g20
I1
sbsba(ics475_types
Instance
p4565
(dp4566
g10
(ics475_types
FeatureVector
p4567
(dp4568
g13
(dp4569
I1
F0.198737
sI2
F0.611812
sI3
F1.756537
sI4
F0.150678
sI10
F1.0
ssbsg15
g0
(g16
g2
Ntp4570
Rp4571
(dp4572
g20
I1
sbsba(ics475_types
Instance
p4573
(dp4574
g10
(ics475_types
FeatureVector
p4575
(dp4576
g13
(dp4577
I8
F1.0
sI1
F-0.226043
sI2
F0.036966
sI3
F-0.020466
sI4
F-1.63586
ssbsg15
g0
(g16
g2
Ntp4578
Rp4579
(dp4580
g20
I1
sbsba(ics475_types
Instance
p4581
(dp4582
g10
(ics475_types
FeatureVector
p4583
(dp4584
g13
(dp4585
I1
F0.555023
sI2
F-2.019215
sI3
F-1.020955
sI4
F-0.83041
sI5
F1.0
ssbsg15
g0
(g16
g2
Ntp4586
Rp4587
(dp4588
g20
I0
sbsba(ics475_types
Instance
p4589
(dp4590
g10
(ics475_types
FeatureVector
p4591
(dp4592
g13
(dp4593
I1
F-0.138308
sI2
F-0.436497
sI3
F-0.985982
sI4
F-3.046068
sI9
F1.0
ssbsg15
g0
(g16
g2
Ntp4594
Rp4595
(dp4596
g20
I1
sbsba(ics475_types
Instance
p4597
(dp4598
g10
(ics475_types
FeatureVector
p4599
(dp4600
g13
(dp4601
I8
F1.0
sI1
F-0.10228
sI2
F-0.959562
sI3
F-0.657908
sI4
F0.249566
ssbsg15
g0
(g16
g2
Ntp4602
Rp4603
(dp4604
g20
I1
sbsba(ics475_types
Instance
p4605
(dp4606
g10
(ics475_types
FeatureVector
p4607
(dp4608
g13
(dp4609
I1
F0.071222
sI2
F1.103433
sI3
F-1.124013
sI4
F-0.402513
sI6
F1.0
ssbsg15
g0
(g16
g2
Ntp4610
Rp4611
(dp4612
g20
I0
sbsba(ics475_types
Instance
p4613
(dp4614
g10
(ics475_types
FeatureVector
p4615
(dp4616
g13
(dp4617
I1
F-1.067246
sI2
F1.060725
sI3
F0.094894
sI4
F-0.048467
sI10
F1.0
ssbsg15
g0
(g16
g2
Ntp4618
Rp4619
(dp4620
g20
I1
sbsba(ics475_types
Instance
p4621
(dp4622
g10
(ics475_types
FeatureVector
p4623
(dp4624
g13
(dp4625
I1
F1.225432
sI2
F-1.978259
sI3
F0.755285
sI4
F2.067801
sI9
F1.0
ssbsg15
g0
(g16
g2
Ntp4626
Rp4627
(dp4628
g20
I1
sbsba(ics475_types
Instance
p4629
(dp4630
g10
(ics475_types
FeatureVector
p4631
(dp4632
g13
(dp4633
I1
F0.495979
sI2
F-1.130837
sI3
F-1.187712
sI4
F0.913601
sI9
F1.0
ssbsg15
g0
(g16
g2
Ntp4634
Rp4635
(dp4636
g20
I1
sbsba(ics475_types
Instance
p4637
(dp4638
g10
(ics475_types
FeatureVector
p4639
(dp4640
g13
(dp4641
I1
F-0.289973
sI2
F1.537272
sI3
F-2.07897
sI4
F1.033089
sI10
F1.0
ssbsg15
g0
(g16
g2
Ntp4642
Rp4643
(dp4644
g20
I1
sbsba(ics475_types
Instance
p4645
(dp4646
g10
(ics475_types
FeatureVector
p4647
(dp4648
g13
(dp4649
I1
F0.225217
sI2
F-0.099797
sI3
F0.007083
sI4
F-1.574185
sI10
F1.0
ssbsg15
g0
(g16
g2
Ntp4650
Rp4651
(dp4652
g20
I1
sbsba(ics475_types
Instance
p4653
(dp4654
g10
(ics475_types
FeatureVector
p4655
(dp4656
g13
(dp4657
I1
F0.853908
sI2
F-1.014616
sI3
F-0.368485
sI4
F0.925469
sI10
F1.0
ssbsg15
g0
(g16
g2
Ntp4658
Rp4659
(dp4660
g20
I1
sbsba(ics475_types
Instance
p4661
(dp4662
g10
(ics475_types
FeatureVector
p4663
(dp4664
g13
(dp4665
I1
F-2.274372
sI2
F-0.544211
sI3
F0.124179
sI4
F-0.983294
sI7
F1.0
ssbsg15
g0
(g16
g2
Ntp4666
Rp4667
(dp4668
g20
I0
sbsba(ics475_types
Instance
p4669
(dp4670
g10
(ics475_types
FeatureVector
p4671
(dp4672
g13
(dp4673
I1
F-0.495021
sI2
F1.308321
sI3
F-0.31922
sI4
F-0.232791
sI7
F1.0
ssbsg15
g0
(g16
g2
Ntp4674
Rp4675
(dp4676
g20
I0
sbsba(ics475_types
Instance
p4677
(dp4678
g10
(ics475_types
FeatureVector
p4679
(dp4680
g13
(dp4681
I1
F-0.011733
sI2
F0.589649
sI3
F2.568869
sI4
F0.991722
sI10
F1.0
ssbsg15
g0
(g16
g2
Ntp4682
Rp4683
(dp4684
g20
I1
sbsba(ics475_types
Instance
p4685
(dp4686
g10
(ics475_types
FeatureVector
p4687
(dp4688
g13
(dp4689
I1
F-1.909961
sI2
F0.305501
sI3
F-0.100312
sI4
F0.494003
sI7
F1.0
ssbsg15
g0
(g16
g2
Ntp4690
Rp4691
(dp4692
g20
I0
sbsba(ics475_types
Instance
p4693
(dp4694
g10
(ics475_types
FeatureVector
p4695
(dp4696
g13
(dp4697
I1
F1.201366
sI2
F-0.419752
sI3
F1.2544
sI4
F-2.125149
sI9
F1.0
ssbsg15
g0
(g16
g2
Ntp4698
Rp4699
(dp4700
g20
I1
sbsba(ics475_types
Instance
p4701
(dp4702
g10
(ics475_types
FeatureVector
p4703
(dp4704
g13
(dp4705
I8
F1.0
sI1
F-0.320643
sI2
F-0.293398
sI3
F-0.346644
sI4
F2.967515
ssbsg15
g0
(g16
g2
Ntp4706
Rp4707
(dp4708
g20
I1
sbsba(ics475_types
Instance
p4709
(dp4710
g10
(ics475_types
FeatureVector
p4711
(dp4712
g13
(dp4713
I1
F1.629334
sI2
F-0.584494
sI3
F-1.151981
sI4
F-1.813547
sI6
F1.0
ssbsg15
g0
(g16
g2
Ntp4714
Rp4715
(dp4716
g20
I0
sbsba(ics475_types
Instance
p4717
(dp4718
g10
(ics475_types
FeatureVector
p4719
(dp4720
g13
(dp4721
I1
F-0.045441
sI2
F-1.245408
sI3
F1.902164
sI4
F0.248109
sI5
F1.0
ssbsg15
g0
(g16
g2
Ntp4722
Rp4723
(dp4724
g20
I0
sbsba(ics475_types
Instance
p4725
(dp4726
g10
(ics475_types
FeatureVector
p4727
(dp4728
g13
(dp4729
I1
F-1.368584
sI2
F-2.165195
sI3
F-0.321411
sI4
F0.512635
sI9
F1.0
ssbsg15
g0
(g16
g2
Ntp4730
Rp4731
(dp4732
g20
I1
sbsba(ics475_types
Instance
p4733
(dp4734
g10
(ics475_types
FeatureVector
p4735
(dp4736
g13
(dp4737
I1
F1.159615
sI2
F1.184957
sI3
F-0.081533
sI4
F-0.74771
sI10
F1.0
ssbsg15
g0
(g16
g2
Ntp4738
Rp4739
(dp4740
g20
I1
sbsba(ics475_types
Instance
p4741
(dp4742
g10
(ics475_types
FeatureVector
p4743
(dp4744
g13
(dp4745
I1
F-0.437881
sI2
F0.223517
sI3
F0.31366
sI4
F0.299525
sI9
F1.0
ssbsg15
g0
(g16
g2
Ntp4746
Rp4747
(dp4748
g20
I1
sbsba(ics475_types
Instance
p4749
(dp4750
g10
(ics475_types
FeatureVector
p4751
(dp4752
g13
(dp4753
I1
F0.307435
sI2
F-0.143619
sI3
F0.65025
sI4
F1.024063
sI6
F1.0
ssbsg15
g0
(g16
g2
Ntp4754
Rp4755
(dp4756
g20
I0
sbsba(ics475_types
Instance
p4757
(dp4758
g10
(ics475_types
FeatureVector
p4759
(dp4760
g13
(dp4761
I1
F-0.234181
sI2
F1.179949
sI3
F-0.792328
sI4
F0.756103
sI5
F1.0
ssbsg15
g0
(g16
g2
Ntp4762
Rp4763
(dp4764
g20
I0
sbsba(ics475_types
Instance
p4765
(dp4766
g10
(ics475_types
FeatureVector
p4767
(dp4768
g13
(dp4769
I1
F-0.683503
sI2
F-0.156988
sI3
F1.043131
sI4
F-0.61334
sI7
F1.0
ssbsg15
g0
(g16
g2
Ntp4770
Rp4771
(dp4772
g20
I0
sbsba(ics475_types
Instance
p4773
(dp4774
g10
(ics475_types
FeatureVector
p4775
(dp4776
g13
(dp4777
I1
F1.431918
sI2
F-0.729297
sI3
F0.166658
sI4
F-0.450589
sI5
F1.0
ssbsg15
g0
(g16
g2
Ntp4778
Rp4779
(dp4780
g20
I0
sbsba(ics475_types
Instance
p4781
(dp4782
g10
(ics475_types
FeatureVector
p4783
(dp4784
g13
(dp4785
I1
F-1.235235
sI2
F0.5776
sI3
F0.489259
sI4
F-0.47815
sI9
F1.0
ssbsg15
g0
(g16
g2
Ntp4786
Rp4787
(dp4788
g20
I1
sbsba(ics475_types
Instance
p4789
(dp4790
g10
(ics475_types
FeatureVector
p4791
(dp4792
g13
(dp4793
I1
F-0.995529
sI2
F-0.541361
sI3
F-0.620303
sI4
F1.60294
sI6
F1.0
ssbsg15
g0
(g16
g2
Ntp4794
Rp4795
(dp4796
g20
I0
sbsba(ics475_types
Instance
p4797
(dp4798
g10
(ics475_types
FeatureVector
p4799
(dp4800
g13
(dp4801
I1
F0.642151
sI2
F1.240018
sI3
F-0.744895
sI4
F0.409516
sI7
F1.0
ssbsg15
g0
(g16
g2
Ntp4802
Rp4803
(dp4804
g20
I0
sbsba(ics475_types
Instance
p4805
(dp4806
g10
(ics475_types
FeatureVector
p4807
(dp4808
g13
(dp4809
I1
F1.143179
sI2
F-0.441322
sI3
F1.198041
sI4
F-1.677678
sI9
F1.0
ssbsg15
g0
(g16
g2
Ntp4810
Rp4811
(dp4812
g20
I1
sbsba(ics475_types
Instance
p4813
(dp4814
g10
(ics475_types
FeatureVector
p4815
(dp4816
g13
(dp4817
I1
F0.007382
sI2
F-0.162945
sI3
F-0.25008
sI4
F0.912492
sI9
F1.0
ssbsg15
g0
(g16
g2
Ntp4818
Rp4819
(dp4820
g20
I1
sbsba(ics475_types
Instance
p4821
(dp4822
g10
(ics475_types
FeatureVector
p4823
(dp4824
g13
(dp4825
I1
F0.231434
sI2
F-0.147777
sI3
F-0.373133
sI4
F0.992312
sI9
F1.0
ssbsg15
g0
(g16
g2
Ntp4826
Rp4827
(dp4828
g20
I1
sbsba(ics475_types
Instance
p4829
(dp4830
g10
(ics475_types
FeatureVector
p4831
(dp4832
g13
(dp4833
I1
F0.043464
sI2
F-0.655889
sI3
F-0.812416
sI4
F-1.174982
sI7
F1.0
ssbsg15
g0
(g16
g2
Ntp4834
Rp4835
(dp4836
g20
I0
sbsba(ics475_types
Instance
p4837
(dp4838
g10
(ics475_types
FeatureVector
p4839
(dp4840
g13
(dp4841
I1
F-0.161685
sI2
F-0.563624
sI3
F1.040783
sI4
F0.067185
sI10
F1.0
ssbsg15
g0
(g16
g2
Ntp4842
Rp4843
(dp4844
g20
I1
sbsba(ics475_types
Instance
p4845
(dp4846
g10
(ics475_types
FeatureVector
p4847
(dp4848
g13
(dp4849
I1
F0.866796
sI2
F0.093551
sI3
F1.151367
sI4
F1.060998
sI5
F1.0
ssbsg15
g0
(g16
g2
Ntp4850
Rp4851
(dp4852
g20
I0
sbsba(ics475_types
Instance
p4853
(dp4854
g10
(ics475_types
FeatureVector
p4855
(dp4856
g13
(dp4857
I1
F1.194819
sI2
F0.876804
sI3
F0.395878
sI4
F0.254818
sI10
F1.0
ssbsg15
g0
(g16
g2
Ntp4858
Rp4859
(dp4860
g20
I1
sbsba(ics475_types
Instance
p4861
(dp4862
g10
(ics475_types
FeatureVector
p4863
(dp4864
g13
(dp4865
I1
F0.269302
sI2
F-0.373305
sI3
F-0.376234
sI4
F1.467165
sI6
F1.0
ssbsg15
g0
(g16
g2
Ntp4866
Rp4867
(dp4868
g20
I0
sbsba(ics475_types
Instance
p4869
(dp4870
g10
(ics475_types
FeatureVector
p4871
(dp4872
g13
(dp4873
I1
F-1.515068
sI2
F-0.707112
sI3
F-0.292649
sI4
F-0.503421
sI10
F1.0
ssbsg15
g0
(g16
g2
Ntp4874
Rp4875
(dp4876
g20
I1
sbsba(ics475_types
Instance
p4877
(dp4878
g10
(ics475_types
FeatureVector
p4879
(dp4880
g13
(dp4881
I1
F-1.304611
sI2
F-1.641036
sI3
F-1.696246
sI4
F-0.482533
sI5
F1.0
ssbsg15
g0
(g16
g2
Ntp4882
Rp4883
(dp4884
g20
I0
sbsba(ics475_types
Instance
p4885
(dp4886
g10
(ics475_types
FeatureVector
p4887
(dp4888
g13
(dp4889
I8
F1.0
sI1
F-0.109253
sI2
F0.213726
sI3
F-0.634511
sI4
F-0.43817
ssbsg15
g0
(g16
g2
Ntp4890
Rp4891
(dp4892
g20
I1
sbsba(ics475_types
Instance
p4893
(dp4894
g10
(ics475_types
FeatureVector
p4895
(dp4896
g13
(dp4897
I1
F-0.766887
sI2
F-1.531845
sI3
F0.549304
sI4
F-0.954931
sI7
F1.0
ssbsg15
g0
(g16
g2
Ntp4898
Rp4899
(dp4900
g20
I0
sbsba(ics475_types
Instance
p4901
(dp4902
g10
(ics475_types
FeatureVector
p4903
(dp4904
g13
(dp4905
I8
F1.0
sI1
F-0.720121
sI2
F-1.415269
sI3
F-0.721084
sI4
F-1.48743
ssbsg15
g0
(g16
g2
Ntp4906
Rp4907
(dp4908
g20
I1
sbsba(ics475_types
Instance
p4909
(dp4910
g10
(ics475_types
FeatureVector
p4911
(dp4912
g13
(dp4913
I1
F-0.142224
sI2
F-1.464038
sI3
F-0.458892
sI4
F-0.215392
sI10
F1.0
ssbsg15
g0
(g16
g2
Ntp4914
Rp4915
(dp4916
g20
I1
sbsba(ics475_types
Instance
p4917
(dp4918
g10
(ics475_types
FeatureVector
p4919
(dp4920
g13
(dp4921
I8
F1.0
sI1
F0.151154
sI2
F-1.21922
sI3
F0.0832
sI4
F1.303558
ssbsg15
g0
(g16
g2
Ntp4922
Rp4923
(dp4924
g20
I1
sbsba(ics475_types
Instance
p4925
(dp4926
g10
(ics475_types
FeatureVector
p4927
(dp4928
g13
(dp4929
I1
F-0.688382
sI2
F-1.400533
sI3
F1.01862
sI4
F-1.352052
sI7
F1.0
ssbsg15
g0
(g16
g2
Ntp4930
Rp4931
(dp4932
g20
I0
sbsba(ics475_types
Instance
p4933
(dp4934
g10
(ics475_types
FeatureVector
p4935
(dp4936
g13
(dp4937
I1
F0.999522
sI2
F0.256785
sI3
F-1.275265
sI4
F-0.333617
sI10
F1.0
ssbsg15
g0
(g16
g2
Ntp4938
Rp4939
(dp4940
g20
I1
sbsba(ics475_types
Instance
p4941
(dp4942
g10
(ics475_types
FeatureVector
p4943
(dp4944
g13
(dp4945
I1
F-0.978417
sI2
F-1.694892
sI3
F-0.249701
sI4
F1.971434
sI9
F1.0
ssbsg15
g0
(g16
g2
Ntp4946
Rp4947
(dp4948
g20
I1
sbsba(ics475_types
Instance
p4949
(dp4950
g10
(ics475_types
FeatureVector
p4951
(dp4952
g13
(dp4953
I1
F1.06699
sI2
F1.185494
sI3
F1.568349
sI4
F-0.975792
sI9
F1.0
ssbsg15
g0
(g16
g2
Ntp4954
Rp4955
(dp4956
g20
I1
sbsba(ics475_types
Instance
p4957
(dp4958
g10
(ics475_types
FeatureVector
p4959
(dp4960
g13
(dp4961
I8
F1.0
sI1
F-0.550118
sI2
F-1.384509
sI3
F-0.268239
sI4
F0.198293
ssbsg15
g0
(g16
g2
Ntp4962
Rp4963
(dp4964
g20
I1
sbsba(ics475_types
Instance
p4965
(dp4966
g10
(ics475_types
FeatureVector
p4967
(dp4968
g13
(dp4969
I8
F1.0
sI1
F-0.202568
sI2
F-1.246487
sI3
F0.107639
sI4
F-0.25476
ssbsg15
g0
(g16
g2
Ntp4970
Rp4971
(dp4972
g20
I1
sbsba(ics475_types
Instance
p4973
(dp4974
g10
(ics475_types
FeatureVector
p4975
(dp4976
g13
(dp4977
I1
F-0.593401
sI2
F-0.736742
sI3
F0.315991
sI4
F-0.08736
sI9
F1.0
ssbsg15
g0
(g16
g2
Ntp4978
Rp4979
(dp4980
g20
I1
sbsba(ics475_types
Instance
p4981
(dp4982
g10
(ics475_types
FeatureVector
p4983
(dp4984
g13
(dp4985
I8
F1.0
sI1
F-0.150275
sI2
F0.2911
sI3
F-0.925545
sI4
F-0.272337
ssbsg15
g0
(g16
g2
Ntp4986
Rp4987
(dp4988
g20
I1
sbsba(ics475_types
Instance
p4989
(dp4990
g10
(ics475_types
FeatureVector
p4991
(dp4992
g13
(dp4993
I1
F-1.572442
sI2
F-0.115908
sI3
F-1.101242
sI4
F0.565808
sI5
F1.0
ssbsg15
g0
(g16
g2
Ntp4994
Rp4995
(dp4996
g20
I0
sbsba(ics475_types
Instance
p4997
(dp4998
g10
(ics475_types
FeatureVector
p4999
(dp5000
g13
(dp5001
I1
F1.38064
sI2
F0.682766
sI3
F0.879865
sI4
F-1.151602
sI5
F1.0
ssbsg15
g0
(g16
g2
Ntp5002
Rp5003
(dp5004
g20
I0
sbsba(ics475_types
Instance
p5005
(dp5006
g10
(ics475_types
FeatureVector
p5007
(dp5008
g13
(dp5009
I1
F-0.452436
sI2
F0.816169
sI3
F0.616413
sI4
F-1.412012
sI9
F1.0
ssbsg15
g0
(g16
g2
Ntp5010
Rp5011
(dp5012
g20
I1
sbsba(ics475_types
Instance
p5013
(dp5014
g10
(ics475_types
FeatureVector
p5015
(dp5016
g13
(dp5017
I1
F-0.785008
sI2
F2.113347
sI3
F1.613836
sI4
F-0.106877
sI5
F1.0
ssbsg15
g0
(g16
g2
Ntp5018
Rp5019
(dp5020
g20
I0
sbsba(ics475_types
Instance
p5021
(dp5022
g10
(ics475_types
FeatureVector
p5023
(dp5024
g13
(dp5025
I1
F-0.538115
sI2
F0.38806
sI3
F0.557224
sI4
F0.657575
sI7
F1.0
ssbsg15
g0
(g16
g2
Ntp5026
Rp5027
(dp5028
g20
I0
sbsba(ics475_types
Instance
p5029
(dp5030
g10
(ics475_types
FeatureVector
p5031
(dp5032
g13
(dp5033
I1
F-0.655923
sI2
F0.419919
sI3
F-0.20736
sI4
F0.81606
sI9
F1.0
ssbsg15
g0
(g16
g2
Ntp5034
Rp5035
(dp5036
g20
I1
sbsba(ics475_types
Instance
p5037
(dp5038
g10
(ics475_types
FeatureVector
p5039
(dp5040
g13
(dp5041
I1
F-0.127126
sI2
F1.210608
sI3
F-0.165269
sI4
F1.41661
sI7
F1.0
ssbsg15
g0
(g16
g2
Ntp5042
Rp5043
(dp5044
g20
I0
sbsba(ics475_types
Instance
p5045
(dp5046
g10
(ics475_types
FeatureVector
p5047
(dp5048
g13
(dp5049
I1
F-1.991496
sI2
F1.567973
sI3
F-0.45
sI4
F1.373093
sI6
F1.0
ssbsg15
g0
(g16
g2
Ntp5050
Rp5051
(dp5052
g20
I0
sbsba(ics475_types
Instance
p5053
(dp5054
g10
(ics475_types
FeatureVector
p5055
(dp5056
g13
(dp5057
I1
F-2.032925
sI2
F-0.559851
sI3
F-1.165654
sI4
F0.626347
sI6
F1.0
ssbsg15
g0
(g16
g2
Ntp5058
Rp5059
(dp5060
g20
I0
sbsba(ics475_types
Instance
p5061
(dp5062
g10
(ics475_types
FeatureVector
p5063
(dp5064
g13
(dp5065
I1
F0.456915
sI2
F0.509846
sI3
F1.97734
sI4
F1.857796
sI10
F1.0
ssbsg15
g0
(g16
g2
Ntp5066
Rp5067
(dp5068
g20
I1
sbsba(ics475_types
Instance
p5069
(dp5070
g10
(ics475_types
FeatureVector
p5071
(dp5072
g13
(dp5073
I8
F1.0
sI1
F-0.827983
sI2
F-0.200609
sI3
F0.877516
sI4
F-0.013237
ssbsg15
g0
(g16
g2
Ntp5074
Rp5075
(dp5076
g20
I1
sbsba(ics475_types
Instance
p5077
(dp5078
g10
(ics475_types
FeatureVector
p5079
(dp5080
g13
(dp5081
I1
F-0.528242
sI2
F1.699368
sI3
F1.882008
sI4
F-1.432778
sI7
F1.0
ssbsg15
g0
(g16
g2
Ntp5082
Rp5083
(dp5084
g20
I0
sbsba(ics475_types
Instance
p5085
(dp5086
g10
(ics475_types
FeatureVector
p5087
(dp5088
g13
(dp5089
I1
F-0.791513
sI2
F0.532676
sI3
F-0.05388
sI4
F1.154392
sI10
F1.0
ssbsg15
g0
(g16
g2
Ntp5090
Rp5091
(dp5092
g20
I1
sbsba(ics475_types
Instance
p5093
(dp5094
g10
(ics475_types
FeatureVector
p5095
(dp5096
g13
(dp5097
I1
F-0.542685
sI2
F-0.016464
sI3
F-0.713663
sI4
F0.379503
sI6
F1.0
ssbsg15
g0
(g16
g2
Ntp5098
Rp5099
(dp5100
g20
I0
sbsba(ics475_types
Instance
p5101
(dp5102
g10
(ics475_types
FeatureVector
p5103
(dp5104
g13
(dp5105
I1
F0.714539
sI2
F0.502224
sI3
F-0.21014
sI4
F-0.297287
sI5
F1.0
ssbsg15
g0
(g16
g2
Ntp5106
Rp5107
(dp5108
g20
I0
sbsba(ics475_types
Instance
p5109
(dp5110
g10
(ics475_types
FeatureVector
p5111
(dp5112
g13
(dp5113
I1
F0.619607
sI2
F-0.47878
sI3
F0.122998
sI4
F1.432542
sI7
F1.0
ssbsg15
g0
(g16
g2
Ntp5114
Rp5115
(dp5116
g20
I0
sbsba(ics475_types
Instance
p5117
(dp5118
g10
(ics475_types
FeatureVector
p5119
(dp5120
g13
(dp5121
I1
F-0.06424
sI2
F-0.882545
sI3
F0.466932
sI4
F0.837338
sI9
F1.0
ssbsg15
g0
(g16
g2
Ntp5122
Rp5123
(dp5124
g20
I1
sbsba(ics475_types
Instance
p5125
(dp5126
g10
(ics475_types
FeatureVector
p5127
(dp5128
g13
(dp5129
I1
F-1.500285
sI2
F-0.205346
sI3
F1.1186
sI4
F-0.730032
sI10
F1.0
ssbsg15
g0
(g16
g2
Ntp5130
Rp5131
(dp5132
g20
I1
sbsba(ics475_types
Instance
p5133
(dp5134
g10
(ics475_types
FeatureVector
p5135
(dp5136
g13
(dp5137
I8
F1.0
sI1
F0.526047
sI2
F0.370325
sI3
F-0.940413
sI4
F2.211461
ssbsg15
g0
(g16
g2
Ntp5138
Rp5139
(dp5140
g20
I1
sbsba(ics475_types
Instance
p5141
(dp5142
g10
(ics475_types
FeatureVector
p5143
(dp5144
g13
(dp5145
I1
F-1.882799
sI2
F0.696719
sI3
F0.517371
sI4
F0.60002
sI7
F1.0
ssbsg15
g0
(g16
g2
Ntp5146
Rp5147
(dp5148
g20
I0
sbsba(ics475_types
Instance
p5149
(dp5150
g10
(ics475_types
FeatureVector
p5151
(dp5152
g13
(dp5153
I1
F-0.189157
sI2
F-1.242811
sI3
F1.942422
sI4
F-1.369023
sI5
F1.0
ssbsg15
g0
(g16
g2
Ntp5154
Rp5155
(dp5156
g20
I0
sbsba(ics475_types
Instance
p5157
(dp5158
g10
(ics475_types
FeatureVector
p5159
(dp5160
g13
(dp5161
I1
F-1.577767
sI2
F1.081761
sI3
F0.724702
sI4
F2.556987
sI6
F1.0
ssbsg15
g0
(g16
g2
Ntp5162
Rp5163
(dp5164
g20
I0
sbsba(ics475_types
Instance
p5165
(dp5166
g10
(ics475_types
FeatureVector
p5167
(dp5168
g13
(dp5169
I1
F0.611739
sI2
F0.84338
sI3
F-0.734515
sI4
F0.54607
sI6
F1.0
ssbsg15
g0
(g16
g2
Ntp5170
Rp5171
(dp5172
g20
I0
sbsba(ics475_types
Instance
p5173
(dp5174
g10
(ics475_types
FeatureVector
p5175
(dp5176
g13
(dp5177
I1
F0.476428
sI2
F2.623847
sI3
F1.843247
sI4
F0.399199
sI5
F1.0
ssbsg15
g0
(g16
g2
Ntp5178
Rp5179
(dp5180
g20
I0
sbsba(ics475_types
Instance
p5181
(dp5182
g10
(ics475_types
FeatureVector
p5183
(dp5184
g13
(dp5185
I8
F1.0
sI1
F-0.743347
sI2
F0.402477
sI3
F-0.425817
sI4
F0.085297
ssbsg15
g0
(g16
g2
Ntp5186
Rp5187
(dp5188
g20
I1
sbsba(ics475_types
Instance
p5189
(dp5190
g10
(ics475_types
FeatureVector
p5191
(dp5192
g13
(dp5193
I1
F0.135565
sI2
F-0.821374
sI3
F0.176816
sI4
F1.126982
sI9
F1.0
ssbsg15
g0
(g16
g2
Ntp5194
Rp5195
(dp5196
g20
I1
sbsba(ics475_types
Instance
p5197
(dp5198
g10
(ics475_types
FeatureVector
p5199
(dp5200
g13
(dp5201
I1
F-0.306129
sI2
F-0.504231
sI3
F-0.098765
sI4
F0.177297
sI10
F1.0
ssbsg15
g0
(g16
g2
Ntp5202
Rp5203
(dp5204
g20
I1
sbsba(ics475_types
Instance
p5205
(dp5206
g10
(ics475_types
FeatureVector
p5207
(dp5208
g13
(dp5209
I1
F-0.055846
sI2
F-0.32789
sI3
F1.462642
sI4
F0.390861
sI7
F1.0
ssbsg15
g0
(g16
g2
Ntp5210
Rp5211
(dp5212
g20
I0
sbsba(ics475_types
Instance
p5213
(dp5214
g10
(ics475_types
FeatureVector
p5215
(dp5216
g13
(dp5217
I1
F0.234301
sI2
F0.843986
sI3
F1.240958
sI4
F0.074114
sI7
F1.0
ssbsg15
g0
(g16
g2
Ntp5218
Rp5219
(dp5220
g20
I0
sbsba(ics475_types
Instance
p5221
(dp5222
g10
(ics475_types
FeatureVector
p5223
(dp5224
g13
(dp5225
I1
F0.154901
sI2
F-0.007715
sI3
F0.756543
sI4
F-0.000724
sI9
F1.0
ssbsg15
g0
(g16
g2
Ntp5226
Rp5227
(dp5228
g20
I1
sbsba(ics475_types
Instance
p5229
(dp5230
g10
(ics475_types
FeatureVector
p5231
(dp5232
g13
(dp5233
I8
F1.0
sI1
F-0.287384
sI2
F-0.008503
sI3
F-1.213315
sI4
F0.409947
ssbsg15
g0
(g16
g2
Ntp5234
Rp5235
(dp5236
g20
I1
sbsba(ics475_types
Instance
p5237
(dp5238
g10
(ics475_types
FeatureVector
p5239
(dp5240
g13
(dp5241
I8
F1.0
sI1
F-1.112628
sI2
F0.07934
sI3
F0.793742
sI4
F0.708611
ssbsg15
g0
(g16
g2
Ntp5242
Rp5243
(dp5244
g20
I1
sbsba(ics475_types
Instance
p5245
(dp5246
g10
(ics475_types
FeatureVector
p5247
(dp5248
g13
(dp5249
I1
F0.016947
sI2
F0.382262
sI3
F-1.024046
sI4
F-0.250451
sI9
F1.0
ssbsg15
g0
(g16
g2
Ntp5250
Rp5251
(dp5252
g20
I1
sbsba(ics475_types
Instance
p5253
(dp5254
g10
(ics475_types
FeatureVector
p5255
(dp5256
g13
(dp5257
I8
F1.0
sI1
F0.337056
sI2
F0.475898
sI3
F0.289671
sI4
F-0.661999
ssbsg15
g0
(g16
g2
Ntp5258
Rp5259
(dp5260
g20
I1
sbsba(ics475_types
Instance
p5261
(dp5262
g10
(ics475_types
FeatureVector
p5263
(dp5264
g13
(dp5265
I1
F-0.528382
sI2
F-1.921228
sI3
F-0.513302
sI4
F-1.864801
sI7
F1.0
ssbsg15
g0
(g16
g2
Ntp5266
Rp5267
(dp5268
g20
I0
sbsba(ics475_types
Instance
p5269
(dp5270
g10
(ics475_types
FeatureVector
p5271
(dp5272
g13
(dp5273
I1
F0.69719
sI2
F-0.97807
sI3
F1.297568
sI4
F0.199048
sI5
F1.0
ssbsg15
g0
(g16
g2
Ntp5274
Rp5275
(dp5276
g20
I0
sbsba(ics475_types
Instance
p5277
(dp5278
g10
(ics475_types
FeatureVector
p5279
(dp5280
g13
(dp5281
I1
F-2.306972
sI2
F1.856138
sI3
F-0.512258
sI4
F-0.654794
sI10
F1.0
ssbsg15
g0
(g16
g2
Ntp5282
Rp5283
(dp5284
g20
I1
sbsba(ics475_types
Instance
p5285
(dp5286
g10
(ics475_types
FeatureVector
p5287
(dp5288
g13
(dp5289
I1
F-0.660529
sI2
F-0.392701
sI3
F0.156046
sI4
F-1.911124
sI9
F1.0
ssbsg15
g0
(g16
g2
Ntp5290
Rp5291
(dp5292
g20
I1
sbsba(ics475_types
Instance
p5293
(dp5294
g10
(ics475_types
FeatureVector
p5295
(dp5296
g13
(dp5297
I1
F1.248572
sI2
F1.519321
sI3
F1.510103
sI4
F0.043113
sI9
F1.0
ssbsg15
g0
(g16
g2
Ntp5298
Rp5299
(dp5300
g20
I1
sbsba(ics475_types
Instance
p5301
(dp5302
g10
(ics475_types
FeatureVector
p5303
(dp5304
g13
(dp5305
I1
F0.962707
sI2
F0.299655
sI3
F0.391236
sI4
F0.018813
sI10
F1.0
ssbsg15
g0
(g16
g2
Ntp5306
Rp5307
(dp5308
g20
I1
sbsba(ics475_types
Instance
p5309
(dp5310
g10
(ics475_types
FeatureVector
p5311
(dp5312
g13
(dp5313
I1
F0.713567
sI2
F1.273374
sI3
F-1.040064
sI4
F1.95457
sI10
F1.0
ssbsg15
g0
(g16
g2
Ntp5314
Rp5315
(dp5316
g20
I1
sbsba(ics475_types
Instance
p5317
(dp5318
g10
(ics475_types
FeatureVector
p5319
(dp5320
g13
(dp5321
I1
F0.626845
sI2
F-0.539364
sI3
F-0.502242
sI4
F0.818424
sI9
F1.0
ssbsg15
g0
(g16
g2
Ntp5322
Rp5323
(dp5324
g20
I1
sbsba(ics475_types
Instance
p5325
(dp5326
g10
(ics475_types
FeatureVector
p5327
(dp5328
g13
(dp5329
I1
F0.301287
sI2
F-0.432423
sI3
F-0.174212
sI4
F-0.788984
sI5
F1.0
ssbsg15
g0
(g16
g2
Ntp5330
Rp5331
(dp5332
g20
I0
sbsba(ics475_types
Instance
p5333
(dp5334
g10
(ics475_types
FeatureVector
p5335
(dp5336
g13
(dp5337
I1
F-1.647405
sI2
F-0.010795
sI3
F-2.083803
sI4
F-0.287572
sI6
F1.0
ssbsg15
g0
(g16
g2
Ntp5338
Rp5339
(dp5340
g20
I0
sbsba(ics475_types
Instance
p5341
(dp5342
g10
(ics475_types
FeatureVector
p5343
(dp5344
g13
(dp5345
I1
F0.31653
sI2
F1.140352
sI3
F-0.996014
sI4
F-0.909948
sI7
F1.0
ssbsg15
g0
(g16
g2
Ntp5346
Rp5347
(dp5348
g20
I0
sbsba(ics475_types
Instance
p5349
(dp5350
g10
(ics475_types
FeatureVector
p5351
(dp5352
g13
(dp5353
I1
F-0.606217
sI2
F-2.067434
sI3
F-2.243257
sI4
F-0.095158
sI7
F1.0
ssbsg15
g0
(g16
g2
Ntp5354
Rp5355
(dp5356
g20
I0
sbsba(ics475_types
Instance
p5357
(dp5358
g10
(ics475_types
FeatureVector
p5359
(dp5360
g13
(dp5361
I1
F0.131398
sI2
F0.251834
sI3
F1.107887
sI4
F-1.669491
sI6
F1.0
ssbsg15
g0
(g16
g2
Ntp5362
Rp5363
(dp5364
g20
I0
sbsba(ics475_types
Instance
p5365
(dp5366
g10
(ics475_types
FeatureVector
p5367
(dp5368
g13
(dp5369
I1
F1.305222
sI2
F-0.829313
sI3
F-0.119297
sI4
F-0.219061
sI7
F1.0
ssbsg15
g0
(g16
g2
Ntp5370
Rp5371
(dp5372
g20
I0
sbsba(ics475_types
Instance
p5373
(dp5374
g10
(ics475_types
FeatureVector
p5375
(dp5376
g13
(dp5377
I1
F-0.714316
sI2
F0.084092
sI3
F0.116897
sI4
F0.792411
sI9
F1.0
ssbsg15
g0
(g16
g2
Ntp5378
Rp5379
(dp5380
g20
I1
sbsba(ics475_types
Instance
p5381
(dp5382
g10
(ics475_types
FeatureVector
p5383
(dp5384
g13
(dp5385
I1
F-0.879348
sI2
F0.979329
sI3
F-0.858871
sI4
F1.275881
sI5
F1.0
ssbsg15
g0
(g16
g2
Ntp5386
Rp5387
(dp5388
g20
I0
sbsba(ics475_types
Instance
p5389
(dp5390
g10
(ics475_types
FeatureVector
p5391
(dp5392
g13
(dp5393
I1
F-0.306518
sI2
F0.993731
sI3
F0.328526
sI4
F-0.365527
sI6
F1.0
ssbsg15
g0
(g16
g2
Ntp5394
Rp5395
(dp5396
g20
I0
sbsba(ics475_types
Instance
p5397
(dp5398
g10
(ics475_types
FeatureVector
p5399
(dp5400
g13
(dp5401
I1
F-0.120122
sI2
F0.729368
sI3
F-0.976942
sI4
F0.706264
sI9
F1.0
ssbsg15
g0
(g16
g2
Ntp5402
Rp5403
(dp5404
g20
I1
sbsba(ics475_types
Instance
p5405
(dp5406
g10
(ics475_types
FeatureVector
p5407
(dp5408
g13
(dp5409
I8
F1.0
sI1
F-0.40674
sI2
F0.142586
sI3
F0.368171
sI4
F-0.465043
ssbsg15
g0
(g16
g2
Ntp5410
Rp5411
(dp5412
g20
I1
sbsba(ics475_types
Instance
p5413
(dp5414
g10
(ics475_types
FeatureVector
p5415
(dp5416
g13
(dp5417
I1
F-0.834292
sI2
F-0.08505
sI3
F0.685159
sI4
F0.68822
sI6
F1.0
ssbsg15
g0
(g16
g2
Ntp5418
Rp5419
(dp5420
g20
I0
sbsba(ics475_types
Instance
p5421
(dp5422
g10
(ics475_types
FeatureVector
p5423
(dp5424
g13
(dp5425
I8
F1.0
sI1
F0.024004
sI2
F-0.086942
sI3
F-0.188613
sI4
F-0.948658
ssbsg15
g0
(g16
g2
Ntp5426
Rp5427
(dp5428
g20
I1
sbsba(ics475_types
Instance
p5429
(dp5430
g10
(ics475_types
FeatureVector
p5431
(dp5432
g13
(dp5433
I1
F0.878704
sI2
F0.755097
sI3
F0.712313
sI4
F1.899099
sI9
F1.0
ssbsg15
g0
(g16
g2
Ntp5434
Rp5435
(dp5436
g20
I1
sbsba(ics475_types
Instance
p5437
(dp5438
g10
(ics475_types
FeatureVector
p5439
(dp5440
g13
(dp5441
I1
F1.204837
sI2
F-1.809088
sI3
F0.191045
sI4
F-0.272655
sI7
F1.0
ssbsg15
g0
(g16
g2
Ntp5442
Rp5443
(dp5444
g20
I0
sbsba(ics475_types
Instance
p5445
(dp5446
g10
(ics475_types
FeatureVector
p5447
(dp5448
g13
(dp5449
I1
F0.036726
sI2
F0.392212
sI3
F0.85625
sI4
F0.189695
sI5
F1.0
ssbsg15
g0
(g16
g2
Ntp5450
Rp5451
(dp5452
g20
I0
sbsba(ics475_types
Instance
p5453
(dp5454
g10
(ics475_types
FeatureVector
p5455
(dp5456
g13
(dp5457
I1
F-0.559625
sI2
F-0.327563
sI3
F-0.358884
sI4
F1.798496
sI6
F1.0
ssbsg15
g0
(g16
g2
Ntp5458
Rp5459
(dp5460
g20
I0
sbsba(ics475_types
Instance
p5461
(dp5462
g10
(ics475_types
FeatureVector
p5463
(dp5464
g13
(dp5465
I8
F1.0
sI1
F0.449171
sI2
F0.890911
sI3
F-0.878626
sI4
F0.618358
ssbsg15
g0
(g16
g2
Ntp5466
Rp5467
(dp5468
g20
I1
sbsba(ics475_types
Instance
p5469
(dp5470
g10
(ics475_types
FeatureVector
p5471
(dp5472
g13
(dp5473
I1
F0.294722
sI2
F-0.606198
sI3
F0.468306
sI4
F-0.553767
sI5
F1.0
ssbsg15
g0
(g16
g2
Ntp5474
Rp5475
(dp5476
g20
I0
sbsba(ics475_types
Instance
p5477
(dp5478
g10
(ics475_types
FeatureVector
p5479
(dp5480
g13
(dp5481
I8
F1.0
sI1
F-0.39946
sI2
F-0.50548
sI3
F-0.714531
sI4
F0.516479
ssbsg15
g0
(g16
g2
Ntp5482
Rp5483
(dp5484
g20
I1
sbsba(ics475_types
Instance
p5485
(dp5486
g10
(ics475_types
FeatureVector
p5487
(dp5488
g13
(dp5489
I1
F-0.225528
sI2
F-0.489269
sI3
F1.075687
sI4
F-1.143213
sI9
F1.0
ssbsg15
g0
(g16
g2
Ntp5490
Rp5491
(dp5492
g20
I1
sbsba(ics475_types
Instance
p5493
(dp5494
g10
(ics475_types
FeatureVector
p5495
(dp5496
g13
(dp5497
I1
F0.108084
sI2
F-0.648355
sI3
F0.718842
sI4
F1.842392
sI9
F1.0
ssbsg15
g0
(g16
g2
Ntp5498
Rp5499
(dp5500
g20
I1
sbsba(ics475_types
Instance
p5501
(dp5502
g10
(ics475_types
FeatureVector
p5503
(dp5504
g13
(dp5505
I1
F-0.115111
sI2
F0.761733
sI3
F-2.257093
sI4
F-0.956832
sI5
F1.0
ssbsg15
g0
(g16
g2
Ntp5506
Rp5507
(dp5508
g20
I0
sbsba(ics475_types
Instance
p5509
(dp5510
g10
(ics475_types
FeatureVector
p5511
(dp5512
g13
(dp5513
I1
F1.136777
sI2
F-0.16533
sI3
F-0.265256
sI4
F0.123462
sI10
F1.0
ssbsg15
g0
(g16
g2
Ntp5514
Rp5515
(dp5516
g20
I1
sbsba(ics475_types
Instance
p5517
(dp5518
g10
(ics475_types
FeatureVector
p5519
(dp5520
g13
(dp5521
I1
F-0.457042
sI2
F-0.478152
sI3
F0.253704
sI4
F0.826916
sI7
F1.0
ssbsg15
g0
(g16
g2
Ntp5522
Rp5523
(dp5524
g20
I0
sbsba(ics475_types
Instance
p5525
(dp5526
g10
(ics475_types
FeatureVector
p5527
(dp5528
g13
(dp5529
I1
F-0.440767
sI2
F-0.798738
sI3
F-0.244168
sI4
F-0.506041
sI10
F1.0
ssbsg15
g0
(g16
g2
Ntp5530
Rp5531
(dp5532
g20
I1
sbsba(ics475_types
Instance
p5533
(dp5534
g10
(ics475_types
FeatureVector
p5535
(dp5536
g13
(dp5537
I1
F1.072579
sI2
F-1.177375
sI3
F-0.98827
sI4
F0.094959
sI7
F1.0
ssbsg15
g0
(g16
g2
Ntp5538
Rp5539
(dp5540
g20
I0
sbsba(ics475_types
Instance
p5541
(dp5542
g10
(ics475_types
FeatureVector
p5543
(dp5544
g13
(dp5545
I1
F0.197023
sI2
F0.464776
sI3
F-1.166839
sI4
F-1.777512
sI6
F1.0
ssbsg15
g0
(g16
g2
Ntp5546
Rp5547
(dp5548
g20
I0
sbsba(ics475_types
Instance
p5549
(dp5550
g10
(ics475_types
FeatureVector
p5551
(dp5552
g13
(dp5553
I1
F-0.846725
sI2
F1.563251
sI3
F0.97233
sI4
F0.5102
sI7
F1.0
ssbsg15
g0
(g16
g2
Ntp5554
Rp5555
(dp5556
g20
I0
sbsba(ics475_types
Instance
p5557
(dp5558
g10
(ics475_types
FeatureVector
p5559
(dp5560
g13
(dp5561
I1
F0.321478
sI2
F-0.562936
sI3
F-1.295334
sI4
F2.423579
sI9
F1.0
ssbsg15
g0
(g16
g2
Ntp5562
Rp5563
(dp5564
g20
I1
sbsba(ics475_types
Instance
p5565
(dp5566
g10
(ics475_types
FeatureVector
p5567
(dp5568
g13
(dp5569
I1
F0.014548
sI2
F-0.365754
sI3
F-1.46238
sI4
F0.651667
sI9
F1.0
ssbsg15
g0
(g16
g2
Ntp5570
Rp5571
(dp5572
g20
I1
sbsba(ics475_types
Instance
p5573
(dp5574
g10
(ics475_types
FeatureVector
p5575
(dp5576
g13
(dp5577
I1
F0.542754
sI2
F-1.580056
sI3
F-2.257778
sI4
F-0.165425
sI9
F1.0
ssbsg15
g0
(g16
g2
Ntp5578
Rp5579
(dp5580
g20
I1
sbsba(ics475_types
Instance
p5581
(dp5582
g10
(ics475_types
FeatureVector
p5583
(dp5584
g13
(dp5585
I1
F-0.785252
sI2
F1.420704
sI3
F0.283317
sI4
F-0.555442
sI5
F1.0
ssbsg15
g0
(g16
g2
Ntp5586
Rp5587
(dp5588
g20
I0
sbsba(ics475_types
Instance
p5589
(dp5590
g10
(ics475_types
FeatureVector
p5591
(dp5592
g13
(dp5593
I1
F-0.104222
sI2
F0.005065
sI3
F0.99482
sI4
F-1.511918
sI6
F1.0
ssbsg15
g0
(g16
g2
Ntp5594
Rp5595
(dp5596
g20
I0
sbsba(ics475_types
Instance
p5597
(dp5598
g10
(ics475_types
FeatureVector
p5599
(dp5600
g13
(dp5601
I8
F1.0
sI1
F1.405689
sI2
F-1.197993
sI3
F1.307562
sI4
F0.203258
ssbsg15
g0
(g16
g2
Ntp5602
Rp5603
(dp5604
g20
I1
sbsba(ics475_types
Instance
p5605
(dp5606
g10
(ics475_types
FeatureVector
p5607
(dp5608
g13
(dp5609
I8
F1.0
sI1
F0.313665
sI2
F1.519812
sI3
F-0.22837
sI4
F1.848377
ssbsg15
g0
(g16
g2
Ntp5610
Rp5611
(dp5612
g20
I1
sbsba(ics475_types
Instance
p5613
(dp5614
g10
(ics475_types
FeatureVector
p5615
(dp5616
g13
(dp5617
I1
F-0.698881
sI2
F-0.469412
sI3
F0.357417
sI4
F-0.548438
sI5
F1.0
ssbsg15
g0
(g16
g2
Ntp5618
Rp5619
(dp5620
g20
I0
sbsba(ics475_types
Instance
p5621
(dp5622
g10
(ics475_types
FeatureVector
p5623
(dp5624
g13
(dp5625
I1
F-0.628757
sI2
F-0.817742
sI3
F-0.508721
sI4
F1.030159
sI5
F1.0
ssbsg15
g0
(g16
g2
Ntp5626
Rp5627
(dp5628
g20
I0
sbsba(ics475_types
Instance
p5629
(dp5630
g10
(ics475_types
FeatureVector
p5631
(dp5632
g13
(dp5633
I8
F1.0
sI1
F0.61057
sI2
F0.357435
sI3
F-0.404183
sI4
F-0.852576
ssbsg15
g0
(g16
g2
Ntp5634
Rp5635
(dp5636
g20
I1
sbsba(ics475_types
Instance
p5637
(dp5638
g10
(ics475_types
FeatureVector
p5639
(dp5640
g13
(dp5641
I1
F-0.977895
sI2
F-1.230815
sI3
F0.586433
sI4
F-1.364126
sI6
F1.0
ssbsg15
g0
(g16
g2
Ntp5642
Rp5643
(dp5644
g20
I0
sbsba(ics475_types
Instance
p5645
(dp5646
g10
(ics475_types
FeatureVector
p5647
(dp5648
g13
(dp5649
I1
F0.517911
sI2
F-1.324098
sI3
F-2.638273
sI4
F-0.779086
sI7
F1.0
ssbsg15
g0
(g16
g2
Ntp5650
Rp5651
(dp5652
g20
I0
sbsba(ics475_types
Instance
p5653
(dp5654
g10
(ics475_types
FeatureVector
p5655
(dp5656
g13
(dp5657
I1
F-0.157139
sI2
F-0.29651
sI3
F0.42164
sI4
F-0.114994
sI7
F1.0
ssbsg15
g0
(g16
g2
Ntp5658
Rp5659
(dp5660
g20
I0
sbsba(ics475_types
Instance
p5661
(dp5662
g10
(ics475_types
FeatureVector
p5663
(dp5664
g13
(dp5665
I8
F1.0
sI1
F-0.194456
sI2
F2.539667
sI3
F-1.244197
sI4
F-0.586367
ssbsg15
g0
(g16
g2
Ntp5666
Rp5667
(dp5668
g20
I1
sbsba(ics475_types
Instance
p5669
(dp5670
g10
(ics475_types
FeatureVector
p5671
(dp5672
g13
(dp5673
I1
F0.672271
sI2
F0.797382
sI3
F-1.121828
sI4
F-0.978849
sI10
F1.0
ssbsg15
g0
(g16
g2
Ntp5674
Rp5675
(dp5676
g20
I1
sbsba(ics475_types
Instance
p5677
(dp5678
g10
(ics475_types
FeatureVector
p5679
(dp5680
g13
(dp5681
I1
F1.560877
sI2
F-1.169031
sI3
F2.623063
sI4
F-0.149528
sI7
F1.0
ssbsg15
g0
(g16
g2
Ntp5682
Rp5683
(dp5684
g20
I0
sbsba(ics475_types
Instance
p5685
(dp5686
g10
(ics475_types
FeatureVector
p5687
(dp5688
g13
(dp5689
I1
F0.714122
sI2
F-2.625057
sI3
F2.108806
sI4
F0.825838
sI5
F1.0
ssbsg15
g0
(g16
g2
Ntp5690
Rp5691
(dp5692
g20
I0
sbsba(ics475_types
Instance
p5693
(dp5694
g10
(ics475_types
FeatureVector
p5695
(dp5696
g13
(dp5697
I1
F-0.917166
sI2
F-1.368169
sI3
F2.186413
sI4
F0.317125
sI10
F1.0
ssbsg15
g0
(g16
g2
Ntp5698
Rp5699
(dp5700
g20
I1
sbsba(ics475_types
Instance
p5701
(dp5702
g10
(ics475_types
FeatureVector
p5703
(dp5704
g13
(dp5705
I1
F-1.138387
sI2
F-2.878258
sI3
F0.382929
sI4
F0.126262
sI10
F1.0
ssbsg15
g0
(g16
g2
Ntp5706
Rp5707
(dp5708
g20
I1
sbsba(ics475_types
Instance
p5709
(dp5710
g10
(ics475_types
FeatureVector
p5711
(dp5712
g13
(dp5713
I1
F0.946889
sI2
F1.706731
sI3
F-1.574707
sI4
F1.700857
sI9
F1.0
ssbsg15
g0
(g16
g2
Ntp5714
Rp5715
(dp5716
g20
I1
sbsba(ics475_types
Instance
p5717
(dp5718
g10
(ics475_types
FeatureVector
p5719
(dp5720
g13
(dp5721
I1
F1.23444
sI2
F0.28141
sI3
F-0.545591
sI4
F-0.35701
sI7
F1.0
ssbsg15
g0
(g16
g2
Ntp5722
Rp5723
(dp5724
g20
I0
sbsba(ics475_types
Instance
p5725
(dp5726
g10
(ics475_types
FeatureVector
p5727
(dp5728
g13
(dp5729
I1
F0.822896
sI2
F-0.529204
sI3
F-1.780886
sI4
F-0.616537
sI7
F1.0
ssbsg15
g0
(g16
g2
Ntp5730
Rp5731
(dp5732
g20
I0
sbsba(ics475_types
Instance
p5733
(dp5734
g10
(ics475_types
FeatureVector
p5735
(dp5736
g13
(dp5737
I1
F-0.41629
sI2
F3.345535
sI3
F-0.079565
sI4
F1.517511
sI5
F1.0
ssbsg15
g0
(g16
g2
Ntp5738
Rp5739
(dp5740
g20
I0
sbsba(ics475_types
Instance
p5741
(dp5742
g10
(ics475_types
FeatureVector
p5743
(dp5744
g13
(dp5745
I1
F1.682503
sI2
F1.196108
sI3
F0.03435
sI4
F-1.254193
sI9
F1.0
ssbsg15
g0
(g16
g2
Ntp5746
Rp5747
(dp5748
g20
I1
sbsba(ics475_types
Instance
p5749
(dp5750
g10
(ics475_types
FeatureVector
p5751
(dp5752
g13
(dp5753
I1
F0.260811
sI2
F0.74149
sI3
F-0.712393
sI4
F0.202765
sI6
F1.0
ssbsg15
g0
(g16
g2
Ntp5754
Rp5755
(dp5756
g20
I0
sbsba(ics475_types
Instance
p5757
(dp5758
g10
(ics475_types
FeatureVector
p5759
(dp5760
g13
(dp5761
I8
F1.0
sI1
F-0.210397
sI2
F1.591334
sI3
F-0.416377
sI4
F0.868799
ssbsg15
g0
(g16
g2
Ntp5762
Rp5763
(dp5764
g20
I1
sbsba(ics475_types
Instance
p5765
(dp5766
g10
(ics475_types
FeatureVector
p5767
(dp5768
g13
(dp5769
I1
F2.577098
sI2
F0.79161
sI3
F0.493651
sI4
F0.763553
sI7
F1.0
ssbsg15
g0
(g16
g2
Ntp5770
Rp5771
(dp5772
g20
I0
sbsba(ics475_types
Instance
p5773
(dp5774
g10
(ics475_types
FeatureVector
p5775
(dp5776
g13
(dp5777
I1
F0.578134
sI2
F-0.507091
sI3
F0.774404
sI4
F-0.921824
sI7
F1.0
ssbsg15
g0
(g16
g2
Ntp5778
Rp5779
(dp5780
g20
I0
sbsba(ics475_types
Instance
p5781
(dp5782
g10
(ics475_types
FeatureVector
p5783
(dp5784
g13
(dp5785
I1
F-0.354447
sI2
F0.09966
sI3
F0.499866
sI4
F0.301284
sI7
F1.0
ssbsg15
g0
(g16
g2
Ntp5786
Rp5787
(dp5788
g20
I0
sbsba(ics475_types
Instance
p5789
(dp5790
g10
(ics475_types
FeatureVector
p5791
(dp5792
g13
(dp5793
I1
F1.249255
sI2
F1.38103
sI3
F1.791626
sI4
F-0.528259
sI6
F1.0
ssbsg15
g0
(g16
g2
Ntp5794
Rp5795
(dp5796
g20
I0
sbsba(ics475_types
Instance
p5797
(dp5798
g10
(ics475_types
FeatureVector
p5799
(dp5800
g13
(dp5801
I1
F-0.943014
sI2
F1.104956
sI3
F-0.110804
sI4
F0.769944
sI6
F1.0
ssbsg15
g0
(g16
g2
Ntp5802
Rp5803
(dp5804
g20
I0
sbsba(ics475_types
Instance
p5805
(dp5806
g10
(ics475_types
FeatureVector
p5807
(dp5808
g13
(dp5809
I1
F1.380188
sI2
F-0.884449
sI3
F0.033247
sI4
F1.626612
sI7
F1.0
ssbsg15
g0
(g16
g2
Ntp5810
Rp5811
(dp5812
g20
I0
sbsba(ics475_types
Instance
p5813
(dp5814
g10
(ics475_types
FeatureVector
p5815
(dp5816
g13
(dp5817
I1
F-0.169925
sI2
F3.770401
sI3
F0.270147
sI4
F0.915
sI7
F1.0
ssbsg15
g0
(g16
g2
Ntp5818
Rp5819
(dp5820
g20
I0
sbsba(ics475_types
Instance
p5821
(dp5822
g10
(ics475_types
FeatureVector
p5823
(dp5824
g13
(dp5825
I8
F1.0
sI1
F0.716376
sI2
F-0.009901
sI3
F-1.833668
sI4
F-0.026731
ssbsg15
g0
(g16
g2
Ntp5826
Rp5827
(dp5828
g20
I1
sbsba(ics475_types
Instance
p5829
(dp5830
g10
(ics475_types
FeatureVector
p5831
(dp5832
g13
(dp5833
I1
F1.02208
sI2
F-0.844832
sI3
F0.621647
sI4
F1.770263
sI5
F1.0
ssbsg15
g0
(g16
g2
Ntp5834
Rp5835
(dp5836
g20
I0
sbsba(ics475_types
Instance
p5837
(dp5838
g10
(ics475_types
FeatureVector
p5839
(dp5840
g13
(dp5841
I1
F1.628694
sI2
F1.772595
sI3
F-0.239292
sI4
F1.598837
sI6
F1.0
ssbsg15
g0
(g16
g2
Ntp5842
Rp5843
(dp5844
g20
I0
sbsba(ics475_types
Instance
p5845
(dp5846
g10
(ics475_types
FeatureVector
p5847
(dp5848
g13
(dp5849
I1
F-0.741642
sI2
F-1.333849
sI3
F-0.675291
sI4
F0.418752
sI6
F1.0
ssbsg15
g0
(g16
g2
Ntp5850
Rp5851
(dp5852
g20
I0
sbsba(ics475_types
Instance
p5853
(dp5854
g10
(ics475_types
FeatureVector
p5855
(dp5856
g13
(dp5857
I1
F1.69217
sI2
F0.299409
sI3
F1.148188
sI4
F1.819693
sI9
F1.0
ssbsg15
g0
(g16
g2
Ntp5858
Rp5859
(dp5860
g20
I1
sbsba(ics475_types
Instance
p5861
(dp5862
g10
(ics475_types
FeatureVector
p5863
(dp5864
g13
(dp5865
I1
F0.94133
sI2
F-0.18494
sI3
F0.628422
sI4
F-0.212919
sI9
F1.0
ssbsg15
g0
(g16
g2
Ntp5866
Rp5867
(dp5868
g20
I1
sbsba(ics475_types
Instance
p5869
(dp5870
g10
(ics475_types
FeatureVector
p5871
(dp5872
g13
(dp5873
I8
F1.0
sI1
F-0.405091
sI2
F0.799985
sI3
F-0.055967
sI4
F2.526421
ssbsg15
g0
(g16
g2
Ntp5874
Rp5875
(dp5876
g20
I1
sbsba(ics475_types
Instance
p5877
(dp5878
g10
(ics475_types
FeatureVector
p5879
(dp5880
g13
(dp5881
I8
F1.0
sI1
F1.16446
sI2
F0.829378
sI3
F0.93846
sI4
F-0.773498
ssbsg15
g0
(g16
g2
Ntp5882
Rp5883
(dp5884
g20
I1
sbsba(ics475_types
Instance
p5885
(dp5886
g10
(ics475_types
FeatureVector
p5887
(dp5888
g13
(dp5889
I1
F-0.42515
sI2
F-0.231974
sI3
F0.92202
sI4
F0.934717
sI5
F1.0
ssbsg15
g0
(g16
g2
Ntp5890
Rp5891
(dp5892
g20
I0
sbsba(ics475_types
Instance
p5893
(dp5894
g10
(ics475_types
FeatureVector
p5895
(dp5896
g13
(dp5897
I1
F-2.164514
sI2
F-0.271614
sI3
F2.20862
sI4
F1.295096
sI9
F1.0
ssbsg15
g0
(g16
g2
Ntp5898
Rp5899
(dp5900
g20
I1
sbsba(ics475_types
Instance
p5901
(dp5902
g10
(ics475_types
FeatureVector
p5903
(dp5904
g13
(dp5905
I8
F1.0
sI1
F0.0063
sI2
F-0.554609
sI3
F-0.486157
sI4
F1.434653
ssbsg15
g0
(g16
g2
Ntp5906
Rp5907
(dp5908
g20
I1
sbsba(ics475_types
Instance
p5909
(dp5910
g10
(ics475_types
FeatureVector
p5911
(dp5912
g13
(dp5913
I1
F0.588062
sI2
F-0.492361
sI3
F1.371995
sI4
F0.549475
sI6
F1.0
ssbsg15
g0
(g16
g2
Ntp5914
Rp5915
(dp5916
g20
I0
sbsba(ics475_types
Instance
p5917
(dp5918
g10
(ics475_types
FeatureVector
p5919
(dp5920
g13
(dp5921
I1
F1.604689
sI2
F0.932837
sI3
F-0.415219
sI4
F0.536494
sI5
F1.0
ssbsg15
g0
(g16
g2
Ntp5922
Rp5923
(dp5924
g20
I0
sbsba(ics475_types
Instance
p5925
(dp5926
g10
(ics475_types
FeatureVector
p5927
(dp5928
g13
(dp5929
I8
F1.0
sI1
F0.972907
sI2
F-0.013847
sI3
F0.533359
sI4
F1.361687
ssbsg15
g0
(g16
g2
Ntp5930
Rp5931
(dp5932
g20
I1
sbsba(ics475_types
Instance
p5933
(dp5934
g10
(ics475_types
FeatureVector
p5935
(dp5936
g13
(dp5937
I1
F1.283399
sI2
F-1.553984
sI3
F0.462525
sI4
F-2.192236
sI9
F1.0
ssbsg15
g0
(g16
g2
Ntp5938
Rp5939
(dp5940
g20
I1
sbsba(ics475_types
Instance
p5941
(dp5942
g10
(ics475_types
FeatureVector
p5943
(dp5944
g13
(dp5945
I8
F1.0
sI1
F-1.360483
sI2
F-0.821102
sI3
F-2.483708
sI4
F0.356854
ssbsg15
g0
(g16
g2
Ntp5946
Rp5947
(dp5948
g20
I1
sbsba(ics475_types
Instance
p5949
(dp5950
g10
(ics475_types
FeatureVector
p5951
(dp5952
g13
(dp5953
I1
F0.337126
sI2
F0.353124
sI3
F-1.015305
sI4
F-0.064523
sI5
F1.0
ssbsg15
g0
(g16
g2
Ntp5954
Rp5955
(dp5956
g20
I0
sbsba(ics475_types
Instance
p5957
(dp5958
g10
(ics475_types
FeatureVector
p5959
(dp5960
g13
(dp5961
I1
F0.14839
sI2
F-2.787906
sI3
F1.999386
sI4
F-0.877623
sI6
F1.0
ssbsg15
g0
(g16
g2
Ntp5962
Rp5963
(dp5964
g20
I0
sbsba(ics475_types
Instance
p5965
(dp5966
g10
(ics475_types
FeatureVector
p5967
(dp5968
g13
(dp5969
I1
F-0.407494
sI2
F-1.065345
sI3
F-0.148309
sI4
F0.963785
sI6
F1.0
ssbsg15
g0
(g16
g2
Ntp5970
Rp5971
(dp5972
g20
I0
sbsba(ics475_types
Instance
p5973
(dp5974
g10
(ics475_types
FeatureVector
p5975
(dp5976
g13
(dp5977
I8
F1.0
sI1
F0.04694
sI2
F-0.079466
sI3
F0.519738
sI4
F-1.288284
ssbsg15
g0
(g16
g2
Ntp5978
Rp5979
(dp5980
g20
I1
sbsba(ics475_types
Instance
p5981
(dp5982
g10
(ics475_types
FeatureVector
p5983
(dp5984
g13
(dp5985
I1
F-0.703285
sI2
F-0.934936
sI3
F-0.112053
sI4
F1.04448
sI6
F1.0
ssbsg15
g0
(g16
g2
Ntp5986
Rp5987
(dp5988
g20
I0
sbsba(ics475_types
Instance
p5989
(dp5990
g10
(ics475_types
FeatureVector
p5991
(dp5992
g13
(dp5993
I1
F1.012007
sI2
F1.201426
sI3
F-1.810577
sI4
F-0.670212
sI7
F1.0
ssbsg15
g0
(g16
g2
Ntp5994
Rp5995
(dp5996
g20
I0
sbsba(ics475_types
Instance
p5997
(dp5998
g10
(ics475_types
FeatureVector
p5999
(dp6000
g13
(dp6001
I1
F-1.364199
sI2
F0.054396
sI3
F-0.327045
sI4
F2.064138
sI5
F1.0
ssbsg15
g0
(g16
g2
Ntp6002
Rp6003
(dp6004
g20
I0
sbsba(ics475_types
Instance
p6005
(dp6006
g10
(ics475_types
FeatureVector
p6007
(dp6008
g13
(dp6009
I1
F0.447443
sI2
F0.565217
sI3
F0.835662
sI4
F0.084535
sI9
F1.0
ssbsg15
g0
(g16
g2
Ntp6010
Rp6011
(dp6012
g20
I1
sbsba(ics475_types
Instance
p6013
(dp6014
g10
(ics475_types
FeatureVector
p6015
(dp6016
g13
(dp6017
I1
F0.067826
sI2
F-0.861352
sI3
F1.159379
sI4
F-1.630244
sI7
F1.0
ssbsg15
g0
(g16
g2
Ntp6018
Rp6019
(dp6020
g20
I0
sbsba(ics475_types
Instance
p6021
(dp6022
g10
(ics475_types
FeatureVector
p6023
(dp6024
g13
(dp6025
I1
F0.510004
sI2
F0.856989
sI3
F-0.31827
sI4
F0.338321
sI7
F1.0
ssbsg15
g0
(g16
g2
Ntp6026
Rp6027
(dp6028
g20
I0
sbsba(ics475_types
Instance
p6029
(dp6030
g10
(ics475_types
FeatureVector
p6031
(dp6032
g13
(dp6033
I8
F1.0
sI1
F-1.403869
sI2
F0.135146
sI3
F-0.728152
sI4
F0.422243
ssbsg15
g0
(g16
g2
Ntp6034
Rp6035
(dp6036
g20
I1
sbsba(ics475_types
Instance
p6037
(dp6038
g10
(ics475_types
FeatureVector
p6039
(dp6040
g13
(dp6041
I1
F-1.212789
sI2
F-1.035413
sI3
F-0.349906
sI4
F0.39194
sI7
F1.0
ssbsg15
g0
(g16
g2
Ntp6042
Rp6043
(dp6044
g20
I0
sbsba(ics475_types
Instance
p6045
(dp6046
g10
(ics475_types
FeatureVector
p6047
(dp6048
g13
(dp6049
I1
F0.706918
sI2
F1.029577
sI3
F0.985369
sI4
F0.813646
sI7
F1.0
ssbsg15
g0
(g16
g2
Ntp6050
Rp6051
(dp6052
g20
I0
sbsba(ics475_types
Instance
p6053
(dp6054
g10
(ics475_types
FeatureVector
p6055
(dp6056
g13
(dp6057
I1
F-0.182663
sI2
F0.591325
sI3
F-0.355965
sI4
F0.289844
sI10
F1.0
ssbsg15
g0
(g16
g2
Ntp6058
Rp6059
(dp6060
g20
I1
sbsba(ics475_types
Instance
p6061
(dp6062
g10
(ics475_types
FeatureVector
p6063
(dp6064
g13
(dp6065
I1
F-0.442409
sI2
F0.770635
sI3
F-0.622708
sI4
F-0.307651
sI10
F1.0
ssbsg15
g0
(g16
g2
Ntp6066
Rp6067
(dp6068
g20
I1
sbsba(ics475_types
Instance
p6069
(dp6070
g10
(ics475_types
FeatureVector
p6071
(dp6072
g13
(dp6073
I1
F-0.675476
sI2
F1.020442
sI3
F2.019429
sI4
F0.627283
sI10
F1.0
ssbsg15
g0
(g16
g2
Ntp6074
Rp6075
(dp6076
g20
I1
sbsba(ics475_types
Instance
p6077
(dp6078
g10
(ics475_types
FeatureVector
p6079
(dp6080
g13
(dp6081
I1
F1.475281
sI2
F-0.431136
sI3
F1.985561
sI4
F0.762534
sI10
F1.0
ssbsg15
g0
(g16
g2
Ntp6082
Rp6083
(dp6084
g20
I1
sbsba(ics475_types
Instance
p6085
(dp6086
g10
(ics475_types
FeatureVector
p6087
(dp6088
g13
(dp6089
I1
F1.414656
sI2
F0.169847
sI3
F-0.292717
sI4
F1.183723
sI9
F1.0
ssbsg15
g0
(g16
g2
Ntp6090
Rp6091
(dp6092
g20
I1
sbsba(ics475_types
Instance
p6093
(dp6094
g10
(ics475_types
FeatureVector
p6095
(dp6096
g13
(dp6097
I8
F1.0
sI1
F0.334581
sI2
F-0.663928
sI3
F1.325387
sI4
F-1.815317
ssbsg15
g0
(g16
g2
Ntp6098
Rp6099
(dp6100
g20
I1
sbsba(ics475_types
Instance
p6101
(dp6102
g10
(ics475_types
FeatureVector
p6103
(dp6104
g13
(dp6105
I1
F-0.356251
sI2
F-0.754767
sI3
F-0.267057
sI4
F1.132254
sI5
F1.0
ssbsg15
g0
(g16
g2
Ntp6106
Rp6107
(dp6108
g20
I0
sbsba(ics475_types
Instance
p6109
(dp6110
g10
(ics475_types
FeatureVector
p6111
(dp6112
g13
(dp6113
I1
F-2.083454
sI2
F1.230721
sI3
F-1.642425
sI4
F1.479011
sI7
F1.0
ssbsg15
g0
(g16
g2
Ntp6114
Rp6115
(dp6116
g20
I0
sbsba(ics475_types
Instance
p6117
(dp6118
g10
(ics475_types
FeatureVector
p6119
(dp6120
g13
(dp6121
I1
F1.239117
sI2
F-0.45314
sI3
F-0.534477
sI4
F-0.31478
sI10
F1.0
ssbsg15
g0
(g16
g2
Ntp6122
Rp6123
(dp6124
g20
I1
sbsba(ics475_types
Instance
p6125
(dp6126
g10
(ics475_types
FeatureVector
p6127
(dp6128
g13
(dp6129
I1
F-2.256885
sI2
F0.329795
sI3
F-0.128847
sI4
F-0.183524
sI5
F1.0
ssbsg15
g0
(g16
g2
Ntp6130
Rp6131
(dp6132
g20
I0
sbsba(ics475_types
Instance
p6133
(dp6134
g10
(ics475_types
FeatureVector
p6135
(dp6136
g13
(dp6137
I1
F0.466629
sI2
F-1.542598
sI3
F-0.259531
sI4
F0.256397
sI10
F1.0
ssbsg15
g0
(g16
g2
Ntp6138
Rp6139
(dp6140
g20
I1
sbsba(ics475_types
Instance
p6141
(dp6142
g10
(ics475_types
FeatureVector
p6143
(dp6144
g13
(dp6145
I1
F0.613209
sI2
F1.601249
sI3
F1.367347
sI4
F-0.062748
sI5
F1.0
ssbsg15
g0
(g16
g2
Ntp6146
Rp6147
(dp6148
g20
I0
sbsba(ics475_types
Instance
p6149
(dp6150
g10
(ics475_types
FeatureVector
p6151
(dp6152
g13
(dp6153
I1
F-0.429855
sI2
F2.277637
sI3
F0.641658
sI4
F-0.818384
sI10
F1.0
ssbsg15
g0
(g16
g2
Ntp6154
Rp6155
(dp6156
g20
I1
sbsba(ics475_types
Instance
p6157
(dp6158
g10
(ics475_types
FeatureVector
p6159
(dp6160
g13
(dp6161
I8
F1.0
sI1
F0.3427
sI2
F-1.023988
sI3
F-0.536048
sI4
F0.946983
ssbsg15
g0
(g16
g2
Ntp6162
Rp6163
(dp6164
g20
I1
sbsba(ics475_types
Instance
p6165
(dp6166
g10
(ics475_types
FeatureVector
p6167
(dp6168
g13
(dp6169
I1
F1.181261
sI2
F0.986751
sI3
F0.893636
sI4
F0.994735
sI10
F1.0
ssbsg15
g0
(g16
g2
Ntp6170
Rp6171
(dp6172
g20
I1
sbsba(ics475_types
Instance
p6173
(dp6174
g10
(ics475_types
FeatureVector
p6175
(dp6176
g13
(dp6177
I1
F-2.175028
sI2
F-0.403748
sI3
F0.064987
sI4
F-0.159168
sI6
F1.0
ssbsg15
g0
(g16
g2
Ntp6178
Rp6179
(dp6180
g20
I0
sbsba(ics475_types
Instance
p6181
(dp6182
g10
(ics475_types
FeatureVector
p6183
(dp6184
g13
(dp6185
I1
F1.766061
sI2
F0.697618
sI3
F0.134404
sI4
F-0.05186
sI5
F1.0
ssbsg15
g0
(g16
g2
Ntp6186
Rp6187
(dp6188
g20
I0
sbsba(ics475_types
Instance
p6189
(dp6190
g10
(ics475_types
FeatureVector
p6191
(dp6192
g13
(dp6193
I1
F-0.046077
sI2
F-0.141092
sI3
F0.407623
sI4
F-0.339957
sI9
F1.0
ssbsg15
g0
(g16
g2
Ntp6194
Rp6195
(dp6196
g20
I1
sbsba(ics475_types
Instance
p6197
(dp6198
g10
(ics475_types
FeatureVector
p6199
(dp6200
g13
(dp6201
I1
F-0.100256
sI2
F0.475293
sI3
F-0.250147
sI4
F-0.922954
sI7
F1.0
ssbsg15
g0
(g16
g2
Ntp6202
Rp6203
(dp6204
g20
I0
sbsba(ics475_types
Instance
p6205
(dp6206
g10
(ics475_types
FeatureVector
p6207
(dp6208
g13
(dp6209
I8
F1.0
sI1
F-0.753832
sI2
F-1.616705
sI3
F-0.002873
sI4
F-1.933064
ssbsg15
g0
(g16
g2
Ntp6210
Rp6211
(dp6212
g20
I1
sbsba(ics475_types
Instance
p6213
(dp6214
g10
(ics475_types
FeatureVector
p6215
(dp6216
g13
(dp6217
I1
F-0.431013
sI2
F-2.178723
sI3
F0.464752
sI4
F-0.275947
sI7
F1.0
ssbsg15
g0
(g16
g2
Ntp6218
Rp6219
(dp6220
g20
I0
sbsba(ics475_types
Instance
p6221
(dp6222
g10
(ics475_types
FeatureVector
p6223
(dp6224
g13
(dp6225
I1
F0.254975
sI2
F0.241865
sI3
F-0.367937
sI4
F0.232541
sI5
F1.0
ssbsg15
g0
(g16
g2
Ntp6226
Rp6227
(dp6228
g20
I0
sbsba(ics475_types
Instance
p6229
(dp6230
g10
(ics475_types
FeatureVector
p6231
(dp6232
g13
(dp6233
I1
F0.610946
sI2
F0.073072
sI3
F-0.304683
sI4
F0.250382
sI10
F1.0
ssbsg15
g0
(g16
g2
Ntp6234
Rp6235
(dp6236
g20
I1
sbsba(ics475_types
Instance
p6237
(dp6238
g10
(ics475_types
FeatureVector
p6239
(dp6240
g13
(dp6241
I1
F0.065183
sI2
F0.097714
sI3
F0.394964
sI4
F0.81641
sI6
F1.0
ssbsg15
g0
(g16
g2
Ntp6242
Rp6243
(dp6244
g20
I0
sbsba(ics475_types
Instance
p6245
(dp6246
g10
(ics475_types
FeatureVector
p6247
(dp6248
g13
(dp6249
I1
F-0.328358
sI2
F-0.334053
sI3
F-0.330698
sI4
F-1.791339
sI7
F1.0
ssbsg15
g0
(g16
g2
Ntp6250
Rp6251
(dp6252
g20
I0
sbsba(ics475_types
Instance
p6253
(dp6254
g10
(ics475_types
FeatureVector
p6255
(dp6256
g13
(dp6257
I1
F1.611355
sI2
F0.187276
sI3
F-1.319376
sI4
F0.364516
sI7
F1.0
ssbsg15
g0
(g16
g2
Ntp6258
Rp6259
(dp6260
g20
I0
sbsba(ics475_types
Instance
p6261
(dp6262
g10
(ics475_types
FeatureVector
p6263
(dp6264
g13
(dp6265
I1
F1.574169
sI2
F2.329639
sI3
F2.555158
sI4
F1.175836
sI10
F1.0
ssbsg15
g0
(g16
g2
Ntp6266
Rp6267
(dp6268
g20
I1
sbsba(ics475_types
Instance
p6269
(dp6270
g10
(ics475_types
FeatureVector
p6271
(dp6272
g13
(dp6273
I1
F-0.083986
sI2
F-2.193992
sI3
F0.133911
sI4
F0.069842
sI7
F1.0
ssbsg15
g0
(g16
g2
Ntp6274
Rp6275
(dp6276
g20
I0
sbsba(ics475_types
Instance
p6277
(dp6278
g10
(ics475_types
FeatureVector
p6279
(dp6280
g13
(dp6281
I1
F-0.161329
sI2
F-2.304034
sI3
F0.459888
sI4
F1.836508
sI7
F1.0
ssbsg15
g0
(g16
g2
Ntp6282
Rp6283
(dp6284
g20
I0
sbsba(ics475_types
Instance
p6285
(dp6286
g10
(ics475_types
FeatureVector
p6287
(dp6288
g13
(dp6289
I1
F1.139297
sI2
F1.217385
sI3
F0.475696
sI4
F0.74147
sI6
F1.0
ssbsg15
g0
(g16
g2
Ntp6290
Rp6291
(dp6292
g20
I0
sbsba(ics475_types
Instance
p6293
(dp6294
g10
(ics475_types
FeatureVector
p6295
(dp6296
g13
(dp6297
I1
F0.497307
sI2
F0.657993
sI3
F-0.485506
sI4
F-0.867558
sI5
F1.0
ssbsg15
g0
(g16
g2
Ntp6298
Rp6299
(dp6300
g20
I0
sbsba(ics475_types
Instance
p6301
(dp6302
g10
(ics475_types
FeatureVector
p6303
(dp6304
g13
(dp6305
I1
F-0.425666
sI2
F-1.937544
sI3
F0.995424
sI4
F-0.496809
sI6
F1.0
ssbsg15
g0
(g16
g2
Ntp6306
Rp6307
(dp6308
g20
I0
sbsba(ics475_types
Instance
p6309
(dp6310
g10
(ics475_types
FeatureVector
p6311
(dp6312
g13
(dp6313
I1
F-0.697309
sI2
F0.928066
sI3
F-0.177466
sI4
F0.122503
sI7
F1.0
ssbsg15
g0
(g16
g2
Ntp6314
Rp6315
(dp6316
g20
I0
sbsba(ics475_types
Instance
p6317
(dp6318
g10
(ics475_types
FeatureVector
p6319
(dp6320
g13
(dp6321
I1
F0.637491
sI2
F0.15653
sI3
F0.105183
sI4
F-0.662894
sI5
F1.0
ssbsg15
g0
(g16
g2
Ntp6322
Rp6323
(dp6324
g20
I0
sbsba(ics475_types
Instance
p6325
(dp6326
g10
(ics475_types
FeatureVector
p6327
(dp6328
g13
(dp6329
I1
F-0.989459
sI2
F-0.693691
sI3
F-1.717076
sI4
F-0.540829
sI7
F1.0
ssbsg15
g0
(g16
g2
Ntp6330
Rp6331
(dp6332
g20
I0
sbsba(ics475_types
Instance
p6333
(dp6334
g10
(ics475_types
FeatureVector
p6335
(dp6336
g13
(dp6337
I1
F0.811965
sI2
F0.661544
sI3
F-0.884619
sI4
F-0.344964
sI10
F1.0
ssbsg15
g0
(g16
g2
Ntp6338
Rp6339
(dp6340
g20
I1
sbsba(ics475_types
Instance
p6341
(dp6342
g10
(ics475_types
FeatureVector
p6343
(dp6344
g13
(dp6345
I8
F1.0
sI1
F1.548816
sI2
F-0.889586
sI3
F0.276599
sI4
F-0.152543
ssbsg15
g0
(g16
g2
Ntp6346
Rp6347
(dp6348
g20
I1
sbsba(ics475_types
Instance
p6349
(dp6350
g10
(ics475_types
FeatureVector
p6351
(dp6352
g13
(dp6353
I1
F-1.34597
sI2
F-1.10394
sI3
F-0.864405
sI4
F-2.314459
sI6
F1.0
ssbsg15
g0
(g16
g2
Ntp6354
Rp6355
(dp6356
g20
I0
sbsba(ics475_types
Instance
p6357
(dp6358
g10
(ics475_types
FeatureVector
p6359
(dp6360
g13
(dp6361
I1
F1.075156
sI2
F-1.481816
sI3
F0.098269
sI4
F-0.539469
sI9
F1.0
ssbsg15
g0
(g16
g2
Ntp6362
Rp6363
(dp6364
g20
I1
sbsba(ics475_types
Instance
p6365
(dp6366
g10
(ics475_types
FeatureVector
p6367
(dp6368
g13
(dp6369
I8
F1.0
sI1
F-1.347346
sI2
F0.342174
sI3
F-0.606256
sI4
F-0.62978
ssbsg15
g0
(g16
g2
Ntp6370
Rp6371
(dp6372
g20
I1
sbsba(ics475_types
Instance
p6373
(dp6374
g10
(ics475_types
FeatureVector
p6375
(dp6376
g13
(dp6377
I1
F0.387722
sI2
F0.130468
sI3
F-0.409891
sI4
F-0.699486
sI10
F1.0
ssbsg15
g0
(g16
g2
Ntp6378
Rp6379
(dp6380
g20
I1
sbsba(ics475_types
Instance
p6381
(dp6382
g10
(ics475_types
FeatureVector
p6383
(dp6384
g13
(dp6385
I8
F1.0
sI1
F-0.375103
sI2
F1.212577
sI3
F0.800895
sI4
F-0.659392
ssbsg15
g0
(g16
g2
Ntp6386
Rp6387
(dp6388
g20
I1
sbsba(ics475_types
Instance
p6389
(dp6390
g10
(ics475_types
FeatureVector
p6391
(dp6392
g13
(dp6393
I1
F0.766184
sI2
F1.429601
sI3
F1.172027
sI4
F0.412581
sI10
F1.0
ssbsg15
g0
(g16
g2
Ntp6394
Rp6395
(dp6396
g20
I1
sbsba(ics475_types
Instance
p6397
(dp6398
g10
(ics475_types
FeatureVector
p6399
(dp6400
g13
(dp6401
I1
F-0.661633
sI2
F1.22606
sI3
F0.717335
sI4
F0.95689
sI7
F1.0
ssbsg15
g0
(g16
g2
Ntp6402
Rp6403
(dp6404
g20
I0
sbsba(ics475_types
Instance
p6405
(dp6406
g10
(ics475_types
FeatureVector
p6407
(dp6408
g13
(dp6409
I1
F0.076439
sI2
F0.621176
sI3
F-0.086392
sI4
F-1.008135
sI6
F1.0
ssbsg15
g0
(g16
g2
Ntp6410
Rp6411
(dp6412
g20
I0
sbsba(ics475_types
Instance
p6413
(dp6414
g10
(ics475_types
FeatureVector
p6415
(dp6416
g13
(dp6417
I8
F1.0
sI1
F0.0546
sI2
F0.108504
sI3
F0.3714
sI4
F-1.405677
ssbsg15
g0
(g16
g2
Ntp6418
Rp6419
(dp6420
g20
I1
sbsba(ics475_types
Instance
p6421
(dp6422
g10
(ics475_types
FeatureVector
p6423
(dp6424
g13
(dp6425
I1
F-0.617867
sI2
F-0.108138
sI3
F0.308113
sI4
F0.54109
sI5
F1.0
ssbsg15
g0
(g16
g2
Ntp6426
Rp6427
(dp6428
g20
I0
sbsba(ics475_types
Instance
p6429
(dp6430
g10
(ics475_types
FeatureVector
p6431
(dp6432
g13
(dp6433
I1
F1.059447
sI2
F-0.86985
sI3
F-0.275664
sI4
F0.412463
sI6
F1.0
ssbsg15
g0
(g16
g2
Ntp6434
Rp6435
(dp6436
g20
I0
sbsba(ics475_types
Instance
p6437
(dp6438
g10
(ics475_types
FeatureVector
p6439
(dp6440
g13
(dp6441
I1
F-0.568108
sI2
F-0.654938
sI3
F-1.12927
sI4
F1.81144
sI10
F1.0
ssbsg15
g0
(g16
g2
Ntp6442
Rp6443
(dp6444
g20
I1
sbsba(ics475_types
Instance
p6445
(dp6446
g10
(ics475_types
FeatureVector
p6447
(dp6448
g13
(dp6449
I8
F1.0
sI1
F-0.556078
sI2
F-2.484112
sI3
F0.383932
sI4
F0.332718
ssbsg15
g0
(g16
g2
Ntp6450
Rp6451
(dp6452
g20
I1
sbsba(ics475_types
Instance
p6453
(dp6454
g10
(ics475_types
FeatureVector
p6455
(dp6456
g13
(dp6457
I1
F-0.375792
sI2
F-1.19241
sI3
F0.280158
sI4
F-0.47598
sI5
F1.0
ssbsg15
g0
(g16
g2
Ntp6458
Rp6459
(dp6460
g20
I0
sbsba(ics475_types
Instance
p6461
(dp6462
g10
(ics475_types
FeatureVector
p6463
(dp6464
g13
(dp6465
I1
F-0.467167
sI2
F-1.347671
sI3
F-0.9291
sI4
F-1.364097
sI5
F1.0
ssbsg15
g0
(g16
g2
Ntp6466
Rp6467
(dp6468
g20
I0
sbsba(ics475_types
Instance
p6469
(dp6470
g10
(ics475_types
FeatureVector
p6471
(dp6472
g13
(dp6473
I1
F-0.125684
sI2
F-0.52353
sI3
F1.823408
sI4
F0.04806
sI10
F1.0
ssbsg15
g0
(g16
g2
Ntp6474
Rp6475
(dp6476
g20
I1
sbsba(ics475_types
Instance
p6477
(dp6478
g10
(ics475_types
FeatureVector
p6479
(dp6480
g13
(dp6481
I1
F-0.442981
sI2
F-0.208912
sI3
F-0.093474
sI4
F-1.540724
sI6
F1.0
ssbsg15
g0
(g16
g2
Ntp6482
Rp6483
(dp6484
g20
I0
sbsba(ics475_types
Instance
p6485
(dp6486
g10
(ics475_types
FeatureVector
p6487
(dp6488
g13
(dp6489
I1
F2.118582
sI2
F0.202727
sI3
F-0.748074
sI4
F-0.612991
sI6
F1.0
ssbsg15
g0
(g16
g2
Ntp6490
Rp6491
(dp6492
g20
I0
sbsba(ics475_types
Instance
p6493
(dp6494
g10
(ics475_types
FeatureVector
p6495
(dp6496
g13
(dp6497
I8
F1.0
sI1
F-0.72049
sI2
F1.341851
sI3
F-0.390361
sI4
F-0.497945
ssbsg15
g0
(g16
g2
Ntp6498
Rp6499
(dp6500
g20
I1
sbsba(ics475_types
Instance
p6501
(dp6502
g10
(ics475_types
FeatureVector
p6503
(dp6504
g13
(dp6505
I1
F0.630684
sI2
F-0.346228
sI3
F0.24733
sI4
F-0.259411
sI7
F1.0
ssbsg15
g0
(g16
g2
Ntp6506
Rp6507
(dp6508
g20
I0
sbsba(ics475_types
Instance
p6509
(dp6510
g10
(ics475_types
FeatureVector
p6511
(dp6512
g13
(dp6513
I1
F0.330001
sI2
F0.825777
sI3
F0.881559
sI4
F0.815285
sI9
F1.0
ssbsg15
g0
(g16
g2
Ntp6514
Rp6515
(dp6516
g20
I1
sbsba(ics475_types
Instance
p6517
(dp6518
g10
(ics475_types
FeatureVector
p6519
(dp6520
g13
(dp6521
I1
F0.059849
sI2
F-0.619191
sI3
F1.553188
sI4
F-0.431303
sI9
F1.0
ssbsg15
g0
(g16
g2
Ntp6522
Rp6523
(dp6524
g20
I1
sbsba(ics475_types
Instance
p6525
(dp6526
g10
(ics475_types
FeatureVector
p6527
(dp6528
g13
(dp6529
I1
F-0.393773
sI2
F-0.690265
sI3
F-0.431657
sI4
F0.844611
sI7
F1.0
ssbsg15
g0
(g16
g2
Ntp6530
Rp6531
(dp6532
g20
I0
sbsba(ics475_types
Instance
p6533
(dp6534
g10
(ics475_types
FeatureVector
p6535
(dp6536
g13
(dp6537
I8
F1.0
sI1
F1.658433
sI2
F-0.643128
sI3
F-1.03372
sI4
F0.742148
ssbsg15
g0
(g16
g2
Ntp6538
Rp6539
(dp6540
g20
I1
sbsba(ics475_types
Instance
p6541
(dp6542
g10
(ics475_types
FeatureVector
p6543
(dp6544
g13
(dp6545
I1
F-1.448048
sI2
F1.311017
sI3
F-0.899631
sI4
F-0.27765
sI7
F1.0
ssbsg15
g0
(g16
g2
Ntp6546
Rp6547
(dp6548
g20
I0
sbsba(ics475_types
Instance
p6549
(dp6550
g10
(ics475_types
FeatureVector
p6551
(dp6552
g13
(dp6553
I1
F0.996006
sI2
F-0.461191
sI3
F-0.802711
sI4
F1.208675
sI10
F1.0
ssbsg15
g0
(g16
g2
Ntp6554
Rp6555
(dp6556
g20
I1
sbsba(ics475_types
Instance
p6557
(dp6558
g10
(ics475_types
FeatureVector
p6559
(dp6560
g13
(dp6561
I1
F0.411084
sI2
F-0.313493
sI3
F0.914127
sI4
F-0.007615
sI9
F1.0
ssbsg15
g0
(g16
g2
Ntp6562
Rp6563
(dp6564
g20
I1
sbsba(ics475_types
Instance
p6565
(dp6566
g10
(ics475_types
FeatureVector
p6567
(dp6568
g13
(dp6569
I1
F0.082398
sI2
F-1.967409
sI3
F1.527436
sI4
F1.217827
sI10
F1.0
ssbsg15
g0
(g16
g2
Ntp6570
Rp6571
(dp6572
g20
I1
sbsba(ics475_types
Instance
p6573
(dp6574
g10
(ics475_types
FeatureVector
p6575
(dp6576
g13
(dp6577
I1
F-1.556224
sI2
F0.295728
sI3
F-0.434183
sI4
F-0.944481
sI6
F1.0
ssbsg15
g0
(g16
g2
Ntp6578
Rp6579
(dp6580
g20
I0
sbsba(ics475_types
Instance
p6581
(dp6582
g10
(ics475_types
FeatureVector
p6583
(dp6584
g13
(dp6585
I1
F-1.768291
sI2
F-1.550356
sI3
F0.072602
sI4
F0.21199
sI5
F1.0
ssbsg15
g0
(g16
g2
Ntp6586
Rp6587
(dp6588
g20
I0
sbsba(ics475_types
Instance
p6589
(dp6590
g10
(ics475_types
FeatureVector
p6591
(dp6592
g13
(dp6593
I1
F1.266198
sI2
F0.287867
sI3
F1.523862
sI4
F0.95775
sI10
F1.0
ssbsg15
g0
(g16
g2
Ntp6594
Rp6595
(dp6596
g20
I1
sbsba(ics475_types
Instance
p6597
(dp6598
g10
(ics475_types
FeatureVector
p6599
(dp6600
g13
(dp6601
I1
F0.84105
sI2
F2.352996
sI3
F0.718128
sI4
F0.702634
sI10
F1.0
ssbsg15
g0
(g16
g2
Ntp6602
Rp6603
(dp6604
g20
I1
sbsba(ics475_types
Instance
p6605
(dp6606
g10
(ics475_types
FeatureVector
p6607
(dp6608
g13
(dp6609
I8
F1.0
sI1
F-1.199314
sI2
F-0.934363
sI3
F1.072686
sI4
F0.382667
ssbsg15
g0
(g16
g2
Ntp6610
Rp6611
(dp6612
g20
I1
sbsba(ics475_types
Instance
p6613
(dp6614
g10
(ics475_types
FeatureVector
p6615
(dp6616
g13
(dp6617
I1
F0.621142
sI2
F-0.038477
sI3
F-0.113645
sI4
F-0.550614
sI10
F1.0
ssbsg15
g0
(g16
g2
Ntp6618
Rp6619
(dp6620
g20
I1
sbsba(ics475_types
Instance
p6621
(dp6622
g10
(ics475_types
FeatureVector
p6623
(dp6624
g13
(dp6625
I1
F-0.865098
sI2
F-0.275283
sI3
F-0.100158
sI4
F-0.704304
sI10
F1.0
ssbsg15
g0
(g16
g2
Ntp6626
Rp6627
(dp6628
g20
I1
sbsba(ics475_types
Instance
p6629
(dp6630
g10
(ics475_types
FeatureVector
p6631
(dp6632
g13
(dp6633
I8
F1.0
sI1
F0.690617
sI2
F-1.064108
sI3
F-0.375411
sI4
F0.180669
ssbsg15
g0
(g16
g2
Ntp6634
Rp6635
(dp6636
g20
I1
sbsba(ics475_types
Instance
p6637
(dp6638
g10
(ics475_types
FeatureVector
p6639
(dp6640
g13
(dp6641
I8
F1.0
sI1
F0.439296
sI2
F-0.195975
sI3
F0.753041
sI4
F-1.297466
ssbsg15
g0
(g16
g2
Ntp6642
Rp6643
(dp6644
g20
I1
sbsba(ics475_types
Instance
p6645
(dp6646
g10
(ics475_types
FeatureVector
p6647
(dp6648
g13
(dp6649
I1
F-1.335831
sI2
F-0.584441
sI3
F0.323075
sI4
F-0.922061
sI6
F1.0
ssbsg15
g0
(g16
g2
Ntp6650
Rp6651
(dp6652
g20
I0
sbsba(ics475_types
Instance
p6653
(dp6654
g10
(ics475_types
FeatureVector
p6655
(dp6656
g13
(dp6657
I1
F0.301277
sI2
F-0.042162
sI3
F-0.242183
sI4
F0.015224
sI10
F1.0
ssbsg15
g0
(g16
g2
Ntp6658
Rp6659
(dp6660
g20
I1
sbsba(ics475_types
Instance
p6661
(dp6662
g10
(ics475_types
FeatureVector
p6663
(dp6664
g13
(dp6665
I1
F0.007405
sI2
F0.371204
sI3
F-0.747913
sI4
F-0.770347
sI10
F1.0
ssbsg15
g0
(g16
g2
Ntp6666
Rp6667
(dp6668
g20
I1
sbsba(ics475_types
Instance
p6669
(dp6670
g10
(ics475_types
FeatureVector
p6671
(dp6672
g13
(dp6673
I1
F1.023246
sI2
F1.126487
sI3
F1.576849
sI4
F-0.59391
sI10
F1.0
ssbsg15
g0
(g16
g2
Ntp6674
Rp6675
(dp6676
g20
I1
sbsba(ics475_types
Instance
p6677
(dp6678
g10
(ics475_types
FeatureVector
p6679
(dp6680
g13
(dp6681
I8
F1.0
sI1
F0.813926
sI2
F1.617536
sI3
F-0.798929
sI4
F1.625701
ssbsg15
g0
(g16
g2
Ntp6682
Rp6683
(dp6684
g20
I1
sbsba(ics475_types
Instance
p6685
(dp6686
g10
(ics475_types
FeatureVector
p6687
(dp6688
g13
(dp6689
I1
F-0.664137
sI2
F0.138093
sI3
F-0.487603
sI4
F0.657531
sI9
F1.0
ssbsg15
g0
(g16
g2
Ntp6690
Rp6691
(dp6692
g20
I1
sbsba(ics475_types
Instance
p6693
(dp6694
g10
(ics475_types
FeatureVector
p6695
(dp6696
g13
(dp6697
I1
F0.611709
sI2
F-2.716133
sI3
F-0.077148
sI4
F-1.841818
sI10
F1.0
ssbsg15
g0
(g16
g2
Ntp6698
Rp6699
(dp6700
g20
I1
sbsba(ics475_types
Instance
p6701
(dp6702
g10
(ics475_types
FeatureVector
p6703
(dp6704
g13
(dp6705
I8
F1.0
sI1
F0.585776
sI2
F-0.840032
sI3
F-1.911036
sI4
F-0.966166
ssbsg15
g0
(g16
g2
Ntp6706
Rp6707
(dp6708
g20
I1
sbsba(ics475_types
Instance
p6709
(dp6710
g10
(ics475_types
FeatureVector
p6711
(dp6712
g13
(dp6713
I1
F-0.721022
sI2
F-1.400102
sI3
F-0.127489
sI4
F2.226691
sI9
F1.0
ssbsg15
g0
(g16
g2
Ntp6714
Rp6715
(dp6716
g20
I1
sbsba(ics475_types
Instance
p6717
(dp6718
g10
(ics475_types
FeatureVector
p6719
(dp6720
g13
(dp6721
I1
F1.610898
sI2
F-0.160807
sI3
F0.061358
sI4
F0.685719
sI7
F1.0
ssbsg15
g0
(g16
g2
Ntp6722
Rp6723
(dp6724
g20
I0
sbsba(ics475_types
Instance
p6725
(dp6726
g10
(ics475_types
FeatureVector
p6727
(dp6728
g13
(dp6729
I1
F0.588451
sI2
F-1.622086
sI3
F-1.597522
sI4
F-0.524117
sI7
F1.0
ssbsg15
g0
(g16
g2
Ntp6730
Rp6731
(dp6732
g20
I0
sbsba(ics475_types
Instance
p6733
(dp6734
g10
(ics475_types
FeatureVector
p6735
(dp6736
g13
(dp6737
I1
F-0.064277
sI2
F1.340607
sI3
F-0.345486
sI4
F-2.021005
sI10
F1.0
ssbsg15
g0
(g16
g2
Ntp6738
Rp6739
(dp6740
g20
I1
sbsba(ics475_types
Instance
p6741
(dp6742
g10
(ics475_types
FeatureVector
p6743
(dp6744
g13
(dp6745
I1
F0.192665
sI2
F1.426815
sI3
F0.887531
sI4
F1.424862
sI5
F1.0
ssbsg15
g0
(g16
g2
Ntp6746
Rp6747
(dp6748
g20
I0
sbsba(ics475_types
Instance
p6749
(dp6750
g10
(ics475_types
FeatureVector
p6751
(dp6752
g13
(dp6753
I1
F0.894539
sI2
F-1.579278
sI3
F-0.104796
sI4
F-0.386658
sI9
F1.0
ssbsg15
g0
(g16
g2
Ntp6754
Rp6755
(dp6756
g20
I1
sbsba(ics475_types
Instance
p6757
(dp6758
g10
(ics475_types
FeatureVector
p6759
(dp6760
g13
(dp6761
I1
F-0.717824
sI2
F-0.142992
sI3
F-2.403966
sI4
F1.691373
sI9
F1.0
ssbsg15
g0
(g16
g2
Ntp6762
Rp6763
(dp6764
g20
I1
sbsba(ics475_types
Instance
p6765
(dp6766
g10
(ics475_types
FeatureVector
p6767
(dp6768
g13
(dp6769
I1
F0.500435
sI2
F0.04215
sI3
F0.14244
sI4
F-0.759045
sI6
F1.0
ssbsg15
g0
(g16
g2
Ntp6770
Rp6771
(dp6772
g20
I0
sbsba(ics475_types
Instance
p6773
(dp6774
g10
(ics475_types
FeatureVector
p6775
(dp6776
g13
(dp6777
I1
F-0.848302
sI2
F1.918745
sI3
F-0.223409
sI4
F0.589152
sI5
F1.0
ssbsg15
g0
(g16
g2
Ntp6778
Rp6779
(dp6780
g20
I0
sbsba(ics475_types
Instance
p6781
(dp6782
g10
(ics475_types
FeatureVector
p6783
(dp6784
g13
(dp6785
I1
F-1.73617
sI2
F0.884465
sI3
F-1.450562
sI4
F0.320806
sI5
F1.0
ssbsg15
g0
(g16
g2
Ntp6786
Rp6787
(dp6788
g20
I0
sbsba(ics475_types
Instance
p6789
(dp6790
g10
(ics475_types
FeatureVector
p6791
(dp6792
g13
(dp6793
I1
F0.289045
sI2
F-1.744819
sI3
F0.043756
sI4
F-0.123885
sI9
F1.0
ssbsg15
g0
(g16
g2
Ntp6794
Rp6795
(dp6796
g20
I1
sbsba(ics475_types
Instance
p6797
(dp6798
g10
(ics475_types
FeatureVector
p6799
(dp6800
g13
(dp6801
I1
F-0.248744
sI2
F-1.074601
sI3
F0.977908
sI4
F-0.698032
sI6
F1.0
ssbsg15
g0
(g16
g2
Ntp6802
Rp6803
(dp6804
g20
I0
sbsba(ics475_types
Instance
p6805
(dp6806
g10
(ics475_types
FeatureVector
p6807
(dp6808
g13
(dp6809
I1
F-0.605279
sI2
F-1.948834
sI3
F-0.936294
sI4
F0.002047
sI7
F1.0
ssbsg15
g0
(g16
g2
Ntp6810
Rp6811
(dp6812
g20
I0
sbsba(ics475_types
Instance
p6813
(dp6814
g10
(ics475_types
FeatureVector
p6815
(dp6816
g13
(dp6817
I1
F-0.618737
sI2
F0.897711
sI3
F-1.461795
sI4
F-0.270193
sI5
F1.0
ssbsg15
g0
(g16
g2
Ntp6818
Rp6819
(dp6820
g20
I0
sbsba(ics475_types
Instance
p6821
(dp6822
g10
(ics475_types
FeatureVector
p6823
(dp6824
g13
(dp6825
I8
F1.0
sI1
F-0.432927
sI2
F0.508843
sI3
F-1.564025
sI4
F0.890961
ssbsg15
g0
(g16
g2
Ntp6826
Rp6827
(dp6828
g20
I1
sbsba(ics475_types
Instance
p6829
(dp6830
g10
(ics475_types
FeatureVector
p6831
(dp6832
g13
(dp6833
I1
F0.263463
sI2
F-0.206259
sI3
F0.341145
sI4
F0.77265
sI7
F1.0
ssbsg15
g0
(g16
g2
Ntp6834
Rp6835
(dp6836
g20
I0
sbsba(ics475_types
Instance
p6837
(dp6838
g10
(ics475_types
FeatureVector
p6839
(dp6840
g13
(dp6841
I1
F-0.337216
sI2
F-1.486374
sI3
F0.020715
sI4
F0.649023
sI6
F1.0
ssbsg15
g0
(g16
g2
Ntp6842
Rp6843
(dp6844
g20
I0
sbsba(ics475_types
Instance
p6845
(dp6846
g10
(ics475_types
FeatureVector
p6847
(dp6848
g13
(dp6849
I1
F0.254901
sI2
F-0.845497
sI3
F-0.400484
sI4
F-0.287754
sI10
F1.0
ssbsg15
g0
(g16
g2
Ntp6850
Rp6851
(dp6852
g20
I1
sbsba(ics475_types
Instance
p6853
(dp6854
g10
(ics475_types
FeatureVector
p6855
(dp6856
g13
(dp6857
I1
F-0.311208
sI2
F1.213711
sI3
F0.645398
sI4
F-0.164967
sI9
F1.0
ssbsg15
g0
(g16
g2
Ntp6858
Rp6859
(dp6860
g20
I1
sbsba(ics475_types
Instance
p6861
(dp6862
g10
(ics475_types
FeatureVector
p6863
(dp6864
g13
(dp6865
I8
F1.0
sI1
F1.454844
sI2
F-0.395072
sI3
F0.288405
sI4
F0.307511
ssbsg15
g0
(g16
g2
Ntp6866
Rp6867
(dp6868
g20
I1
sbsba(ics475_types
Instance
p6869
(dp6870
g10
(ics475_types
FeatureVector
p6871
(dp6872
g13
(dp6873
I1
F0.859829
sI2
F-2.579484
sI3
F-0.215555
sI4
F0.887669
sI7
F1.0
ssbsg15
g0
(g16
g2
Ntp6874
Rp6875
(dp6876
g20
I0
sbsba(ics475_types
Instance
p6877
(dp6878
g10
(ics475_types
FeatureVector
p6879
(dp6880
g13
(dp6881
I1
F-0.312466
sI2
F0.794523
sI3
F-0.45394
sI4
F0.8065
sI9
F1.0
ssbsg15
g0
(g16
g2
Ntp6882
Rp6883
(dp6884
g20
I1
sbsba(ics475_types
Instance
p6885
(dp6886
g10
(ics475_types
FeatureVector
p6887
(dp6888
g13
(dp6889
I1
F-1.68569
sI2
F1.39188
sI3
F-1.519395
sI4
F0.273106
sI7
F1.0
ssbsg15
g0
(g16
g2
Ntp6890
Rp6891
(dp6892
g20
I0
sbsba(ics475_types
Instance
p6893
(dp6894
g10
(ics475_types
FeatureVector
p6895
(dp6896
g13
(dp6897
I1
F1.137942
sI2
F-0.46026
sI3
F-0.249836
sI4
F1.620677
sI5
F1.0
ssbsg15
g0
(g16
g2
Ntp6898
Rp6899
(dp6900
g20
I0
sbsba(ics475_types
Instance
p6901
(dp6902
g10
(ics475_types
FeatureVector
p6903
(dp6904
g13
(dp6905
I1
F1.637832
sI2
F-0.003318
sI3
F1.070079
sI4
F-0.762862
sI7
F1.0
ssbsg15
g0
(g16
g2
Ntp6906
Rp6907
(dp6908
g20
I0
sbsba(ics475_types
Instance
p6909
(dp6910
g10
(ics475_types
FeatureVector
p6911
(dp6912
g13
(dp6913
I8
F1.0
sI1
F1.008446
sI2
F-1.07466
sI3
F-1.333657
sI4
F0.170358
ssbsg15
g0
(g16
g2
Ntp6914
Rp6915
(dp6916
g20
I1
sbsba(ics475_types
Instance
p6917
(dp6918
g10
(ics475_types
FeatureVector
p6919
(dp6920
g13
(dp6921
I1
F0.427719
sI2
F-1.158907
sI3
F-1.697013
sI4
F0.646371
sI5
F1.0
ssbsg15
g0
(g16
g2
Ntp6922
Rp6923
(dp6924
g20
I0
sbsba(ics475_types
Instance
p6925
(dp6926
g10
(ics475_types
FeatureVector
p6927
(dp6928
g13
(dp6929
I1
F-0.039423
sI2
F0.842336
sI3
F-0.691384
sI4
F-2.107616
sI6
F1.0
ssbsg15
g0
(g16
g2
Ntp6930
Rp6931
(dp6932
g20
I0
sbsba(ics475_types
Instance
p6933
(dp6934
g10
(ics475_types
FeatureVector
p6935
(dp6936
g13
(dp6937
I1
F-0.875328
sI2
F0.951693
sI3
F0.116581
sI4
F-0.539477
sI5
F1.0
ssbsg15
g0
(g16
g2
Ntp6938
Rp6939
(dp6940
g20
I0
sbsba(ics475_types
Instance
p6941
(dp6942
g10
(ics475_types
FeatureVector
p6943
(dp6944
g13
(dp6945
I1
F1.115019
sI2
F-0.704178
sI3
F-0.605872
sI4
F0.378726
sI6
F1.0
ssbsg15
g0
(g16
g2
Ntp6946
Rp6947
(dp6948
g20
I0
sbsba(ics475_types
Instance
p6949
(dp6950
g10
(ics475_types
FeatureVector
p6951
(dp6952
g13
(dp6953
I1
F0.018754
sI2
F0.31028
sI3
F-1.187808
sI4
F-1.661081
sI9
F1.0
ssbsg15
g0
(g16
g2
Ntp6954
Rp6955
(dp6956
g20
I1
sbsba(ics475_types
Instance
p6957
(dp6958
g10
(ics475_types
FeatureVector
p6959
(dp6960
g13
(dp6961
I1
F1.004843
sI2
F-0.410731
sI3
F-0.749455
sI4
F-0.039778
sI5
F1.0
ssbsg15
g0
(g16
g2
Ntp6962
Rp6963
(dp6964
g20
I0
sbsba(ics475_types
Instance
p6965
(dp6966
g10
(ics475_types
FeatureVector
p6967
(dp6968
g13
(dp6969
I8
F1.0
sI1
F-0.608764
sI2
F-1.3306
sI3
F-0.869013
sI4
F2.040152
ssbsg15
g0
(g16
g2
Ntp6970
Rp6971
(dp6972
g20
I1
sbsba(ics475_types
Instance
p6973
(dp6974
g10
(ics475_types
FeatureVector
p6975
(dp6976
g13
(dp6977
I1
F0.180116
sI2
F0.588889
sI3
F-0.079646
sI4
F-1.136689
sI7
F1.0
ssbsg15
g0
(g16
g2
Ntp6978
Rp6979
(dp6980
g20
I0
sbsba(ics475_types
Instance
p6981
(dp6982
g10
(ics475_types
FeatureVector
p6983
(dp6984
g13
(dp6985
I1
F-0.349587
sI2
F-1.410589
sI3
F0.244615
sI4
F0.197585
sI10
F1.0
ssbsg15
g0
(g16
g2
Ntp6986
Rp6987
(dp6988
g20
I1
sbsba(ics475_types
Instance
p6989
(dp6990
g10
(ics475_types
FeatureVector
p6991
(dp6992
g13
(dp6993
I8
F1.0
sI1
F0.871957
sI2
F0.111202
sI3
F2.024019
sI4
F-1.538448
ssbsg15
g0
(g16
g2
Ntp6994
Rp6995
(dp6996
g20
I1
sbsba(ics475_types
Instance
p6997
(dp6998
g10
(ics475_types
FeatureVector
p6999
(dp7000
g13
(dp7001
I1
F-0.021196
sI2
F-0.217394
sI3
F-1.917692
sI4
F-0.797905
sI10
F1.0
ssbsg15
g0
(g16
g2
Ntp7002
Rp7003
(dp7004
g20
I1
sbsba(ics475_types
Instance
p7005
(dp7006
g10
(ics475_types
FeatureVector
p7007
(dp7008
g13
(dp7009
I1
F0.762067
sI2
F0.02761
sI3
F1.544592
sI4
F-0.651187
sI5
F1.0
ssbsg15
g0
(g16
g2
Ntp7010
Rp7011
(dp7012
g20
I0
sbsba(ics475_types
Instance
p7013
(dp7014
g10
(ics475_types
FeatureVector
p7015
(dp7016
g13
(dp7017
I1
F-1.220006
sI2
F-0.031058
sI3
F1.61208
sI4
F0.62494
sI6
F1.0
ssbsg15
g0
(g16
g2
Ntp7018
Rp7019
(dp7020
g20
I0
sbsba(ics475_types
Instance
p7021
(dp7022
g10
(ics475_types
FeatureVector
p7023
(dp7024
g13
(dp7025
I8
F1.0
sI1
F-0.935183
sI2
F-1.404527
sI3
F-0.411079
sI4
F-1.352981
ssbsg15
g0
(g16
g2
Ntp7026
Rp7027
(dp7028
g20
I1
sbsba(ics475_types
Instance
p7029
(dp7030
g10
(ics475_types
FeatureVector
p7031
(dp7032
g13
(dp7033
I1
F0.644905
sI2
F0.283367
sI3
F-0.360947
sI4
F0.018331
sI6
F1.0
ssbsg15
g0
(g16
g2
Ntp7034
Rp7035
(dp7036
g20
I0
sbsba(ics475_types
Instance
p7037
(dp7038
g10
(ics475_types
FeatureVector
p7039
(dp7040
g13
(dp7041
I1
F0.998904
sI2
F-0.014027
sI3
F1.005596
sI4
F-0.800695
sI6
F1.0
ssbsg15
g0
(g16
g2
Ntp7042
Rp7043
(dp7044
g20
I0
sbsba(ics475_types
Instance
p7045
(dp7046
g10
(ics475_types
FeatureVector
p7047
(dp7048
g13
(dp7049
I8
F1.0
sI1
F0.377223
sI2
F1.289677
sI3
F-1.665667
sI4
F1.587663
ssbsg15
g0
(g16
g2
Ntp7050
Rp7051
(dp7052
g20
I1
sbsba(ics475_types
Instance
p7053
(dp7054
g10
(ics475_types
FeatureVector
p7055
(dp7056
g13
(dp7057
I1
F0.565651
sI2
F-0.672777
sI3
F1.018056
sI4
F-0.099146
sI9
F1.0
ssbsg15
g0
(g16
g2
Ntp7058
Rp7059
(dp7060
g20
I1
sbsba(ics475_types
Instance
p7061
(dp7062
g10
(ics475_types
FeatureVector
p7063
(dp7064
g13
(dp7065
I1
F-0.696434
sI2
F-0.123978
sI3
F1.077315
sI4
F0.184023
sI7
F1.0
ssbsg15
g0
(g16
g2
Ntp7066
Rp7067
(dp7068
g20
I0
sbsba(ics475_types
Instance
p7069
(dp7070
g10
(ics475_types
FeatureVector
p7071
(dp7072
g13
(dp7073
I1
F1.574221
sI2
F-0.002074
sI3
F-0.069594
sI4
F-1.062408
sI6
F1.0
ssbsg15
g0
(g16
g2
Ntp7074
Rp7075
(dp7076
g20
I0
sbsba(ics475_types
Instance
p7077
(dp7078
g10
(ics475_types
FeatureVector
p7079
(dp7080
g13
(dp7081
I1
F1.675077
sI2
F0.496042
sI3
F-0.450688
sI4
F-2.20559
sI10
F1.0
ssbsg15
g0
(g16
g2
Ntp7082
Rp7083
(dp7084
g20
I1
sbsba(ics475_types
Instance
p7085
(dp7086
g10
(ics475_types
FeatureVector
p7087
(dp7088
g13
(dp7089
I8
F1.0
sI1
F-0.885476
sI2
F-0.033291
sI3
F0.35623
sI4
F0.783397
ssbsg15
g0
(g16
g2
Ntp7090
Rp7091
(dp7092
g20
I1
sbsba(ics475_types
Instance
p7093
(dp7094
g10
(ics475_types
FeatureVector
p7095
(dp7096
g13
(dp7097
I1
F-0.197522
sI2
F-0.208085
sI3
F0.242044
sI4
F-0.584448
sI6
F1.0
ssbsg15
g0
(g16
g2
Ntp7098
Rp7099
(dp7100
g20
I0
sbsba(ics475_types
Instance
p7101
(dp7102
g10
(ics475_types
FeatureVector
p7103
(dp7104
g13
(dp7105
I1
F-0.681126
sI2
F0.953684
sI3
F1.179957
sI4
F0.068309
sI10
F1.0
ssbsg15
g0
(g16
g2
Ntp7106
Rp7107
(dp7108
g20
I1
sbsba(ics475_types
Instance
p7109
(dp7110
g10
(ics475_types
FeatureVector
p7111
(dp7112
g13
(dp7113
I1
F-0.781493
sI2
F0.041714
sI3
F1.859784
sI4
F-0.052643
sI10
F1.0
ssbsg15
g0
(g16
g2
Ntp7114
Rp7115
(dp7116
g20
I1
sbsba(ics475_types
Instance
p7117
(dp7118
g10
(ics475_types
FeatureVector
p7119
(dp7120
g13
(dp7121
I1
F0.398588
sI2
F-0.605888
sI3
F-0.180537
sI4
F-2.095867
sI5
F1.0
ssbsg15
g0
(g16
g2
Ntp7122
Rp7123
(dp7124
g20
I0
sbsba(ics475_types
Instance
p7125
(dp7126
g10
(ics475_types
FeatureVector
p7127
(dp7128
g13
(dp7129
I1
F1.098455
sI2
F1.941205
sI3
F-0.306633
sI4
F1.417736
sI10
F1.0
ssbsg15
g0
(g16
g2
Ntp7130
Rp7131
(dp7132
g20
I1
sbsba(ics475_types
Instance
p7133
(dp7134
g10
(ics475_types
FeatureVector
p7135
(dp7136
g13
(dp7137
I8
F1.0
sI1
F-1.405488
sI2
F-0.311167
sI3
F-0.497462
sI4
F-0.621657
ssbsg15
g0
(g16
g2
Ntp7138
Rp7139
(dp7140
g20
I1
sbsba(ics475_types
Instance
p7141
(dp7142
g10
(ics475_types
FeatureVector
p7143
(dp7144
g13
(dp7145
I8
F1.0
sI1
F0.234391
sI2
F0.336163
sI3
F-0.842309
sI4
F-1.183525
ssbsg15
g0
(g16
g2
Ntp7146
Rp7147
(dp7148
g20
I1
sbsba(ics475_types
Instance
p7149
(dp7150
g10
(ics475_types
FeatureVector
p7151
(dp7152
g13
(dp7153
I1
F-0.349941
sI2
F-1.889044
sI3
F0.471399
sI4
F-0.23574
sI6
F1.0
ssbsg15
g0
(g16
g2
Ntp7154
Rp7155
(dp7156
g20
I0
sbsba(ics475_types
Instance
p7157
(dp7158
g10
(ics475_types
FeatureVector
p7159
(dp7160
g13
(dp7161
I1
F0.424303
sI2
F0.646603
sI3
F2.0158
sI4
F0.487925
sI5
F1.0
ssbsg15
g0
(g16
g2
Ntp7162
Rp7163
(dp7164
g20
I0
sbsba(ics475_types
Instance
p7165
(dp7166
g10
(ics475_types
FeatureVector
p7167
(dp7168
g13
(dp7169
I1
F0.812564
sI2
F-0.918273
sI3
F0.36061
sI4
F1.129917
sI10
F1.0
ssbsg15
g0
(g16
g2
Ntp7170
Rp7171
(dp7172
g20
I1
sbsba(ics475_types
Instance
p7173
(dp7174
g10
(ics475_types
FeatureVector
p7175
(dp7176
g13
(dp7177
I1
F0.090495
sI2
F1.562944
sI3
F0.753801
sI4
F0.51175
sI6
F1.0
ssbsg15
g0
(g16
g2
Ntp7178
Rp7179
(dp7180
g20
I0
sbsba(ics475_types
Instance
p7181
(dp7182
g10
(ics475_types
FeatureVector
p7183
(dp7184
g13
(dp7185
I1
F-0.157625
sI2
F-0.95421
sI3
F0.68495
sI4
F-1.269349
sI10
F1.0
ssbsg15
g0
(g16
g2
Ntp7186
Rp7187
(dp7188
g20
I1
sbsba(ics475_types
Instance
p7189
(dp7190
g10
(ics475_types
FeatureVector
p7191
(dp7192
g13
(dp7193
I1
F-0.50208
sI2
F1.389379
sI3
F0.316174
sI4
F-1.409503
sI7
F1.0
ssbsg15
g0
(g16
g2
Ntp7194
Rp7195
(dp7196
g20
I0
sbsba(ics475_types
Instance
p7197
(dp7198
g10
(ics475_types
FeatureVector
p7199
(dp7200
g13
(dp7201
I1
F0.351844
sI2
F-0.030856
sI3
F1.339655
sI4
F0.389923
sI10
F1.0
ssbsg15
g0
(g16
g2
Ntp7202
Rp7203
(dp7204
g20
I1
sbsba(ics475_types
Instance
p7205
(dp7206
g10
(ics475_types
FeatureVector
p7207
(dp7208
g13
(dp7209
I1
F-0.223017
sI2
F-0.716249
sI3
F1.033376
sI4
F-0.5736
sI6
F1.0
ssbsg15
g0
(g16
g2
Ntp7210
Rp7211
(dp7212
g20
I0
sbsbasS'high_idx'
p7213
I10
sS'weights'
p7214
cnumpy.core.multiarray
_reconstruct
p7215
(cnumpy
ndarray
p7216
(I0
tp7217
S'b'
p7218
tp7219
Rp7220
(I1
(I10
tp7221
cnumpy
dtype
p7222
(S'i8'
p7223
I0
I1
tp7224
Rp7225
(I3
S'<'
p7226
NNNI-1
I-1
I0
tp7227
bI00
S'\x00\x00\x00\x00\x00\x00\x00\x00\x00\x00\x00\x00\x00\x00\x00\x00\x00\x00\x00\x00\x00\x00\x00\x00\x01\x00\x00\x00\x00\x00\x00\x00\x00\x00\x00\x00\x00\x00\x00\x00\x00\x00\x00\x00\x00\x00\x00\x00\x00\x00\x00\x00\x00\x00\x00\x00\x08\x00\x00\x00\x00\x00\x00\x00\x06\x00\x00\x00\x00\x00\x00\x00\x06\x00\x00\x00\x00\x00\x00\x00'
p7228
tp7229
bsS'learn_rate'
p7230
F1.0
sb.