ccopy_reg
_reconstructor
p0
(cmc_perceptron
MC_Perceptron
p1
c__builtin__
object
p2
Ntp3
Rp4
(dp5
S'instances'
p6
(lp7
(iclasses
Instance
p8
(dp9
S'_feature_vector'
p10
(iclasses
FeatureVector
p11
(dp12
S'features'
p13
(dp14
I1
F76.0
sI2
F198.0
sI3
F9.0
sI6
F1.7777778
sI7
F1.2049282
sI8
F1.5000001
sI9
F0.69121444
sI10
F14.555555
sI11
F12.111111
sI12
F11.777778
sI13
F19.777779
sI14
F-7.3333335
sI15
F-8.333333
sI16
F15.666667
sI17
F19.777779
sI18
F0.4115727
sI19
F2.0556724
ssbsS'_label'
p15
g0
(cclasses
ClassificationLabel
p16
g2
Ntp17
Rp18
(dp19
S'label'
p20
I1
sbsba(iclasses
Instance
p21
(dp22
g10
(iclasses
FeatureVector
p23
(dp24
g13
(dp25
I1
F113.0
sI2
F132.0
sI3
F9.0
sI6
F0.44444442
sI7
F0.3442652
sI8
F0.38888887
sI9
F0.5340273
sI10
F1.2962962
sI12
F3.4444444
sI13
F0.44444445
sI14
F-3.8888888
sI15
F6.4444447
sI16
F-2.5555556
sI17
F3.4444444
sI18
F1.0
sI19
F-2.204847
ssbsg15
g0
(g16
g2
Ntp26
Rp27
(dp28
g20
I0
sbsba(iclasses
Instance
p29
(dp30
g10
(iclasses
FeatureVector
p31
(dp32
g13
(dp33
I1
F49.0
sI2
F139.0
sI3
F9.0
sI6
F0.16666669
sI7
F0.07777779
sI8
F0.33333337
sI9
F0.0888889
sI10
F0.44444445
sI12
F1.3333334
sI14
F-1.3333334
sI15
F2.6666667
sI16
F-1.3333334
sI17
F1.3333334
sI18
F0.7777778
sI19
F-2.0943952
ssbsg15
g0
(g16
g2
Ntp34
Rp35
(dp36
g20
I0
sbsba(iclasses
Instance
p37
(dp38
g10
(iclasses
FeatureVector
p39
(dp40
g13
(dp41
I1
F62.0
sI2
F224.0
sI3
F9.0
sI6
F0.9444445
sI7
F1.083547
sI8
F2.3333335
sI9
F1.6329932
sI10
F14.62963
sI11
F13.222222
sI12
F11.444445
sI13
F19.222221
sI14
F-4.2222223
sI15
F-9.555555
sI16
F13.777778
sI17
F19.222221
sI18
F0.40896538
sI19
F1.8601909
ssbsg15
g0
(g16
g2
Ntp42
Rp43
(dp44
g20
I1
sbsba(iclasses
Instance
p45
(dp46
g10
(iclasses
FeatureVector
p47
(dp48
g13
(dp49
I1
F13.0
sI2
F83.0
sI3
F9.0
sI6
F0.83333325
sI7
F0.54772246
sI8
F0.6666666
sI9
F0.63245547
sI10
F3.7037036
sI11
F1.5555556
sI12
F6.0
sI13
F3.5555556
sI14
F-6.4444447
sI15
F6.888889
sI16
F-0.44444445
sI17
F6.0
sI18
F0.7404762
sI19
F-2.5733812
ssbsg15
g0
(g16
g2
Ntp50
Rp51
(dp52
g20
I0
sbsba(iclasses
Instance
p53
(dp54
g10
(iclasses
FeatureVector
p55
(dp56
g13
(dp57
I1
F64.0
sI2
F114.0
sI3
F9.0
sI6
F5.166667
sI7
F6.320163
sI8
F8.833333
sI9
F8.66859
sI10
F29.814816
sI11
F18.333334
sI12
F47.22222
sI13
F23.88889
sI14
F-34.444443
sI15
F52.22222
sI16
F-17.777779
sI17
F47.22222
sI18
F0.62924504
sI19
F-2.2953806
ssbsg15
g0
(g16
g2
Ntp58
Rp59
(dp60
g20
I0
sbsba(iclasses
Instance
p61
(dp62
g10
(iclasses
FeatureVector
p63
(dp64
g13
(dp65
I1
F37.0
sI2
F167.0
sI3
F9.0
sI6
F0.888889
sI7
F0.56296337
sI8
F7.5555553
sI9
F4.6074057
sI10
F14.074074
sI11
F11.666667
sI12
F16.777779
sI13
F13.777778
sI14
F-7.2222223
sI15
F8.111111
sI16
F-0.8888889
sI17
F17.666668
sI18
F0.31450674
sI19
F-3.015081
ssbsg15
g0
(g16
g2
Ntp66
Rp67
(dp68
g20
I1
sbsba(iclasses
Instance
p69
(dp70
g10
(iclasses
FeatureVector
p71
(dp72
g13
(dp73
I1
F47.0
sI2
F119.0
sI3
F9.0
sI4
F0.11111111
sI6
F2.2777777
sI7
F2.2746592
sI8
F1.3333334
sI9
F1.3824296
sI10
F4.3703704
sI11
F2.1111112
sI12
F6.7777777
sI13
F4.2222223
sI14
F-6.7777777
sI15
F7.2222223
sI16
F-0.44444445
sI17
F6.7777777
sI18
F0.7329263
sI19
F-2.587228
ssbsg15
g0
(g16
g2
Ntp74
Rp75
(dp76
g20
I0
sbsba(iclasses
Instance
p77
(dp78
g10
(iclasses
FeatureVector
p79
(dp80
g13
(dp81
I1
F182.0
sI2
F197.0
sI3
F9.0
sI4
F0.11111111
sI6
F2.166667
sI7
F0.69121456
sI8
F2.3888888
sI9
F1.5834798
sI10
F12.851851
sI11
F10.444445
sI12
F12.777778
sI13
F15.333333
sI14
F-7.2222223
sI15
F-0.22222222
sI16
F7.4444447
sI17
F15.333333
sI18
F0.322069
sI19
F2.6282077
ssbsg15
g0
(g16
g2
Ntp82
Rp83
(dp84
g20
I1
sbsba(iclasses
Instance
p85
(dp86
g10
(iclasses
FeatureVector
p87
(dp88
g13
(dp89
I1
F116.0
sI2
F245.0
sI3
F9.0
sI6
F2.277778
sI7
F1.1626909
sI8
F2.2777777
sI9
F1.496911
sI10
F16.37037
sI11
F13.555555
sI12
F14.333333
sI13
F21.222221
sI14
F-8.444445
sI15
F-6.111111
sI16
F14.555555
sI17
F21.222221
sI18
F0.38490298
sI19
F2.1980507
ssbsg15
g0
(g16
g2
Ntp90
Rp91
(dp92
g20
I1
sbsba(iclasses
Instance
p93
(dp94
g10
(iclasses
FeatureVector
p95
(dp96
g13
(dp97
I1
F240.0
sI2
F79.0
sI3
F9.0
sI6
F16.277779
sI7
F40.862957
sI8
F14.166667
sI9
F155.3222
sI10
F32.77778
sI11
F24.333334
sI12
F45.77778
sI13
F28.222221
sI14
F-25.333334
sI15
F39.0
sI16
F-13.666667
sI17
F45.77778
sI18
F0.48906165
sI19
F-2.2862954
ssbsg15
g0
(g16
g2
Ntp98
Rp99
(dp100
g20
I0
sbsba(iclasses
Instance
p101
(dp102
g10
(iclasses
FeatureVector
p103
(dp104
g13
(dp105
I1
F30.0
sI2
F251.0
sI3
F9.0
sI6
F2.444444
sI7
F1.8816857
sI8
F8.0
sI9
F1.6055425
sI10
F20.666666
sI11
F21.444445
sI12
F17.777779
sI13
F22.777779
sI14
F2.3333333
sI15
F-8.666667
sI16
F6.3333335
sI17
F22.777779
sI18
F0.23141664
sI19
F1.2870604
ssbsg15
g0
(g16
g2
Ntp106
Rp107
(dp108
g20
I1
sbsba(iclasses
Instance
p109
(dp110
g10
(iclasses
FeatureVector
p111
(dp112
g13
(dp113
I1
F2.0
sI2
F114.0
sI3
F9.0
sI6
F0.8333333
sI7
F0.12222227
sI8
F0.27777782
sI9
F0.06296296
sI10
F1.7407408
sI11
F0.7777778
sI12
F3.8888888
sI13
F0.5555556
sI14
F-2.8888888
sI15
F6.4444447
sI16
F-3.5555556
sI17
F3.8888888
sI18
F0.88148147
sI19
F-2.0270298
ssbsg15
g0
(g16
g2
Ntp114
Rp115
(dp116
g20
I0
sbsba(iclasses
Instance
p117
(dp118
g10
(iclasses
FeatureVector
p119
(dp120
g13
(dp121
I1
F160.0
sI2
F210.0
sI3
F9.0
sI6
F1.611111
sI7
F1.129629
sI8
F1.222222
sI9
F1.0074075
sI10
F17.481482
sI11
F13.777778
sI12
F16.0
sI13
F22.666666
sI14
F-11.111111
sI15
F-4.4444447
sI16
F15.555555
sI17
F22.666666
sI18
F0.40393806
sI19
F2.3864515
ssbsg15
g0
(g16
g2
Ntp122
Rp123
(dp124
g20
I1
sbsba(iclasses
Instance
p125
(dp126
g10
(iclasses
FeatureVector
p127
(dp128
g13
(dp129
I1
F116.0
sI2
F203.0
sI3
F9.0
sI6
F3.0555553
sI7
F1.9484084
sI8
F2.9444437
sI9
F1.7564695
sI10
F19.518518
sI11
F15.444445
sI12
F17.666668
sI13
F25.444445
sI14
F-12.222222
sI15
F-5.5555553
sI16
F17.777779
sI17
F25.444445
sI18
F0.39386794
sI19
F2.320382
ssbsg15
g0
(g16
g2
Ntp130
Rp131
(dp132
g20
I1
sbsba(iclasses
Instance
p133
(dp134
g10
(iclasses
FeatureVector
p135
(dp136
g13
(dp137
I1
F11.0
sI2
F163.0
sI3
F9.0
sI6
F1.0555553
sI7
F0.928958
sI8
F2.5000002
sI9
F1.3123353
sI10
F19.814816
sI11
F17.444445
sI12
F16.666668
sI13
F25.333334
sI14
F-7.111111
sI15
F-9.444445
sI16
F16.555555
sI17
F25.333334
sI18
F0.34426668
sI19
F2.0016809
ssbsg15
g0
(g16
g2
Ntp138
Rp139
(dp140
g20
I1
sbsba(iclasses
Instance
p141
(dp142
g10
(iclasses
FeatureVector
p143
(dp144
g13
(dp145
I1
F132.0
sI2
F223.0
sI3
F9.0
sI6
F2.1111112
sI7
F0.72008204
sI8
F1.7777777
sI9
F0.9349196
sI10
F16.518518
sI11
F13.222222
sI12
F13.444445
sI13
F22.88889
sI14
F-9.888889
sI15
F-9.222222
sI16
F19.11111
sI17
F22.88889
sI18
F0.43312526
sI19
F2.1195462
ssbsg15
g0
(g16
g2
Ntp146
Rp147
(dp148
g20
I1
sbsba(iclasses
Instance
p149
(dp150
g10
(iclasses
FeatureVector
p151
(dp152
g13
(dp153
I1
F212.0
sI2
F234.0
sI3
F9.0
sI6
F0.4444445
sI7
F0.11851848
sI8
F1.0555555
sI9
F0.28518525
sI10
F7.111111
sI11
F6.0
sI12
F4.2222223
sI13
F11.111111
sI14
F-3.3333333
sI15
F-8.666667
sI16
F12.0
sI17
F11.111111
sI18
F0.62132436
sI19
F1.8382597
ssbsg15
g0
(g16
g2
Ntp154
Rp155
(dp156
g20
I1
sbsba(iclasses
Instance
p157
(dp158
g10
(iclasses
FeatureVector
p159
(dp160
g13
(dp161
I1
F26.0
sI2
F211.0
sI3
F9.0
sI6
F1.6666666
sI7
F1.4666667
sI8
F1.6666669
sI9
F1.8222221
sI10
F16.37037
sI11
F13.777778
sI12
F14.666667
sI13
F20.666668
sI14
F-7.7777777
sI15
F-5.111111
sI16
F12.888889
sI17
F20.666668
sI18
F0.33385554
sI19
F2.239034
ssbsg15
g0
(g16
g2
Ntp162
Rp163
(dp164
g20
I1
sbsba(iclasses
Instance
p165
(dp166
g10
(iclasses
FeatureVector
p167
(dp168
g13
(dp169
I1
F223.0
sI2
F185.0
sI3
F9.0
sI6
F0.5
sI7
F0.34960312
sI8
F2.3888886
sI9
F2.0807757
sI10
F12.962963
sI11
F11.555555
sI12
F9.777778
sI13
F17.555555
sI14
F-4.2222223
sI15
F-9.555555
sI16
F13.777778
sI17
F17.555555
sI18
F0.44541803
sI19
F1.8388497
ssbsg15
g0
(g16
g2
Ntp170
Rp171
(dp172
g20
I1
sbsba(iclasses
Instance
p173
(dp174
g10
(iclasses
FeatureVector
p175
(dp176
g13
(dp177
I1
F233.0
sI2
F184.0
sI3
F9.0
sI6
F0.5000002
sI7
F0.077777766
sI8
F0.7777777
sI9
F0.785185
sI10
F11.851851
sI11
F9.777778
sI12
F9.888889
sI13
F15.888889
sI14
F-6.2222223
sI15
F-5.888889
sI16
F12.111111
sI17
F15.888889
sI18
F0.40555555
sI19
F2.1286457
ssbsg15
g0
(g16
g2
Ntp178
Rp179
(dp180
g20
I1
sbsba(iclasses
Instance
p181
(dp182
g10
(iclasses
FeatureVector
p183
(dp184
g13
(dp185
I1
F172.0
sI2
F218.0
sI3
F9.0
sI6
F2.5555556
sI7
F2.42963
sI8
F1.6111108
sI9
F2.418518
sI10
F14.925926
sI11
F11.888889
sI12
F13.777778
sI13
F19.11111
sI14
F-9.111111
sI15
F-3.4444444
sI16
F12.555555
sI17
F19.11111
sI18
F0.38645566
sI19
F2.362146
ssbsg15
g0
(g16
g2
Ntp186
Rp187
(dp188
g20
I1
sbsba(iclasses
Instance
p189
(dp190
g10
(iclasses
FeatureVector
p191
(dp192
g13
(dp193
I1
F9.0
sI2
F236.0
sI3
F9.0
sI6
F1.8333335
sI7
F3.455556
sI8
F3.0555553
sI9
F5.5296316
sI10
F11.074074
sI11
F9.444445
sI12
F9.444445
sI13
F14.333333
sI14
F-4.888889
sI15
F-4.888889
sI16
F9.777778
sI17
F14.333333
sI18
F0.37655354
sI19
F2.0832295
ssbsg15
g0
(g16
g2
Ntp194
Rp195
(dp196
g20
I1
sbsba(iclasses
Instance
p197
(dp198
g10
(iclasses
FeatureVector
p199
(dp200
g13
(dp201
I1
F67.0
sI2
F136.0
sI3
F9.0
sI6
F6.722223
sI7
F3.7083488
sI8
F2.6666667
sI9
F3.1972213
sI10
F15.518518
sI11
F9.0
sI12
F25.333334
sI13
F12.222222
sI14
F-19.555555
sI15
F29.444445
sI16
F-9.888889
sI17
F25.333334
sI18
F0.66081303
sI19
F-2.3075109
ssbsg15
g0
(g16
g2
Ntp202
Rp203
(dp204
g20
I0
sbsba(iclasses
Instance
p205
(dp206
g10
(iclasses
FeatureVector
p207
(dp208
g13
(dp209
I1
F6.0
sI2
F174.0
sI3
F9.0
sI6
F1.8888888
sI7
F1.0074061
sI8
F2.8888886
sI9
F4.0296297
sI10
F19.074074
sI11
F15.111111
sI12
F17.777779
sI13
F24.333334
sI14
F-11.888889
sI15
F-3.8888888
sI16
F15.777778
sI17
F24.333334
sI18
F0.38186744
sI19
F2.3950183
ssbsg15
g0
(g16
g2
Ntp210
Rp211
(dp212
g20
I1
sbsba(iclasses
Instance
p213
(dp214
g10
(iclasses
FeatureVector
p215
(dp216
g13
(dp217
I1
F140.0
sI2
F181.0
sI3
F9.0
sI4
F0.11111111
sI6
F0.8333333
sI7
F0.47777775
sI8
F1.2777777
sI9
F1.7074063
sI10
F19.296297
sI11
F15.444445
sI12
F18.444445
sI13
F24.0
sI14
F-11.555555
sI15
F-2.5555556
sI16
F14.111111
sI17
F24.0
sI18
F0.3576681
sI19
F2.4584713
ssbsg15
g0
(g16
g2
Ntp218
Rp219
(dp220
g20
I1
sbsba(iclasses
Instance
p221
(dp222
g10
(iclasses
FeatureVector
p223
(dp224
g13
(dp225
I1
F2.0
sI2
F245.0
sI3
F9.0
sI6
F1.8888888
sI7
F2.162963
sI8
F3.1666667
sI9
F3.2777781
sI10
F6.4074073
sI11
F6.2222223
sI12
F6.0
sI13
F7.0
sI14
F-0.5555556
sI15
F-1.2222222
sI16
F1.7777778
sI17
F7.2222223
sI18
F0.19104938
sI19
F1.7566451
ssbsg15
g0
(g16
g2
Ntp226
Rp227
(dp228
g20
I1
sbsba(iclasses
Instance
p229
(dp230
g10
(iclasses
FeatureVector
p231
(dp232
g13
(dp233
I1
F128.0
sI2
F116.0
sI3
F9.0
sI6
F0.77777785
sI7
F0.6962963
sI8
F0.8333333
sI9
F0.9222224
sI10
F1.962963
sI11
F0.22222222
sI12
F5.0
sI13
F0.6666667
sI14
F-5.2222223
sI15
F9.111111
sI16
F-3.8888888
sI17
F5.0
sI18
F0.9702381
sI19
F-2.1634343
ssbsg15
g0
(g16
g2
Ntp234
Rp235
(dp236
g20
I0
sbsba(iclasses
Instance
p237
(dp238
g10
(iclasses
FeatureVector
p239
(dp240
g13
(dp241
I1
F98.0
sI2
F144.0
sI3
F9.0
sI6
F0.22222221
sI7
F0.029629648
sI8
F0.33333334
sI9
F0.08888887
sI10
F1.0
sI12
F3.0
sI14
F-3.0
sI15
F6.0
sI16
F-3.0
sI17
F3.0
sI18
F1.0
sI19
F-2.0943952
ssbsg15
g0
(g16
g2
Ntp242
Rp243
(dp244
g20
I0
sbsba(iclasses
Instance
p245
(dp246
g10
(iclasses
FeatureVector
p247
(dp248
g13
(dp249
I1
F162.0
sI2
F237.0
sI3
F9.0
sI4
F0.11111111
sI6
F2.2777777
sI7
F1.1434193
sI8
F2.6666667
sI9
F2.564718
sI10
F13.222222
sI11
F10.888889
sI12
F10.0
sI13
F18.777779
sI14
F-7.0
sI15
F-9.666667
sI16
F16.666666
sI17
F18.777779
sI18
F0.47282594
sI19
F1.9903806
ssbsg15
g0
(g16
g2
Ntp250
Rp251
(dp252
g20
I1
sbsba(iclasses
Instance
p253
(dp254
g10
(iclasses
FeatureVector
p255
(dp256
g13
(dp257
I1
F59.0
sI2
F141.0
sI3
F9.0
sI4
F0.11111111
sI6
F2.3888888
sI7
F1.540803
sI8
F2.1666667
sI9
F1.278019
sI10
F12.666667
sI11
F7.888889
sI12
F18.555555
sI13
F11.555555
sI14
F-14.333333
sI15
F17.666666
sI16
F-3.3333333
sI17
F18.555555
sI18
F0.58577543
sI19
F-2.4515712
ssbsg15
g0
(g16
g2
Ntp258
Rp259
(dp260
g20
I0
sbsba(iclasses
Instance
p261
(dp262
g10
(iclasses
FeatureVector
p263
(dp264
g13
(dp265
I1
F46.0
sI2
F235.0
sI3
F9.0
sI6
F1.9444445
sI7
F1.8407409
sI8
F1.7222223
sI9
F3.574073
sI10
F10.888889
sI11
F7.5555553
sI12
F9.333334
sI13
F15.777778
sI14
F-10.0
sI15
F-4.6666665
sI16
F14.666667
sI17
F15.777778
sI18
F0.5203994
sI19
F2.3162425
ssbsg15
g0
(g16
g2
Ntp266
Rp267
(dp268
g20
I1
sbsba(iclasses
Instance
p269
(dp270
g10
(iclasses
FeatureVector
p271
(dp272
g13
(dp273
I1
F118.0
sI2
F109.0
sI3
F9.0
sI5
F0.11111111
sI6
F3.5555553
sI7
F2.6555324
sI8
F3.9999993
sI9
F3.0840094
sI10
F13.296296
sI11
F7.0
sI12
F22.333334
sI13
F10.555555
sI14
F-18.88889
sI15
F27.11111
sI16
F-8.222222
sI17
F22.333334
sI18
F0.694627
sI19
F-2.3440928
ssbsg15
g0
(g16
g2
Ntp274
Rp275
(dp276
g20
I0
sbsba(iclasses
Instance
p277
(dp278
g10
(iclasses
FeatureVector
p279
(dp280
g13
(dp281
I1
F124.0
sI2
F101.0
sI3
F9.0
sI5
F0.11111111
sI6
F3.3888886
sI7
F27.97407
sI8
F6.4444447
sI9
F59.496284
sI10
F10.185185
sI11
F5.7777777
sI12
F15.555555
sI13
F9.222222
sI14
F-13.222222
sI15
F16.11111
sI16
F-2.8888888
sI17
F15.555555
sI18
F0.70008737
sI19
F-2.4480398
ssbsg15
g0
(g16
g2
Ntp282
Rp283
(dp284
g20
I0
sbsba(iclasses
Instance
p285
(dp286
g10
(iclasses
FeatureVector
p287
(dp288
g13
(dp289
I1
F17.0
sI2
F110.0
sI3
F9.0
sI4
F0.11111111
sI6
F1.2777778
sI7
F1.2629629
sI8
F2.7222223
sI9
F2.9962952
sI10
F3.9629629
sI11
F1.4444444
sI12
F6.4444447
sI13
F4.0
sI14
F-7.5555553
sI15
F7.4444447
sI16
F0.11111111
sI17
F6.4444447
sI18
F0.80665785
sI19
F-2.6186507
ssbsg15
g0
(g16
g2
Ntp290
Rp291
(dp292
g20
I0
sbsba(iclasses
Instance
p293
(dp294
g10
(iclasses
FeatureVector
p295
(dp296
g13
(dp297
I1
F237.0
sI2
F191.0
sI3
F9.0
sI6
F1.0
sI7
F0.31111106
sI8
F1.5
sI9
F1.0111109
sI10
F7.3333335
sI11
F5.3333335
sI12
F5.4444447
sI13
F11.222222
sI14
F-6.0
sI15
F-5.6666665
sI16
F11.666667
sI17
F11.222222
sI18
F0.5358197
sI19
F2.1224225
ssbsg15
g0
(g16
g2
Ntp298
Rp299
(dp300
g20
I1
sbsba(iclasses
Instance
p301
(dp302
g10
(iclasses
FeatureVector
p303
(dp304
g13
(dp305
I1
F151.0
sI2
F187.0
sI3
F9.0
sI6
F1.2222222
sI7
F0.74074084
sI8
F2.0555556
sI9
F1.0407399
sI10
F11.62963
sI11
F9.333334
sI12
F9.666667
sI13
F15.888889
sI14
F-6.888889
sI15
F-5.888889
sI16
F12.777778
sI17
F15.888889
sI18
F0.42836255
sI19
F2.1566393
ssbsg15
g0
(g16
g2
Ntp306
Rp307
(dp308
g20
I1
sbsba(iclasses
Instance
p309
(dp310
g10
(iclasses
FeatureVector
p311
(dp312
g13
(dp313
I1
F27.0
sI2
F106.0
sI3
F9.0
sI6
F0.6111111
sI7
F0.41851848
sI8
F1.2777778
sI9
F0.5962963
sI10
F2.1851852
sI11
F0.33333334
sI12
F4.888889
sI13
F1.3333334
sI14
F-5.5555553
sI15
F8.111111
sI16
F-2.5555556
sI17
F4.888889
sI18
F0.9517196
sI19
F-2.2740705
ssbsg15
g0
(g16
g2
Ntp314
Rp315
(dp316
g20
I0
sbsba(iclasses
Instance
p317
(dp318
g10
(iclasses
FeatureVector
p319
(dp320
g13
(dp321
I1
F214.0
sI2
F246.0
sI3
F9.0
sI6
F2.8333328
sI7
F1.9177537
sI8
F2.9999993
sI9
F1.988857
sI10
F17.518518
sI11
F14.222222
sI12
F15.444445
sI13
F22.88889
sI14
F-9.888889
sI15
F-6.2222223
sI16
F16.11111
sI17
F22.88889
sI18
F0.39154765
sI19
F2.2328491
ssbsg15
g0
(g16
g2
Ntp322
Rp323
(dp324
g20
I1
sbsba(iclasses
Instance
p325
(dp326
g10
(iclasses
FeatureVector
p327
(dp328
g13
(dp329
I1
F10.0
sI2
F112.0
sI3
F9.0
sI6
F0.33333334
sI7
F0.42163706
sI8
F0.50000006
sI9
F0.1825741
sI10
F0.44444445
sI12
F1.2222222
sI13
F0.11111111
sI14
F-1.3333334
sI15
F2.3333333
sI16
F-1.0
sI17
F1.2222222
sI18
F0.6666667
sI19
F-2.1519136
ssbsg15
g0
(g16
g2
Ntp330
Rp331
(dp332
g20
I0
sbsba(iclasses
Instance
p333
(dp334
g10
(iclasses
FeatureVector
p335
(dp336
g13
(dp337
I1
F118.0
sI2
F167.0
sI3
F9.0
sI4
F0.11111111
sI6
F0.88888866
sI7
F0.5185182
sI8
F2.0555553
sI9
F0.99629617
sI10
F14.592592
sI11
F12.888889
sI12
F13.777778
sI13
F17.11111
sI14
F-5.111111
sI15
F-2.4444444
sI16
F7.5555553
sI17
F17.11111
sI18
F0.24844901
sI19
F2.3057292
ssbsg15
g0
(g16
g2
Ntp338
Rp339
(dp340
g20
I1
sbsba(iclasses
Instance
p341
(dp342
g10
(iclasses
FeatureVector
p343
(dp344
g13
(dp345
I1
F215.0
sI2
F123.0
sI3
F9.0
sI6
F0.33333334
sI7
F0.13333334
sI8
F0.6666667
sI9
F0.0444444
sI10
F1.3703704
sI12
F3.7777777
sI13
F0.33333334
sI14
F-4.111111
sI15
F7.2222223
sI16
F-3.1111112
sI17
F3.7777777
sI18
F1.0
sI19
F-2.1698651
ssbsg15
g0
(g16
g2
Ntp346
Rp347
(dp348
g20
I0
sbsba(iclasses
Instance
p349
(dp350
g10
(iclasses
FeatureVector
p351
(dp352
g13
(dp353
I1
F132.0
sI2
F124.0
sI3
F9.0
sI6
F0.22222221
sI7
F0.074074075
sI8
F0.22222221
sI9
F0.074074045
sI10
F1.074074
sI12
F3.2222223
sI14
F-3.2222223
sI15
F6.4444447
sI16
F-3.2222223
sI17
F3.2222223
sI18
F1.0
sI19
F-2.0943952
ssbsg15
g0
(g16
g2
Ntp354
Rp355
(dp356
g20
I0
sbsba(iclasses
Instance
p357
(dp358
g10
(iclasses
FeatureVector
p359
(dp360
g13
(dp361
I1
F2.0
sI2
F88.0
sI3
F9.0
sI6
F3.611111
sI7
F7.218519
sI8
F2.4999998
sI9
F5.855556
sI10
F7.7777777
sI11
F3.5555556
sI12
F13.333333
sI13
F6.4444447
sI14
F-12.666667
sI15
F16.666666
sI16
F-4.0
sI17
F13.333333
sI18
F0.7547033
sI19
F-2.3944926
ssbsg15
g0
(g16
g2
Ntp362
Rp363
(dp364
g20
I0
sbsba(iclasses
Instance
p365
(dp366
g10
(iclasses
FeatureVector
p367
(dp368
g13
(dp369
I1
F222.0
sI2
F194.0
sI3
F9.0
sI6
F2.2777774
sI7
F1.1434193
sI8
F2.2777777
sI9
F1.4207466
sI10
F20.185184
sI11
F16.555555
sI12
F17.88889
sI13
F26.11111
sI14
F-10.888889
sI15
F-6.888889
sI16
F17.777779
sI17
F26.11111
sI18
F0.3721296
sI19
F2.224382
ssbsg15
g0
(g16
g2
Ntp370
Rp371
(dp372
g20
I1
sbsba(iclasses
Instance
p373
(dp374
g10
(iclasses
FeatureVector
p375
(dp376
g13
(dp377
I1
F127.0
sI2
F143.0
sI3
F9.0
sI6
F1.5
sI7
F0.12222214
sI8
F0.88888884
sI9
F0.60740745
sI10
F4.185185
sI11
F0.8888889
sI12
F9.444445
sI13
F2.2222223
sI14
F-9.888889
sI15
F15.777778
sI16
F-5.888889
sI17
F9.444445
sI18
F0.915376
sI19
F-2.2574124
ssbsg15
g0
(g16
g2
Ntp378
Rp379
(dp380
g20
I0
sbsba(iclasses
Instance
p381
(dp382
g10
(iclasses
FeatureVector
p383
(dp384
g13
(dp385
I1
F205.0
sI2
F156.0
sI3
F9.0
sI6
F2.1666667
sI7
F1.2777781
sI8
F2.0
sI9
F2.3555562
sI10
F18.25926
sI11
F13.444445
sI12
F17.333334
sI13
F24.0
sI14
F-14.444445
sI15
F-2.7777777
sI16
F17.222221
sI17
F24.0
sI18
F0.44057688
sI19
F2.47582
ssbsg15
g0
(g16
g2
Ntp386
Rp387
(dp388
g20
I1
sbsba(iclasses
Instance
p389
(dp390
g10
(iclasses
FeatureVector
p391
(dp392
g13
(dp393
I1
F238.0
sI2
F211.0
sI3
F9.0
sI4
F0.11111111
sI6
F1.0555559
sI7
F0.49065375
sI8
F1.6111113
sI9
F1.2546215
sI10
F20.518518
sI11
F16.11111
sI12
F19.222221
sI13
F26.222221
sI14
F-13.222222
sI15
F-3.8888888
sI16
F17.11111
sI17
F26.222221
sI18
F0.38528243
sI19
F2.4163542
ssbsg15
g0
(g16
g2
Ntp394
Rp395
(dp396
g20
I1
sbsba(iclasses
Instance
p397
(dp398
g10
(iclasses
FeatureVector
p399
(dp400
g13
(dp401
I1
F239.0
sI2
F123.0
sI3
F9.0
sI6
F0.5
sI7
F0.077777736
sI8
F0.5
sI9
F0.16666667
sI10
F1.5185186
sI12
F4.2222223
sI13
F0.33333334
sI14
F-4.5555553
sI15
F8.111111
sI16
F-3.5555556
sI17
F4.2222223
sI18
F1.0
sI19
F-2.1640944
ssbsg15
g0
(g16
g2
Ntp402
Rp403
(dp404
g20
I0
sbsba(iclasses
Instance
p405
(dp406
g10
(iclasses
FeatureVector
p407
(dp408
g13
(dp409
I1
F58.0
sI2
F125.0
sI3
F9.0
sI6
F2.1666667
sI7
F1.1105559
sI8
F1.0555559
sI9
F0.90472007
sI10
F18.555555
sI11
F11.111111
sI12
F30.666666
sI13
F13.888889
sI14
F-22.333334
sI15
F36.333332
sI16
F-14.0
sI17
F30.666666
sI18
F0.6384555
sI19
F-2.2419562
ssbsg15
g0
(g16
g2
Ntp410
Rp411
(dp412
g20
I0
sbsba(iclasses
Instance
p413
(dp414
g10
(iclasses
FeatureVector
p415
(dp416
g13
(dp417
I1
F146.0
sI2
F238.0
sI3
F9.0
sI6
F2.0555556
sI7
F0.59629667
sI8
F2.6666665
sI9
F1.8666656
sI10
F17.777779
sI11
F15.0
sI12
F16.555555
sI13
F21.777779
sI14
F-8.333333
sI15
F-3.6666667
sI16
F12.0
sI17
F21.777779
sI18
F0.3152556
sI19
F2.3374724
ssbsg15
g0
(g16
g2
Ntp418
Rp419
(dp420
g20
I1
sbsba(iclasses
Instance
p421
(dp422
g10
(iclasses
FeatureVector
p423
(dp424
g13
(dp425
I1
F45.0
sI2
F185.0
sI3
F9.0
sI4
F0.11111111
sI6
F2.1666663
sI7
F3.7222214
sI8
F1.9444442
sI9
F2.6851857
sI10
F18.666666
sI11
F14.666667
sI12
F17.11111
sI13
F24.222221
sI14
F-12.0
sI15
F-4.6666665
sI16
F16.666666
sI17
F24.222221
sI18
F0.40087178
sI19
F2.3618267
ssbsg15
g0
(g16
g2
Ntp426
Rp427
(dp428
g20
I1
sbsba(iclasses
Instance
p429
(dp430
g10
(iclasses
FeatureVector
p431
(dp432
g13
(dp433
I1
F127.0
sI2
F120.0
sI3
F9.0
sI6
F0.5
sI7
F0.47777766
sI8
F0.72222215
sI9
F0.5962963
sI10
F1.5185186
sI11
F0.11111111
sI12
F4.111111
sI13
F0.33333334
sI14
F-4.2222223
sI15
F7.7777777
sI16
F-3.5555556
sI17
F4.111111
sI18
F0.984127
sI19
F-2.133095
ssbsg15
g0
(g16
g2
Ntp434
Rp435
(dp436
g20
I0
sbsba(iclasses
Instance
p437
(dp438
g10
(iclasses
FeatureVector
p439
(dp440
g13
(dp441
I1
F16.0
sI2
F82.0
sI3
F9.0
sI6
F4.3333335
sI7
F41.288895
sI8
F6.222223
sI9
F66.65185
sI10
F8.481482
sI11
F4.3333335
sI12
F14.555555
sI13
F6.5555553
sI14
F-12.444445
sI15
F18.222221
sI16
F-5.7777777
sI17
F14.555555
sI18
F0.7428191
sI19
F-2.3206284
ssbsg15
g0
(g16
g2
Ntp442
Rp443
(dp444
g20
I0
sbsba(iclasses
Instance
p445
(dp446
g10
(iclasses
FeatureVector
p447
(dp448
g13
(dp449
I1
F93.0
sI2
F236.0
sI3
F9.0
sI4
F0.11111111
sI6
F1.7777777
sI7
F2.6962965
sI8
F1.9999999
sI9
F0.93333334
sI10
F12.518518
sI11
F9.555555
sI12
F10.777778
sI13
F17.222223
sI14
F-8.888889
sI15
F-5.2222223
sI16
F14.111111
sI17
F17.222223
sI18
F0.44724658
sI19
F2.2671974
ssbsg15
g0
(g16
g2
Ntp450
Rp451
(dp452
g20
I1
sbsba(iclasses
Instance
p453
(dp454
g10
(iclasses
FeatureVector
p455
(dp456
g13
(dp457
I1
F237.0
sI2
F137.0
sI3
F9.0
sI6
F0.38888887
sI7
F0.1074074
sI8
F0.33333334
sI9
F0.04444445
sI10
F0.6666667
sI12
F2.0
sI14
F-2.0
sI15
F4.0
sI16
F-2.0
sI17
F2.0
sI18
F1.0
sI19
F-2.0943952
ssbsg15
g0
(g16
g2
Ntp458
Rp459
(dp460
g20
I0
sbsba(iclasses
Instance
p461
(dp462
g10
(iclasses
FeatureVector
p463
(dp464
g13
(dp465
I1
F254.0
sI2
F73.0
sI3
F9.0
sI6
F6.6666665
sI7
F7.865538
sI8
F9.444445
sI9
F12.33003
sI10
F34.703705
sI11
F20.555555
sI12
F57.333332
sI13
F26.222221
sI14
F-42.444443
sI15
F67.888885
sI16
F-25.444445
sI17
F57.333332
sI18
F0.6511328
sI19
F-2.2555614
ssbsg15
g0
(g16
g2
Ntp466
Rp467
(dp468
g20
I0
sbsba(iclasses
Instance
p469
(dp470
g10
(iclasses
FeatureVector
p471
(dp472
g13
(dp473
I1
F146.0
sI2
F201.0
sI3
F9.0
sI6
F0.61111087
sI7
F0.32773054
sI8
F1.0555555
sI9
F0.8004625
sI10
F10.666667
sI11
F8.666667
sI12
F7.0
sI13
F16.333334
sI14
F-6.0
sI15
F-11.0
sI16
F17.0
sI17
F16.333334
sI18
F0.5708515
sI19
F1.9092555
ssbsg15
g0
(g16
g2
Ntp474
Rp475
(dp476
g20
I1
sbsba(iclasses
Instance
p477
(dp478
g10
(iclasses
FeatureVector
p479
(dp480
g13
(dp481
I1
F54.0
sI2
F91.0
sI3
F9.0
sI6
F1.4444443
sI7
F1.540741
sI8
F0.8333333
sI9
F0.25555572
sI10
F3.2592592
sI11
F0.5555556
sI12
F8.0
sI13
F1.2222222
sI14
F-8.111111
sI15
F14.222222
sI16
F-6.111111
sI17
F8.0
sI18
F0.94481075
sI19
F-2.186723
ssbsg15
g0
(g16
g2
Ntp482
Rp483
(dp484
g20
I0
sbsba(iclasses
Instance
p485
(dp486
g10
(iclasses
FeatureVector
p487
(dp488
g13
(dp489
I1
F226.0
sI2
F233.0
sI3
F9.0
sI6
F2.7777774
sI7
F1.3185201
sI8
F1.777778
sI9
F1.0962962
sI10
F11.703704
sI11
F8.333334
sI12
F11.0
sI13
F15.777778
sI14
F-10.111111
sI15
F-2.1111112
sI16
F12.222222
sI17
F15.777778
sI18
F0.47394413
sI19
F2.476615
ssbsg15
g0
(g16
g2
Ntp490
Rp491
(dp492
g20
I1
sbsba(iclasses
Instance
p493
(dp494
g10
(iclasses
FeatureVector
p495
(dp496
g13
(dp497
I1
F3.0
sI2
F78.0
sI3
F9.0
sI5
F0.11111111
sI6
F14.833332
sI7
F356.16672
sI8
F43.333332
sI9
F662.35547
sI10
F79.666664
sI11
F70.77778
sI12
F91.44444
sI13
F76.77778
sI14
F-26.666666
sI15
F35.333332
sI16
F-8.666667
sI17
F91.44444
sI18
F0.26973316
sI19
F-2.4116454
ssbsg15
g0
(g16
g2
Ntp498
Rp499
(dp500
g20
I0
sbsba(iclasses
Instance
p501
(dp502
g10
(iclasses
FeatureVector
p503
(dp504
g13
(dp505
I1
F97.0
sI2
F123.0
sI3
F9.0
sI6
F0.38888887
sI7
F0.01851856
sI8
F0.16666666
sI9
F0.077777766
sI10
F1.1481482
sI12
F3.4444444
sI14
F-3.4444444
sI15
F6.888889
sI16
F-3.4444444
sI17
F3.4444444
sI18
F1.0
sI19
F-2.0943952
ssbsg15
g0
(g16
g2
Ntp506
Rp507
(dp508
g20
I0
sbsba(iclasses
Instance
p509
(dp510
g10
(iclasses
FeatureVector
p511
(dp512
g13
(dp513
I1
F115.0
sI2
F183.0
sI3
F9.0
sI6
F0.77777797
sI7
F0.38518497
sI8
F1.9999996
sI9
F1.4666661
sI10
F18.11111
sI11
F14.0
sI12
F17.333334
sI13
F23.0
sI14
F-12.333333
sI15
F-2.3333333
sI16
F14.666667
sI17
F23.0
sI18
F0.39236423
sI19
F2.4831982
ssbsg15
g0
(g16
g2
Ntp514
Rp515
(dp516
g20
I1
sbsba(iclasses
Instance
p517
(dp518
g10
(iclasses
FeatureVector
p519
(dp520
g13
(dp521
I1
F221.0
sI2
F195.0
sI3
F9.0
sI6
F1.2222223
sI7
F1.408966
sI8
F2.9444447
sI9
F1.5263131
sI10
F14.740741
sI11
F11.666667
sI12
F12.444445
sI13
F20.11111
sI14
F-9.222222
sI15
F-6.888889
sI16
F16.11111
sI17
F20.11111
sI18
F0.43448815
sI19
F2.1937644
ssbsg15
g0
(g16
g2
Ntp522
Rp523
(dp524
g20
I1
sbsba(iclasses
Instance
p525
(dp526
g10
(iclasses
FeatureVector
p527
(dp528
g13
(dp529
I1
F124.0
sI2
F183.0
sI3
F9.0
sI6
F1.7777778
sI7
F0.4296295
sI8
F2.2777774
sI9
F4.196296
sI10
F18.185184
sI11
F14.222222
sI12
F17.11111
sI13
F23.222221
sI14
F-11.888889
sI15
F-3.2222223
sI16
F15.111111
sI17
F23.222221
sI18
F0.38988227
sI19
F2.4280221
ssbsg15
g0
(g16
g2
Ntp530
Rp531
(dp532
g20
I1
sbsba(iclasses
Instance
p533
(dp534
g10
(iclasses
FeatureVector
p535
(dp536
g13
(dp537
I1
F145.0
sI2
F170.0
sI3
F9.0
sI6
F1.277778
sI7
F0.57413363
sI8
F1.222222
sI9
F0.86066276
sI10
F16.407408
sI11
F12.777778
sI12
F16.88889
sI13
F19.555555
sI14
F-10.888889
sI15
F1.4444444
sI16
F9.444445
sI17
F19.555555
sI18
F0.34671864
sI19
F2.7370737
ssbsg15
g0
(g16
g2
Ntp538
Rp539
(dp540
g20
I1
sbsba(iclasses
Instance
p541
(dp542
g10
(iclasses
FeatureVector
p543
(dp544
g13
(dp545
I1
F170.0
sI2
F226.0
sI3
F9.0
sI6
F1.5555553
sI7
F1.4246508
sI8
F2.3888888
sI9
F1.2895594
sI10
F11.888889
sI11
F10.111111
sI12
F8.0
sI13
F17.555555
sI14
F-5.3333335
sI15
F-11.666667
sI16
F17.0
sI17
F17.555555
sI18
F0.5483297
sI19
F1.872506
ssbsg15
g0
(g16
g2
Ntp546
Rp547
(dp548
g20
I1
sbsba(iclasses
Instance
p549
(dp550
g10
(iclasses
FeatureVector
p551
(dp552
g13
(dp553
I1
F6.0
sI2
F81.0
sI3
F9.0
sI5
F0.11111111
sI6
F4.111111
sI7
F8.740745
sI8
F5.722223
sI9
F28.50741
sI10
F12.481482
sI11
F7.6666665
sI12
F18.88889
sI13
F10.888889
sI14
F-14.444445
sI15
F19.222221
sI16
F-4.7777777
sI17
F18.88889
sI18
F0.6281558
sI19
F-2.388561
ssbsg15
g0
(g16
g2
Ntp554
Rp555
(dp556
g20
I0
sbsba(iclasses
Instance
p557
(dp558
g10
(iclasses
FeatureVector
p559
(dp560
g13
(dp561
I1
F32.0
sI2
F240.0
sI3
F9.0
sI6
F1.2777776
sI7
F1.540803
sI8
F2.2777777
sI9
F1.7051125
sI10
F12.148149
sI11
F9.777778
sI12
F9.333334
sI13
F17.333334
sI14
F-7.111111
sI15
F-8.444445
sI16
F15.555555
sI17
F17.333334
sI18
F0.47067475
sI19
F2.0438652
ssbsg15
g0
(g16
g2
Ntp562
Rp563
(dp564
g20
I1
sbsba(iclasses
Instance
p565
(dp566
g10
(iclasses
FeatureVector
p567
(dp568
g13
(dp569
I1
F4.0
sI2
F188.0
sI3
F9.0
sI6
F1.5555555
sI7
F0.68853056
sI8
F2.333333
sI9
F0.7601162
sI10
F15.740741
sI11
F13.333333
sI12
F14.0
sI13
F19.88889
sI14
F-7.2222223
sI15
F-5.2222223
sI16
F12.444445
sI17
F19.88889
sI18
F0.3424082
sI19
F2.2046695
ssbsg15
g0
(g16
g2
Ntp570
Rp571
(dp572
g20
I1
sbsba(iclasses
Instance
p573
(dp574
g10
(iclasses
FeatureVector
p575
(dp576
g13
(dp577
I1
F17.0
sI2
F98.0
sI3
F9.0
sI4
F0.11111111
sI6
F0.72222215
sI7
F0.71232533
sI8
F0.6666667
sI9
F0.73029673
sI10
F1.5185186
sI11
F0.33333334
sI12
F2.8888888
sI13
F1.3333334
sI14
F-3.5555556
sI15
F4.111111
sI16
F-0.5555556
sI17
F2.8888888
sI18
F0.9166667
sI19
F-2.4238
ssbsg15
g0
(g16
g2
Ntp578
Rp579
(dp580
g20
I0
sbsba(iclasses
Instance
p581
(dp582
g10
(iclasses
FeatureVector
p583
(dp584
g13
(dp585
I1
F81.0
sI2
F229.0
sI3
F9.0
sI4
F0.11111111
sI6
F2.4444444
sI7
F0.7851852
sI8
F2.0555553
sI9
F3.218518
sI10
F10.925926
sI11
F7.4444447
sI12
F10.666667
sI13
F14.666667
sI14
F-10.444445
sI15
F-0.7777778
sI16
F11.222222
sI17
F14.666667
sI18
F0.49614197
sI19
F2.5574577
ssbsg15
g0
(g16
g2
Ntp586
Rp587
(dp588
g20
I1
sbsba(iclasses
Instance
p589
(dp590
g10
(iclasses
FeatureVector
p591
(dp592
g13
(dp593
I1
F241.0
sI2
F90.0
sI3
F9.0
sI5
F0.11111111
sI6
F5.6666665
sI7
F23.377783
sI8
F6.7777786
sI9
F63.76296
sI10
F9.0
sI11
F4.7777777
sI12
F15.666667
sI13
F6.5555553
sI14
F-12.666667
sI15
F20.0
sI16
F-7.3333335
sI17
F15.666667
sI18
F0.7629189
sI19
F-2.2663894
ssbsg15
g0
(g16
g2
Ntp594
Rp595
(dp596
g20
I0
sbsba(iclasses
Instance
p597
(dp598
g10
(iclasses
FeatureVector
p599
(dp600
g13
(dp601
I1
F209.0
sI2
F249.0
sI3
F9.0
sI6
F2.4444444
sI7
F2.3851857
sI8
F2.8888886
sI9
F3.8074067
sI10
F8.555555
sI11
F8.0
sI12
F7.5555553
sI13
F10.111111
sI14
F-1.6666666
sI15
F-3.0
sI16
F4.6666665
sI17
F10.111111
sI18
F0.30902183
sI19
F1.9174206
ssbsg15
g0
(g16
g2
Ntp602
Rp603
(dp604
g20
I1
sbsba(iclasses
Instance
p605
(dp606
g10
(iclasses
FeatureVector
p607
(dp608
g13
(dp609
I1
F159.0
sI2
F210.0
sI3
F9.0
sI6
F1.4999999
sI7
F1.3666656
sI8
F1.5555555
sI9
F2.1629632
sI10
F12.962963
sI11
F9.444445
sI12
F12.0
sI13
F17.444445
sI14
F-10.555555
sI15
F-2.8888888
sI16
F13.444445
sI17
F17.444445
sI18
F0.4604365
sI19
F2.4287496
ssbsg15
g0
(g16
g2
Ntp610
Rp611
(dp612
g20
I1
sbsba(iclasses
Instance
p613
(dp614
g10
(iclasses
FeatureVector
p615
(dp616
g13
(dp617
I1
F75.0
sI2
F240.0
sI3
F9.0
sI6
F2.4444444
sI7
F1.9512578
sI8
F2.1111114
sI9
F1.3608272
sI10
F21.148148
sI11
F17.0
sI12
F17.88889
sI13
F28.555555
sI14
F-12.444445
sI15
F-9.777778
sI16
F22.222221
sI17
F28.555555
sI18
F0.41721755
sI19
F2.1755219
ssbsg15
g0
(g16
g2
Ntp618
Rp619
(dp620
g20
I1
sbsba(iclasses
Instance
p621
(dp622
g10
(iclasses
FeatureVector
p623
(dp624
g13
(dp625
I1
F91.0
sI2
F120.0
sI3
F9.0
sI6
F1.3888893
sI7
F0.9289578
sI8
F0.61111146
sI9
F0.77220225
sI10
F16.851852
sI11
F11.222222
sI12
F25.777779
sI13
F13.555555
sI14
F-16.88889
sI15
F26.777779
sI16
F-9.888889
sI17
F25.777779
sI18
F0.5621582
sI19
F-2.2308207
ssbsg15
g0
(g16
g2
Ntp626
Rp627
(dp628
g20
I0
sbsba(iclasses
Instance
p629
(dp630
g10
(iclasses
FeatureVector
p631
(dp632
g13
(dp633
I1
F44.0
sI2
F157.0
sI3
F9.0
sI6
F0.83333397
sI7
F0.30000025
sI8
F2.9444444
sI9
F7.6185203
sI10
F24.296297
sI11
F19.222221
sI12
F24.222221
sI13
F29.444445
sI14
F-15.222222
sI15
F-0.22222222
sI16
F15.444445
sI17
F29.444445
sI18
F0.35004318
sI19
F2.6043034
ssbsg15
g0
(g16
g2
Ntp634
Rp635
(dp636
g20
I1
sbsba(iclasses
Instance
p637
(dp638
g10
(iclasses
FeatureVector
p639
(dp640
g13
(dp641
I1
F124.0
sI2
F201.0
sI3
F9.0
sI6
F1.944445
sI7
F1.9597805
sI8
F2.0555556
sI9
F1.306678
sI10
F17.88889
sI11
F14.0
sI12
F14.888889
sI13
F24.777779
sI14
F-11.666667
sI15
F-9.0
sI16
F20.666666
sI17
F24.777779
sI18
F0.43971756
sI19
F2.1769927
ssbsg15
g0
(g16
g2
Ntp642
Rp643
(dp644
g20
I1
sbsba(iclasses
Instance
p645
(dp646
g10
(iclasses
FeatureVector
p647
(dp648
g13
(dp649
I1
F117.0
sI2
F224.0
sI3
F9.0
sI6
F3.0555556
sI7
F2.5596585
sI8
F3.0555556
sI9
F3.0215273
sI10
F20.25926
sI11
F15.444445
sI12
F17.777779
sI13
F27.555555
sI14
F-14.444445
sI15
F-7.4444447
sI16
F21.88889
sI17
F27.555555
sI18
F0.44151622
sI19
F2.3041532
ssbsg15
g0
(g16
g2
Ntp650
Rp651
(dp652
g20
I1
sbsba(iclasses
Instance
p653
(dp654
g10
(iclasses
FeatureVector
p655
(dp656
g13
(dp657
I1
F94.0
sI2
F144.0
sI3
F9.0
sI6
F0.44444442
sI7
F0.118518494
sI8
F0.49999997
sI9
F0.1666667
sI10
F1.1481482
sI12
F3.4444444
sI14
F-3.4444444
sI15
F6.888889
sI16
F-3.4444444
sI17
F3.4444444
sI18
F1.0
sI19
F-2.0943952
ssbsg15
g0
(g16
g2
Ntp658
Rp659
(dp660
g20
I0
sbsba(iclasses
Instance
p661
(dp662
g10
(iclasses
FeatureVector
p663
(dp664
g13
(dp665
I1
F34.0
sI2
F196.0
sI3
F9.0
sI6
F1.3888888
sI7
F2.0185175
sI8
F2.3888886
sI9
F1.2185196
sI10
F15.703704
sI11
F12.444445
sI12
F15.111111
sI13
F19.555555
sI14
F-9.777778
sI15
F-1.7777778
sI16
F11.555555
sI17
F19.555555
sI18
F0.36523178
sI19
F2.511766
ssbsg15
g0
(g16
g2
Ntp666
Rp667
(dp668
g20
I1
sbsba(iclasses
Instance
p669
(dp670
g10
(iclasses
FeatureVector
p671
(dp672
g13
(dp673
I1
F212.0
sI2
F160.0
sI3
F9.0
sI6
F1.4444441
sI7
F1.2938602
sI8
F1.4444443
sI9
F1.7722135
sI10
F23.25926
sI11
F17.777779
sI12
F23.444445
sI13
F28.555555
sI14
F-16.444445
sI15
F0.5555556
sI16
F15.888889
sI17
F28.555555
sI18
F0.37821564
sI19
F2.6425967
ssbsg15
g0
(g16
g2
Ntp674
Rp675
(dp676
g20
I1
sbsba(iclasses
Instance
p677
(dp678
g10
(iclasses
FeatureVector
p679
(dp680
g13
(dp681
I1
F21.0
sI2
F232.0
sI3
F9.0
sI6
F2.3888888
sI7
F2.6851852
sI8
F2.277778
sI9
F2.3740737
sI10
F13.555555
sI11
F11.333333
sI12
F12.333333
sI13
F17.0
sI14
F-6.6666665
sI15
F-3.6666667
sI16
F10.333333
sI17
F17.0
sI18
F0.32791784
sI19
F2.2831473
ssbsg15
g0
(g16
g2
Ntp682
Rp683
(dp684
g20
I1
sbsba(iclasses
Instance
p685
(dp686
g10
(iclasses
FeatureVector
p687
(dp688
g13
(dp689
I1
F106.0
sI2
F107.0
sI3
F9.0
sI6
F1.111111
sI7
F0.72008204
sI8
F0.6666667
sI9
F0.4216372
sI10
F22.555555
sI11
F13.0
sI12
F36.0
sI13
F18.666668
sI14
F-28.666666
sI15
F40.333332
sI16
F-11.666667
sI17
F36.0
sI18
F0.6385408
sI19
F-2.3546174
ssbsg15
g0
(g16
g2
Ntp690
Rp691
(dp692
g20
I0
sbsba(iclasses
Instance
p693
(dp694
g10
(iclasses
FeatureVector
p695
(dp696
g13
(dp697
I1
F123.0
sI2
F136.0
sI3
F9.0
sI6
F0.5555555
sI7
F1.0962964
sI8
F0.6666666
sI9
F1.3333331
sI10
F1.1111112
sI11
F0.11111111
sI12
F3.0
sI13
F0.22222222
sI14
F-3.0
sI15
F5.6666665
sI16
F-2.6666667
sI17
F3.0
sI18
F0.9861111
sI19
F-2.1109743
ssbsg15
g0
(g16
g2
Ntp698
Rp699
(dp700
g20
I0
sbsba(iclasses
Instance
p701
(dp702
g10
(iclasses
FeatureVector
p703
(dp704
g13
(dp705
I1
F44.0
sI2
F162.0
sI3
F9.0
sI6
F0.88888836
sI7
F0.4554205
sI8
F1.9444447
sI9
F1.3567389
sI10
F24.518518
sI11
F19.555555
sI12
F24.11111
sI13
F29.88889
sI14
F-14.888889
sI15
F-1.2222222
sI16
F16.11111
sI17
F29.88889
sI18
F0.34703225
sI19
F2.5573888
ssbsg15
g0
(g16
g2
Ntp706
Rp707
(dp708
g20
I1
sbsba(iclasses
Instance
p709
(dp710
g10
(iclasses
FeatureVector
p711
(dp712
g13
(dp713
I1
F14.0
sI2
F71.0
sI3
F9.0
sI6
F13.055554
sI7
F10.382501
sI8
F21.888885
sI9
F16.536379
sI10
F31.851852
sI11
F25.555555
sI12
F40.22222
sI13
F29.777779
sI14
F-18.88889
sI15
F25.11111
sI16
F-6.2222223
sI17
F40.22222
sI18
F0.39567065
sI19
F-2.4018247
ssbsg15
g0
(g16
g2
Ntp714
Rp715
(dp716
g20
I0
sbsba(iclasses
Instance
p717
(dp718
g10
(iclasses
FeatureVector
p719
(dp720
g13
(dp721
I1
F233.0
sI2
F184.0
sI3
F9.0
sI6
F0.5000002
sI7
F0.077777766
sI8
F0.7777777
sI9
F0.785185
sI10
F11.851851
sI11
F9.777778
sI12
F9.888889
sI13
F15.888889
sI14
F-6.2222223
sI15
F-5.888889
sI16
F12.111111
sI17
F15.888889
sI18
F0.40555555
sI19
F2.1286457
ssbsg15
g0
(g16
g2
Ntp722
Rp723
(dp724
g20
I1
sbsba(iclasses
Instance
p725
(dp726
g10
(iclasses
FeatureVector
p727
(dp728
g13
(dp729
I1
F180.0
sI2
F224.0
sI3
F9.0
sI6
F3.7222223
sI7
F3.7074065
sI8
F3.6111107
sI9
F5.618522
sI10
F15.185185
sI11
F11.666667
sI12
F13.333333
sI13
F20.555555
sI14
F-10.555555
sI15
F-5.5555553
sI16
F16.11111
sI17
F20.555555
sI18
F0.4433746
sI19
F2.2982552
ssbsg15
g0
(g16
g2
Ntp730
Rp731
(dp732
g20
I1
sbsba(iclasses
Instance
p733
(dp734
g10
(iclasses
FeatureVector
p735
(dp736
g13
(dp737
I1
F186.0
sI2
F218.0
sI3
F9.0
sI6
F1.1666666
sI7
F0.74444425
sI8
F1.1666665
sI9
F0.65555507
sI10
F13.703704
sI11
F10.666667
sI12
F12.666667
sI13
F17.777779
sI14
F-9.111111
sI15
F-3.1111112
sI16
F12.222222
sI17
F17.777779
sI18
F0.40134683
sI19
F2.3826835
ssbsg15
g0
(g16
g2
Ntp738
Rp739
(dp740
g20
I1
sbsba(iclasses
Instance
p741
(dp742
g10
(iclasses
FeatureVector
p743
(dp744
g13
(dp745
I1
F202.0
sI2
F208.0
sI3
F9.0
sI6
F1.7222223
sI7
F1.3962964
sI8
F1.8333334
sI9
F3.0555542
sI10
F19.25926
sI11
F15.555555
sI12
F17.666668
sI13
F24.555555
sI14
F-11.111111
sI15
F-4.7777777
sI16
F15.888889
sI17
F24.555555
sI18
F0.36886615
sI19
F2.3967707
ssbsg15
g0
(g16
g2
Ntp746
Rp747
(dp748
g20
I1
sbsba(iclasses
Instance
p749
(dp750
g10
(iclasses
FeatureVector
p751
(dp752
g13
(dp753
I1
F200.0
sI2
F165.0
sI3
F9.0
sI4
F0.11111111
sI6
F2.277778
sI7
F3.9740758
sI8
F1.7777776
sI9
F0.9185186
sI10
F17.333334
sI11
F12.888889
sI12
F16.444445
sI13
F22.666666
sI14
F-13.333333
sI15
F-2.6666667
sI16
F16.0
sI17
F22.666666
sI18
F0.43081954
sI19
F2.4711971
ssbsg15
g0
(g16
g2
Ntp754
Rp755
(dp756
g20
I1
sbsba(iclasses
Instance
p757
(dp758
g10
(iclasses
FeatureVector
p759
(dp760
g13
(dp761
I1
F116.0
sI2
F238.0
sI3
F9.0
sI6
F1.1666665
sI7
F0.87777746
sI8
F1.0555556
sI9
F2.2851841
sI10
F8.518518
sI11
F7.4444447
sI12
F5.6666665
sI13
F12.444445
sI14
F-3.2222223
sI15
F-8.555555
sI16
F11.777778
sI17
F12.444445
sI18
F0.54054004
sI19
F1.8447257
ssbsg15
g0
(g16
g2
Ntp762
Rp763
(dp764
g20
I1
sbsba(iclasses
Instance
p765
(dp766
g10
(iclasses
FeatureVector
p767
(dp768
g13
(dp769
I1
F158.0
sI2
F219.0
sI3
F9.0
sI4
F0.11111111
sI6
F2.277778
sI7
F3.5296311
sI8
F2.1111112
sI9
F4.074075
sI10
F14.888889
sI11
F11.444445
sI12
F13.555555
sI13
F19.666668
sI14
F-10.333333
sI15
F-4.0
sI16
F14.333333
sI17
F19.666668
sI18
F0.42601216
sI19
F2.3586955
ssbsg15
g0
(g16
g2
Ntp770
Rp771
(dp772
g20
I1
sbsba(iclasses
Instance
p773
(dp774
g10
(iclasses
FeatureVector
p775
(dp776
g13
(dp777
I1
F176.0
sI2
F233.0
sI3
F9.0
sI4
F0.11111111
sI6
F1.4444443
sI7
F1.1482676
sI8
F2.611111
sI9
F1.90224
sI10
F12.481482
sI11
F10.333334
sI12
F8.333334
sI13
F18.777779
sI14
F-6.4444447
sI15
F-12.444445
sI16
F18.88889
sI17
F18.777779
sI18
F0.554881
sI19
F1.9036856
ssbsg15
g0
(g16
g2
Ntp778
Rp779
(dp780
g20
I1
sbsba(iclasses
Instance
p781
(dp782
g10
(iclasses
FeatureVector
p783
(dp784
g13
(dp785
I1
F128.0
sI2
F175.0
sI3
F9.0
sI6
F2.1666667
sI7
F4.2111096
sI8
F2.7222214
sI9
F4.3296275
sI10
F23.777779
sI11
F20.88889
sI12
F21.777779
sI13
F28.666666
sI14
F-8.666667
sI15
F-6.0
sI16
F14.666667
sI17
F28.666666
sI18
F0.2849537
sI19
F2.2635381
ssbsg15
g0
(g16
g2
Ntp786
Rp787
(dp788
g20
I1
sbsba(iclasses
Instance
p789
(dp790
g10
(iclasses
FeatureVector
p791
(dp792
g13
(dp793
I1
F71.0
sI2
F125.0
sI3
F9.0
sI6
F0.6666667
sI7
F0.47140455
sI8
F0.7222223
sI9
F0.49065357
sI10
F16.407408
sI11
F12.444445
sI12
F23.666666
sI13
F13.111111
sI14
F-11.888889
sI15
F21.777779
sI16
F-9.888889
sI17
F25.333334
sI18
F0.56104016
sI19
F-1.7934027
ssbsg15
g0
(g16
g2
Ntp794
Rp795
(dp796
g20
I0
sbsba(iclasses
Instance
p797
(dp798
g10
(iclasses
FeatureVector
p799
(dp800
g13
(dp801
I1
F33.0
sI2
F117.0
sI3
F9.0
sI6
F0.2777778
sI7
F0.018518511
sI8
F0.11111111
sI9
F0.029629635
sI10
F1.074074
sI12
F3.1111112
sI13
F0.11111111
sI14
F-3.2222223
sI15
F6.111111
sI16
F-2.8888888
sI17
F3.1111112
sI18
F1.0
sI19
F-2.132635
ssbsg15
g0
(g16
g2
Ntp802
Rp803
(dp804
g20
I0
sbsba(iclasses
Instance
p805
(dp806
g10
(iclasses
FeatureVector
p807
(dp808
g13
(dp809
I1
F220.0
sI2
F124.0
sI3
F9.0
sI6
F0.22222221
sI7
F0.029629631
sI8
F0.44444442
sI9
F0.07407406
sI10
F0.8888889
sI12
F2.4444444
sI13
F0.22222222
sI14
F-2.6666667
sI15
F4.6666665
sI16
F-2.0
sI17
F2.4444444
sI18
F1.0
sI19
F-2.1617603
ssbsg15
g0
(g16
g2
Ntp810
Rp811
(dp812
g20
I0
sbsba(iclasses
Instance
p813
(dp814
g10
(iclasses
FeatureVector
p815
(dp816
g13
(dp817
I1
F234.0
sI2
F164.0
sI3
F9.0
sI6
F0.5000002
sI7
F0.2111112
sI8
F3.0
sI9
F8.04445
sI10
F13.666667
sI11
F11.666667
sI12
F15.0
sI13
F14.333333
sI14
F-6.0
sI15
F4.0
sI16
F2.0
sI17
F16.88889
sI18
F0.29914993
sI19
F2.87512
ssbsg15
g0
(g16
g2
Ntp818
Rp819
(dp820
g20
I1
sbsba(iclasses
Instance
p821
(dp822
g10
(iclasses
FeatureVector
p823
(dp824
g13
(dp825
I1
F225.0
sI2
F244.0
sI3
F9.0
sI6
F3.3888886
sI7
F2.1951127
sI8
F2.9999998
sI9
F1.5202343
sI10
F12.259259
sI11
F10.333334
sI12
F9.333334
sI13
F17.11111
sI14
F-5.7777777
sI15
F-8.777778
sI16
F14.555555
sI17
F17.11111
sI18
F0.48014903
sI19
F1.9879022
ssbsg15
g0
(g16
g2
Ntp826
Rp827
(dp828
g20
I1
sbsba(iclasses
Instance
p829
(dp830
g10
(iclasses
FeatureVector
p831
(dp832
g13
(dp833
I1
F217.0
sI2
F208.0
sI3
F9.0
sI6
F2.5000002
sI7
F2.1666656
sI8
F2.6666667
sI9
F2.4444458
sI10
F16.074074
sI11
F12.666667
sI12
F14.444445
sI13
F21.11111
sI14
F-10.222222
sI15
F-4.888889
sI16
F15.111111
sI17
F21.11111
sI18
F0.40212956
sI19
F2.3109324
ssbsg15
g0
(g16
g2
Ntp834
Rp835
(dp836
g20
I1
sbsba(iclasses
Instance
p837
(dp838
g10
(iclasses
FeatureVector
p839
(dp840
g13
(dp841
I1
F207.0
sI2
F217.0
sI3
F9.0
sI6
F0.77777785
sI7
F0.47407398
sI8
F2.0555556
sI9
F0.9074081
sI10
F6.296296
sI11
F5.0
sI12
F4.2222223
sI13
F9.666667
sI14
F-3.8888888
sI15
F-6.2222223
sI16
F10.111111
sI17
F9.666667
sI18
F0.58261186
sI19
F1.9761382
ssbsg15
g0
(g16
g2
Ntp842
Rp843
(dp844
g20
I1
sbsba(iclasses
Instance
p845
(dp846
g10
(iclasses
FeatureVector
p847
(dp848
g13
(dp849
I1
F94.0
sI2
F215.0
sI3
F9.0
sI6
F3.1111114
sI7
F5.0962954
sI8
F1.6111113
sI9
F1.1296293
sI10
F17.185184
sI11
F14.333333
sI12
F14.333333
sI13
F22.88889
sI14
F-8.555555
sI15
F-8.555555
sI16
F17.11111
sI17
F22.88889
sI18
F0.4043918
sI19
F2.1051967
ssbsg15
g0
(g16
g2
Ntp850
Rp851
(dp852
g20
I1
sbsba(iclasses
Instance
p853
(dp854
g10
(iclasses
FeatureVector
p855
(dp856
g13
(dp857
I1
F98.0
sI2
F107.0
sI3
F9.0
sI6
F4.6666665
sI7
F3.7333333
sI8
F3.9444447
sI9
F17.12963
sI10
F8.703704
sI11
F4.888889
sI12
F14.555555
sI13
F6.6666665
sI14
F-11.444445
sI15
F17.555555
sI16
F-6.111111
sI17
F14.555555
sI18
F0.69722587
sI19
F-2.2801461
ssbsg15
g0
(g16
g2
Ntp858
Rp859
(dp860
g20
I0
sbsba(iclasses
Instance
p861
(dp862
g10
(iclasses
FeatureVector
p863
(dp864
g13
(dp865
I1
F95.0
sI2
F127.0
sI3
F9.0
sI6
F0.22222222
sI7
F0.07407406
sI8
F0.22222222
sI9
F0.02962962
sI10
F0.6296296
sI12
F1.8888888
sI14
F-1.8888888
sI15
F3.7777777
sI16
F-1.8888888
sI17
F1.8888888
sI18
F1.0
sI19
F-2.0943952
ssbsg15
g0
(g16
g2
Ntp866
Rp867
(dp868
g20
I0
sbsba(iclasses
Instance
p869
(dp870
g10
(iclasses
FeatureVector
p871
(dp872
g13
(dp873
I1
F212.0
sI2
F239.0
sI3
F9.0
sI6
F1.9444443
sI7
F1.4516913
sI8
F2.3333333
sI9
F2.8205595
sI10
F10.37037
sI11
F7.6666665
sI12
F9.666667
sI13
F13.777778
sI14
F-8.111111
sI15
F-2.1111112
sI16
F10.222222
sI17
F13.777778
sI18
F0.4459687
sI19
F2.4263785
ssbsg15
g0
(g16
g2
Ntp874
Rp875
(dp876
g20
I1
sbsba(iclasses
Instance
p877
(dp878
g10
(iclasses
FeatureVector
p879
(dp880
g13
(dp881
I1
F41.0
sI2
F75.0
sI3
F9.0
sI5
F0.11111111
sI6
F15.388889
sI7
F19.136257
sI8
F26.611113
sI9
F31.71359
sI10
F55.0
sI11
F47.444443
sI12
F65.44444
sI13
F52.11111
sI14
F-22.666666
sI15
F31.333334
sI16
F-8.666667
sI17
F65.44444
sI18
F0.29780185
sI19
F-2.3567543
ssbsg15
g0
(g16
g2
Ntp882
Rp883
(dp884
g20
I0
sbsba(iclasses
Instance
p885
(dp886
g10
(iclasses
FeatureVector
p887
(dp888
g13
(dp889
I1
F4.0
sI2
F96.0
sI3
F9.0
sI6
F2.222222
sI7
F2.9629638
sI8
F1.5555555
sI9
F2.2518516
sI10
F3.5555556
sI11
F0.8888889
sI12
F7.7777777
sI13
F2.0
sI14
F-8.0
sI15
F12.666667
sI16
F-4.6666665
sI17
F7.7777777
sI18
F0.91006523
sI19
F-2.2444818
ssbsg15
g0
(g16
g2
Ntp890
Rp891
(dp892
g20
I0
sbsba(iclasses
Instance
p893
(dp894
g10
(iclasses
FeatureVector
p895
(dp896
g13
(dp897
I1
F235.0
sI2
F120.0
sI3
F9.0
sI6
F0.44444442
sI7
F0.3407407
sI8
F0.49999997
sI9
F0.30000004
sI10
F1.4444444
sI12
F4.0
sI13
F0.33333334
sI14
F-4.3333335
sI15
F7.6666665
sI16
F-3.3333333
sI17
F4.0
sI18
F1.0
sI19
F-2.1563656
ssbsg15
g0
(g16
g2
Ntp898
Rp899
(dp900
g20
I0
sbsba(iclasses
Instance
p901
(dp902
g10
(iclasses
FeatureVector
p903
(dp904
g13
(dp905
I1
F94.0
sI2
F224.0
sI3
F9.0
sI6
F1.3888887
sI7
F1.8407407
sI8
F0.9444442
sI9
F0.5518519
sI10
F13.444445
sI11
F10.0
sI12
F11.888889
sI13
F18.444445
sI14
F-10.333333
sI15
F-4.6666665
sI16
F15.0
sI17
F18.444445
sI18
F0.45764294
sI19
F2.3281083
ssbsg15
g0
(g16
g2
Ntp906
Rp907
(dp908
g20
I1
sbsba(iclasses
Instance
p909
(dp910
g10
(iclasses
FeatureVector
p911
(dp912
g13
(dp913
I1
F179.0
sI2
F150.0
sI3
F9.0
sI6
F1.055555
sI7
F0.1962963
sI8
F1.7222223
sI9
F1.6185163
sI10
F18.925926
sI11
F13.444445
sI12
F20.0
sI13
F23.333334
sI14
F-16.444445
sI15
F3.2222223
sI16
F13.222222
sI17
F23.333334
sI18
F0.42442176
sI19
F2.7916744
ssbsg15
g0
(g16
g2
Ntp914
Rp915
(dp916
g20
I1
sbsba(iclasses
Instance
p917
(dp918
g10
(iclasses
FeatureVector
p919
(dp920
g13
(dp921
I1
F72.0
sI2
F111.0
sI3
F9.0
sI6
F0.5
sI7
F0.3
sI8
F0.9444444
sI9
F1.396296
sI10
F1.2962962
sI12
F3.5555556
sI13
F0.33333334
sI14
F-3.8888888
sI15
F6.7777777
sI16
F-2.8888888
sI17
F3.5555556
sI18
F1.0
sI19
F-2.1394942
ssbsg15
g0
(g16
g2
Ntp922
Rp923
(dp924
g20
I0
sbsba(iclasses
Instance
p925
(dp926
g10
(iclasses
FeatureVector
p927
(dp928
g13
(dp929
I1
F55.0
sI2
F93.0
sI3
F9.0
sI4
F0.11111111
sI6
F0.83333343
sI7
F0.2999998
sI8
F1.388889
sI9
F1.7962962
sI10
F3.0
sI11
F0.5555556
sI12
F7.2222223
sI13
F1.2222222
sI14
F-7.3333335
sI15
F12.666667
sI16
F-5.3333335
sI17
F7.2222223
sI18
F0.9356702
sI19
F-2.1836095
ssbsg15
g0
(g16
g2
Ntp930
Rp931
(dp932
g20
I0
sbsba(iclasses
Instance
p933
(dp934
g10
(iclasses
FeatureVector
p935
(dp936
g13
(dp937
I1
F170.0
sI2
F185.0
sI3
F9.0
sI6
F0.611111
sI7
F0.44305348
sI8
F1.4444447
sI9
F1.0470417
sI10
F10.740741
sI11
F8.111112
sI12
F9.777778
sI13
F14.333333
sI14
F-7.888889
sI15
F-2.8888888
sI16
F10.777778
sI17
F14.333333
sI18
F0.4351852
sI19
F2.3628104
ssbsg15
g0
(g16
g2
Ntp938
Rp939
(dp940
g20
I1
sbsba(iclasses
Instance
p941
(dp942
g10
(iclasses
FeatureVector
p943
(dp944
g13
(dp945
I1
F245.0
sI2
F238.0
sI3
F9.0
sI4
F0.11111111
sI6
F1.6666665
sI7
F2.5385911
sI8
F2.3333333
sI9
F2.4404008
sI10
F8.925926
sI11
F6.3333335
sI12
F6.5555553
sI13
F13.888889
sI14
F-7.7777777
sI15
F-7.111111
sI16
F14.888889
sI17
F13.888889
sI18
F0.59701496
sI19
F2.1260629
ssbsg15
g0
(g16
g2
Ntp946
Rp947
(dp948
g20
I1
sbsba(iclasses
Instance
p949
(dp950
g10
(iclasses
FeatureVector
p951
(dp952
g13
(dp953
I1
F90.0
sI2
F189.0
sI3
F9.0
sI6
F0.88888884
sI7
F0.7793635
sI8
F1.0555555
sI9
F0.82775915
sI10
F12.888889
sI11
F10.444445
sI12
F9.444445
sI13
F18.777779
sI14
F-7.3333335
sI15
F-10.333333
sI16
F17.666666
sI17
F18.777779
sI18
F0.49709514
sI19
F1.9855517
ssbsg15
g0
(g16
g2
Ntp954
Rp955
(dp956
g20
I1
sbsba(iclasses
Instance
p957
(dp958
g10
(iclasses
FeatureVector
p959
(dp960
g13
(dp961
I1
F60.0
sI2
F132.0
sI3
F9.0
sI6
F0.11111113
sI7
F0.029629637
sI8
F0.22222222
sI9
F0.029629637
sI10
F0.37037036
sI12
F1.1111112
sI14
F-1.1111112
sI15
F2.2222223
sI16
F-1.1111112
sI17
F1.1111112
sI18
F0.8888889
sI19
F-2.0943952
ssbsg15
g0
(g16
g2
Ntp962
Rp963
(dp964
g20
I0
sbsba(iclasses
Instance
p965
(dp966
g10
(iclasses
FeatureVector
p967
(dp968
g13
(dp969
I1
F19.0
sI2
F133.0
sI3
F9.0
ssbsg15
g0
(g16
g2
Ntp970
Rp971
(dp972
g20
I0
sbsba(iclasses
Instance
p973
(dp974
g10
(iclasses
FeatureVector
p975
(dp976
g13
(dp977
I1
F232.0
sI2
F126.0
sI3
F9.0
sI5
F0.11111111
sI6
F2.3888888
sI7
F11.885187
sI8
F1.2222223
sI9
F6.2962966
sI10
F1.5185186
sI11
F0.44444445
sI12
F3.5555556
sI13
F0.5555556
sI14
F-3.2222223
sI15
F6.111111
sI16
F-2.8888888
sI17
F3.5555556
sI18
F0.96581197
sI19
F-2.1073034
ssbsg15
g0
(g16
g2
Ntp978
Rp979
(dp980
g20
I0
sbsba(iclasses
Instance
p981
(dp982
g10
(iclasses
FeatureVector
p983
(dp984
g13
(dp985
I1
F81.0
sI2
F126.0
sI3
F9.0
sI5
F0.11111111
sI6
F1.9444443
sI7
F1.12963
sI8
F1.0555555
sI9
F0.28518513
sI10
F2.9629629
sI11
F0.5555556
sI12
F6.5555553
sI13
F1.7777778
sI14
F-7.2222223
sI15
F10.777778
sI16
F-3.5555556
sI17
F6.5555553
sI18
F0.93570626
sI19
F-2.2890973
ssbsg15
g0
(g16
g2
Ntp986
Rp987
(dp988
g20
I0
sbsba(iclasses
Instance
p989
(dp990
g10
(iclasses
FeatureVector
p991
(dp992
g13
(dp993
I1
F231.0
sI2
F198.0
sI3
F9.0
sI4
F0.11111111
sI6
F0.9999997
sI7
F0.13333334
sI8
F1.111111
sI9
F1.2296298
sI10
F15.814815
sI11
F12.444445
sI12
F14.222222
sI13
F20.777779
sI14
F-10.111111
sI15
F-4.7777777
sI16
F14.888889
sI17
F20.777779
sI18
F0.40090325
sI19
F2.3248901
ssbsg15
g0
(g16
g2
Ntp994
Rp995
(dp996
g20
I1
sbsba(iclasses
Instance
p997
(dp998
g10
(iclasses
FeatureVector
p999
(dp1000
g13
(dp1001
I1
F196.0
sI2
F100.0
sI3
F9.0
sI6
F7.277777
sI7
F83.351845
sI8
F5.777778
sI9
F68.87406
sI10
F8.148149
sI11
F4.666667
sI12
F13.333333
sI13
F6.4444447
sI14
F-10.444445
sI15
F15.555555
sI16
F-5.111111
sI17
F13.333333
sI18
F0.7380342
sI19
F-2.2898738
ssbsg15
g0
(g16
g2
Ntp1002
Rp1003
(dp1004
g20
I0
sbsba(iclasses
Instance
p1005
(dp1006
g10
(iclasses
FeatureVector
p1007
(dp1008
g13
(dp1009
I1
F224.0
sI2
F95.0
sI3
F9.0
sI6
F1.2222223
sI7
F0.47407404
sI8
F1.0555557
sI9
F0.7296295
sI10
F3.5185184
sI11
F0.8888889
sI12
F7.2222223
sI13
F2.4444444
sI14
F-7.888889
sI15
F11.111111
sI16
F-3.2222223
sI17
F7.2222223
sI18
F0.88955027
sI19
F-2.3489873
ssbsg15
g0
(g16
g2
Ntp1010
Rp1011
(dp1012
g20
I0
sbsba(iclasses
Instance
p1013
(dp1014
g10
(iclasses
FeatureVector
p1015
(dp1016
g13
(dp1017
I1
F45.0
sI2
F126.0
sI3
F9.0
sI6
F7.0
sI7
F3.870114
sI8
F2.5555556
sI9
F1.7971169
sI10
F10.185185
sI11
F4.888889
sI12
F17.222223
sI13
F8.444445
sI14
F-15.888889
sI15
F21.11111
sI16
F-5.2222223
sI17
F17.222223
sI18
F0.7364309
sI19
F-2.4498394
ssbsg15
g0
(g16
g2
Ntp1018
Rp1019
(dp1020
g20
I0
sbsba(iclasses
Instance
p1021
(dp1022
g10
(iclasses
FeatureVector
p1023
(dp1024
g13
(dp1025
I1
F29.0
sI2
F195.0
sI3
F9.0
sI6
F0.44444433
sI7
F0.40368652
sI8
F0.61111087
sI9
F0.6804136
sI10
F16.037037
sI11
F14.444445
sI12
F13.333333
sI13
F20.333334
sI14
F-4.7777777
sI15
F-8.111111
sI16
F12.888889
sI17
F20.333334
sI18
F0.34230694
sI19
F1.9430399
ssbsg15
g0
(g16
g2
Ntp1026
Rp1027
(dp1028
g20
I1
sbsba(iclasses
Instance
p1029
(dp1030
g10
(iclasses
FeatureVector
p1031
(dp1032
g13
(dp1033
I1
F203.0
sI2
F93.0
sI3
F9.0
sI6
F2.6666667
sI7
F6.4444437
sI8
F3.4444444
sI9
F11.674076
sI10
F6.7777777
sI11
F3.2222223
sI12
F11.888889
sI13
F5.2222223
sI14
F-10.666667
sI15
F15.333333
sI16
F-4.6666665
sI17
F11.888889
sI18
F0.7601911
sI19
F-2.332766
ssbsg15
g0
(g16
g2
Ntp1034
Rp1035
(dp1036
g20
I0
sbsba(iclasses
Instance
p1037
(dp1038
g10
(iclasses
FeatureVector
p1039
(dp1040
g13
(dp1041
I1
F33.0
sI2
F98.0
sI3
F9.0
sI6
F0.6111111
sI7
F0.611616
sI8
F1.3333331
sI9
F0.9189368
sI10
F2.0370371
sI11
F0.5555556
sI12
F3.5555556
sI13
F2.0
sI14
F-4.4444447
sI15
F4.5555553
sI16
F-0.11111111
sI17
F3.5555556
sI18
F0.8833333
sI19
F-2.5488977
ssbsg15
g0
(g16
g2
Ntp1042
Rp1043
(dp1044
g20
I0
sbsba(iclasses
Instance
p1045
(dp1046
g10
(iclasses
FeatureVector
p1047
(dp1048
g13
(dp1049
I1
F131.0
sI2
F208.0
sI3
F9.0
sI6
F1.388889
sI7
F0.41851857
sI8
F0.611111
sI9
F0.24074061
sI10
F16.185184
sI11
F12.777778
sI12
F15.0
sI13
F20.777779
sI14
F-10.222222
sI15
F-3.5555556
sI16
F13.777778
sI17
F20.777779
sI18
F0.3831675
sI19
F2.3919957
ssbsg15
g0
(g16
g2
Ntp1050
Rp1051
(dp1052
g20
I1
sbsba(iclasses
Instance
p1053
(dp1054
g10
(iclasses
FeatureVector
p1055
(dp1056
g13
(dp1057
I1
F230.0
sI2
F98.0
sI3
F9.0
sI6
F0.38888884
sI7
F0.15185185
sI8
F0.38888887
sI9
F0.06296294
sI10
F1.4074074
sI12
F4.111111
sI13
F0.11111111
sI14
F-4.2222223
sI15
F8.111111
sI16
F-3.8888888
sI17
F4.111111
sI18
F1.0
sI19
F-2.1137195
ssbsg15
g0
(g16
g2
Ntp1058
Rp1059
(dp1060
g20
I0
sbsba(iclasses
Instance
p1061
(dp1062
g10
(iclasses
FeatureVector
p1063
(dp1064
g13
(dp1065
I1
F199.0
sI2
F100.0
sI3
F9.0
sI6
F2.3888886
sI7
F1.4407414
sI8
F2.4444444
sI9
F6.02963
sI10
F6.0740743
sI11
F2.7777777
sI12
F11.555555
sI13
F3.8888888
sI14
F-9.888889
sI15
F16.444445
sI16
F-6.5555553
sI17
F11.555555
sI18
F0.7738155
sI19
F-2.2262468
ssbsg15
g0
(g16
g2
Ntp1066
Rp1067
(dp1068
g20
I0
sbsba(iclasses
Instance
p1069
(dp1070
g10
(iclasses
FeatureVector
p1071
(dp1072
g13
(dp1073
I1
F1.0
sI2
F81.0
sI3
F9.0
sI6
F12.166667
sI7
F267.45554
sI8
F9.222222
sI9
F205.36296
sI10
F21.333334
sI11
F14.0
sI12
F30.555555
sI13
F19.444445
sI14
F-22.0
sI15
F27.666666
sI16
F-5.6666665
sI17
F30.555555
sI18
F0.5952822
sI19
F-2.438409
ssbsg15
g0
(g16
g2
Ntp1074
Rp1075
(dp1076
g20
I0
sbsba(iclasses
Instance
p1077
(dp1078
g10
(iclasses
FeatureVector
p1079
(dp1080
g13
(dp1081
I1
F49.0
sI2
F116.0
sI3
F9.0
sI6
F1.3333334
sI7
F0.31111145
sI8
F2.111111
sI9
F1.3185191
sI10
F3.0
sI11
F0.8888889
sI12
F6.0
sI13
F2.1111112
sI14
F-6.3333335
sI15
F9.0
sI16
F-2.6666667
sI17
F6.0
sI18
F0.8755291
sI19
F-2.3130133
ssbsg15
g0
(g16
g2
Ntp1082
Rp1083
(dp1084
g20
I0
sbsba(iclasses
Instance
p1085
(dp1086
g10
(iclasses
FeatureVector
p1087
(dp1088
g13
(dp1089
I1
F33.0
sI2
F100.0
sI3
F9.0
sI6
F0.72222227
sI7
F0.53402746
sI8
F0.66666675
sI9
F0.3651482
sI10
F1.2222222
sI11
F0.11111111
sI12
F2.7777777
sI13
F0.7777778
sI14
F-3.3333333
sI15
F4.6666665
sI16
F-1.3333334
sI17
F2.7777777
sI18
F0.9777778
sI19
F-2.3370957
ssbsg15
g0
(g16
g2
Ntp1090
Rp1091
(dp1092
g20
I0
sbsba(iclasses
Instance
p1093
(dp1094
g10
(iclasses
FeatureVector
p1095
(dp1096
g13
(dp1097
I1
F39.0
sI2
F246.0
sI3
F9.0
sI4
F0.11111111
sI6
F2.277778
sI7
F3.2629633
sI8
F1.8333334
sI9
F2.4333339
sI10
F15.37037
sI11
F12.555555
sI12
F13.111111
sI13
F20.444445
sI14
F-8.444445
sI15
F-6.7777777
sI16
F15.222222
sI17
F20.444445
sI18
F0.3938387
sI19
F2.170543
ssbsg15
g0
(g16
g2
Ntp1098
Rp1099
(dp1100
g20
I1
sbsba(iclasses
Instance
p1101
(dp1102
g10
(iclasses
FeatureVector
p1103
(dp1104
g13
(dp1105
I1
F140.0
sI2
F247.0
sI3
F9.0
sI6
F2.5000002
sI7
F3.1888885
sI8
F2.6666667
sI9
F3.555555
sI10
F8.111111
sI11
F6.0
sI12
F5.888889
sI13
F12.444445
sI14
F-6.3333335
sI15
F-6.6666665
sI16
F13.0
sI17
F12.444445
sI18
F0.5634669
sI19
F2.1178858
ssbsg15
g0
(g16
g2
Ntp1106
Rp1107
(dp1108
g20
I1
sbsba(iclasses
Instance
p1109
(dp1110
g10
(iclasses
FeatureVector
p1111
(dp1112
g13
(dp1113
I1
F199.0
sI2
F220.0
sI3
F9.0
sI6
F1.1666667
sI7
F0.83333284
sI8
F0.88888884
sI9
F0.47407386
sI10
F6.6296296
sI11
F5.3333335
sI12
F5.0
sI13
F9.555555
sI14
F-3.8888888
sI15
F-4.888889
sI16
F8.777778
sI17
F9.555555
sI18
F0.5039001
sI19
F2.0308669
ssbsg15
g0
(g16
g2
Ntp1114
Rp1115
(dp1116
g20
I1
sbsba(iclasses
Instance
p1117
(dp1118
g10
(iclasses
FeatureVector
p1119
(dp1120
g13
(dp1121
I1
F102.0
sI2
F203.0
sI3
F9.0
sI6
F0.6666665
sI7
F0.760117
sI8
F1.3333331
sI9
F0.8944272
sI10
F9.777778
sI11
F7.4444447
sI12
F6.4444447
sI13
F15.444445
sI14
F-7.0
sI15
F-10.0
sI16
F17.0
sI17
F15.444445
sI18
F0.5918262
sI19
F1.9847853
ssbsg15
g0
(g16
g2
Ntp1122
Rp1123
(dp1124
g20
I1
sbsba(iclasses
Instance
p1125
(dp1126
g10
(iclasses
FeatureVector
p1127
(dp1128
g13
(dp1129
I1
F37.0
sI2
F104.0
sI3
F9.0
sI6
F7.8333325
sI7
F9.713106
sI8
F22.111109
sI9
F21.61858
sI10
F18.62963
sI11
F14.888889
sI12
F23.444445
sI13
F17.555555
sI14
F-11.222222
sI15
F14.444445
sI16
F-3.2222223
sI17
F23.444445
sI18
F0.6076133
sI19
F-2.4250698
ssbsg15
g0
(g16
g2
Ntp1130
Rp1131
(dp1132
g20
I0
sbsba(iclasses
Instance
p1133
(dp1134
g10
(iclasses
FeatureVector
p1135
(dp1136
g13
(dp1137
I1
F29.0
sI2
F85.0
sI3
F9.0
sI6
F2.833333
sI7
F2.9420328
sI8
F2.3888888
sI9
F3.0508046
sI10
F4.0740743
sI11
F2.1111112
sI12
F6.7777777
sI13
F3.3333333
sI14
F-5.888889
sI15
F8.111111
sI16
F-2.2222223
sI17
F6.7777777
sI18
F0.76296294
sI19
F-2.3698635
ssbsg15
g0
(g16
g2
Ntp1138
Rp1139
(dp1140
g20
I0
sbsba(iclasses
Instance
p1141
(dp1142
g10
(iclasses
FeatureVector
p1143
(dp1144
g13
(dp1145
I1
F217.0
sI2
F115.0
sI3
F9.0
sI6
F1.1666666
sI7
F0.34444454
sI8
F0.5555555
sI9
F0.38518524
sI10
F1.8888888
sI11
F0.22222222
sI12
F4.666667
sI13
F0.7777778
sI14
F-5.0
sI15
F8.333333
sI16
F-3.3333333
sI17
F4.666667
sI18
F0.962963
sI19
F-2.2166038
ssbsg15
g0
(g16
g2
Ntp1146
Rp1147
(dp1148
g20
I0
sbsba(iclasses
Instance
p1149
(dp1150
g10
(iclasses
FeatureVector
p1151
(dp1152
g13
(dp1153
I1
F95.0
sI2
F95.0
sI3
F9.0
sI6
F0.72222227
sI7
F0.8185186
sI8
F1.111111
sI9
F0.25185192
sI10
F6.4814816
sI11
F2.3333335
sI12
F12.555555
sI13
F4.5555553
sI14
F-12.444445
sI15
F18.222221
sI16
F-5.7777777
sI17
F12.555555
sI18
F0.816909
sI19
F-2.322295
ssbsg15
g0
(g16
g2
Ntp1154
Rp1155
(dp1156
g20
I0
sbsba(iclasses
Instance
p1157
(dp1158
g10
(iclasses
FeatureVector
p1159
(dp1160
g13
(dp1161
I1
F17.0
sI2
F108.0
sI3
F9.0
sI6
F1.2777778
sI7
F0.64693
sI8
F1.1666666
sI9
F0.91287076
sI10
F1.8518518
sI11
F0.5555556
sI12
F3.3333333
sI13
F1.6666666
sI14
F-3.8888888
sI15
F4.4444447
sI16
F-0.5555556
sI17
F3.3333333
sI18
F0.8759259
sI19
F-2.463852
ssbsg15
g0
(g16
g2
Ntp1162
Rp1163
(dp1164
g20
I0
sbsba(iclasses
Instance
p1165
(dp1166
g10
(iclasses
FeatureVector
p1167
(dp1168
g13
(dp1169
I1
F55.0
sI2
F209.0
sI3
F9.0
sI4
F0.11111111
sI6
F1.8333331
sI7
F1.2952907
sI8
F1.3888888
sI9
F0.99814624
sI10
F12.518518
sI11
F10.333334
sI12
F10.333334
sI13
F16.88889
sI14
F-6.5555553
sI15
F-6.5555553
sI16
F13.111111
sI17
F16.88889
sI18
F0.40790388
sI19
F2.0992203
ssbsg15
g0
(g16
g2
Ntp1170
Rp1171
(dp1172
g20
I1
sbsba(iclasses
Instance
p1173
(dp1174
g10
(iclasses
FeatureVector
p1175
(dp1176
g13
(dp1177
I1
F145.0
sI2
F248.0
sI3
F9.0
sI6
F2.0555553
sI7
F1.7180947
sI8
F2.111111
sI9
F1.3770607
sI10
F26.88889
sI11
F23.222221
sI12
F25.11111
sI13
F32.333336
sI14
F-11.0
sI15
F-5.3333335
sI16
F16.333334
sI17
F32.333336
sI18
F0.2916751
sI19
F2.2850983
ssbsg15
g0
(g16
g2
Ntp1178
Rp1179
(dp1180
g20
I1
sbsba(iclasses
Instance
p1181
(dp1182
g10
(iclasses
FeatureVector
p1183
(dp1184
g13
(dp1185
I1
F144.0
sI2
F169.0
sI3
F9.0
sI6
F1.1111107
sI7
F0.77936363
sI8
F1.3888884
sI9
F0.74286735
sI10
F17.11111
sI11
F13.444445
sI12
F18.0
sI13
F19.88889
sI14
F-11.0
sI15
F2.6666667
sI16
F8.333333
sI17
F19.88889
sI18
F0.32496518
sI19
F2.8348217
ssbsg15
g0
(g16
g2
Ntp1186
Rp1187
(dp1188
g20
I1
sbsba(iclasses
Instance
p1189
(dp1190
g10
(iclasses
FeatureVector
p1191
(dp1192
g13
(dp1193
I1
F124.0
sI2
F113.0
sI3
F9.0
sI6
F0.38888887
sI7
F0.38968176
sI8
F0.2777778
sI9
F0.3277307
sI10
F0.962963
sI12
F2.7777777
sI13
F0.11111111
sI14
F-2.8888888
sI15
F5.4444447
sI16
F-2.5555556
sI17
F2.7777777
sI18
F1.0
sI19
F-2.123254
ssbsg15
g0
(g16
g2
Ntp1194
Rp1195
(dp1196
g20
I0
sbsba(iclasses
Instance
p1197
(dp1198
g10
(iclasses
FeatureVector
p1199
(dp1200
g13
(dp1201
I1
F95.0
sI2
F141.0
sI3
F9.0
sI6
F0.72222215
sI7
F0.24074078
sI8
F0.72222215
sI9
F0.1518519
sI10
F1.5555556
sI11
F0.11111111
sI12
F3.6666667
sI13
F0.8888889
sI14
F-4.3333335
sI15
F6.3333335
sI16
F-2.0
sI17
F3.6666667
sI18
F0.9777778
sI19
F-2.2859912
ssbsg15
g0
(g16
g2
Ntp1202
Rp1203
(dp1204
g20
I0
sbsba(iclasses
Instance
p1205
(dp1206
g10
(iclasses
FeatureVector
p1207
(dp1208
g13
(dp1209
I1
F158.0
sI2
F195.0
sI3
F9.0
sI6
F2.4444442
sI7
F2.3444183
sI8
F2.8333333
sI9
F1.7224011
sI10
F11.703704
sI11
F9.444445
sI12
F8.555555
sI13
F17.11111
sI14
F-6.7777777
sI15
F-9.444445
sI16
F16.222221
sI17
F17.11111
sI18
F0.5177167
sI19
F2.011228
ssbsg15
g0
(g16
g2
Ntp1210
Rp1211
(dp1212
g20
I1
sbsba(iclasses
Instance
p1213
(dp1214
g10
(iclasses
FeatureVector
p1215
(dp1216
g13
(dp1217
I1
F9.0
sI2
F131.0
sI3
F9.0
ssbsg15
g0
(g16
g2
Ntp1218
Rp1219
(dp1220
g20
I0
sbsba(iclasses
Instance
p1221
(dp1222
g10
(iclasses
FeatureVector
p1223
(dp1224
g13
(dp1225
I1
F242.0
sI2
F183.0
sI3
F9.0
sI6
F1.4999999
sI7
F0.9368979
sI8
F2.1666667
sI9
F1.798147
sI10
F15.37037
sI11
F12.666667
sI12
F12.444445
sI13
F21.0
sI14
F-8.111111
sI15
F-8.777778
sI16
F16.88889
sI17
F21.0
sI18
F0.42024404
sI19
F2.0758736
ssbsg15
g0
(g16
g2
Ntp1226
Rp1227
(dp1228
g20
I1
sbsba(iclasses
Instance
p1229
(dp1230
g10
(iclasses
FeatureVector
p1231
(dp1232
g13
(dp1233
I1
F31.0
sI2
F88.0
sI3
F9.0
sI4
F0.11111111
sI6
F0.88888884
sI7
F0.60740745
sI8
F2.1666665
sI9
F1.9888896
sI10
F5.259259
sI11
F1.5555556
sI12
F10.111111
sI13
F4.111111
sI14
F-11.111111
sI15
F14.555555
sI16
F-3.4444444
sI17
F10.111111
sI18
F0.85137916
sI19
F-2.3966565
ssbsg15
g0
(g16
g2
Ntp1234
Rp1235
(dp1236
g20
I0
sbsba(iclasses
Instance
p1237
(dp1238
g10
(iclasses
FeatureVector
p1239
(dp1240
g13
(dp1241
I1
F115.0
sI2
F182.0
sI3
F9.0
sI6
F0.5555558
sI7
F1.0470418
sI8
F0.7222228
sI9
F1.1434194
sI10
F17.592592
sI11
F15.444445
sI12
F14.0
sI13
F23.333334
sI14
F-6.4444447
sI15
F-10.777778
sI16
F17.222221
sI17
F23.333334
sI18
F0.39944676
sI19
F1.9375944
ssbsg15
g0
(g16
g2
Ntp1242
Rp1243
(dp1244
g20
I1
sbsba(iclasses
Instance
p1245
(dp1246
g10
(iclasses
FeatureVector
p1247
(dp1248
g13
(dp1249
I1
F225.0
sI2
F91.0
sI3
F9.0
sI6
F0.6666667
sI7
F0.3555557
sI8
F0.6666667
sI9
F0.31111112
sI10
F3.6666667
sI11
F1.1111112
sI12
F8.0
sI13
F1.8888888
sI14
F-7.6666665
sI15
F13.0
sI16
F-5.3333335
sI17
F8.0
sI18
F0.86781305
sI19
F-2.2177355
ssbsg15
g0
(g16
g2
Ntp1250
Rp1251
(dp1252
g20
I0
sbsba(iclasses
Instance
p1253
(dp1254
g10
(iclasses
FeatureVector
p1255
(dp1256
g13
(dp1257
I1
F44.0
sI2
F123.0
sI3
F9.0
sI6
F1.0555556
sI7
F0.99629647
sI8
F1.0000001
sI9
F0.8444444
sI10
F1.4814814
sI11
F0.22222222
sI12
F3.6666667
sI13
F0.5555556
sI14
F-3.7777777
sI15
F6.5555553
sI16
F-2.7777777
sI17
F3.6666667
sI18
F0.96190476
sI19
F-2.1617603
ssbsg15
g0
(g16
g2
Ntp1258
Rp1259
(dp1260
g20
I0
sbsba(iclasses
Instance
p1261
(dp1262
g10
(iclasses
FeatureVector
p1263
(dp1264
g13
(dp1265
I1
F235.0
sI2
F249.0
sI3
F9.0
sI5
F0.11111111
sI6
F1.6111113
sI7
F2.4259405
sI8
F2.666667
sI9
F1.5055449
sI10
F22.851852
sI11
F19.777779
sI12
F21.222221
sI13
F27.555555
sI14
F-9.222222
sI15
F-4.888889
sI16
F14.111111
sI17
F27.555555
sI18
F0.28660962
sI19
F2.2826295
ssbsg15
g0
(g16
g2
Ntp1266
Rp1267
(dp1268
g20
I1
sbsba(iclasses
Instance
p1269
(dp1270
g10
(iclasses
FeatureVector
p1271
(dp1272
g13
(dp1273
I1
F72.0
sI2
F191.0
sI3
F9.0
sI4
F0.11111111
sI6
F1.2777777
sI7
F0.5074075
sI8
F3.1111114
sI9
F4.6074066
sI10
F15.185185
sI11
F12.111111
sI12
F14.888889
sI13
F18.555555
sI14
F-9.222222
sI15
F-0.8888889
sI16
F10.111111
sI17
F18.555555
sI18
F0.3503698
sI19
F2.545329
ssbsg15
g0
(g16
g2
Ntp1274
Rp1275
(dp1276
g20
I1
sbsba(iclasses
Instance
p1277
(dp1278
g10
(iclasses
FeatureVector
p1279
(dp1280
g13
(dp1281
I1
F183.0
sI2
F157.0
sI3
F9.0
sI6
F0.6666667
sI7
F0.4216376
sI8
F2.1111114
sI9
F0.62063295
sI10
F19.666666
sI11
F16.444445
sI12
F18.666668
sI13
F23.88889
sI14
F-9.666667
sI15
F-3.0
sI16
F12.666667
sI17
F23.88889
sI18
F0.31418663
sI19
F2.4052022
ssbsg15
g0
(g16
g2
Ntp1282
Rp1283
(dp1284
g20
I1
sbsba(iclasses
Instance
p1285
(dp1286
g10
(iclasses
FeatureVector
p1287
(dp1288
g13
(dp1289
I1
F215.0
sI2
F190.0
sI3
F9.0
sI4
F0.11111111
sI6
F1.388889
sI7
F1.0417223
sI8
F2.6111114
sI9
F1.8429048
sI10
F19.88889
sI11
F16.0
sI12
F17.11111
sI13
F26.555555
sI14
F-11.666667
sI15
F-8.333333
sI16
F20.0
sI17
F26.555555
sI18
F0.40352198
sI19
F2.2044082
ssbsg15
g0
(g16
g2
Ntp1290
Rp1291
(dp1292
g20
I1
sbsba(iclasses
Instance
p1293
(dp1294
g10
(iclasses
FeatureVector
p1295
(dp1296
g13
(dp1297
I1
F221.0
sI2
F201.0
sI3
F9.0
sI4
F0.11111111
sI6
F1.4444443
sI7
F1.1287485
sI8
F2.4444447
sI9
F0.8344436
sI10
F19.148148
sI11
F14.666667
sI12
F17.666668
sI13
F25.11111
sI14
F-13.444445
sI15
F-4.4444447
sI16
F17.88889
sI17
F25.11111
sI18
F0.41676173
sI19
F2.389747
ssbsg15
g0
(g16
g2
Ntp1298
Rp1299
(dp1300
g20
I1
sbsba(iclasses
Instance
p1301
(dp1302
g10
(iclasses
FeatureVector
p1303
(dp1304
g13
(dp1305
I1
F139.0
sI2
F121.0
sI3
F9.0
sI6
F1.0555555
sI7
F0.41851884
sI8
F1.1666666
sI9
F0.83333385
sI10
F3.7037036
sI11
F0.7777778
sI12
F7.7777777
sI13
F2.5555556
sI14
F-8.777778
sI15
F12.222222
sI16
F-3.4444444
sI17
F7.7777777
sI18
F0.9074074
sI19
F-2.351514
ssbsg15
g0
(g16
g2
Ntp1306
Rp1307
(dp1308
g20
I0
sbsba(iclasses
Instance
p1309
(dp1310
g10
(iclasses
FeatureVector
p1311
(dp1312
g13
(dp1313
I1
F31.0
sI2
F68.0
sI3
F9.0
sI6
F27.944443
sI7
F203.35188
sI8
F18.277777
sI9
F338.64075
sI10
F47.185184
sI11
F38.555557
sI12
F60.11111
sI13
F42.88889
sI14
F-25.88889
sI15
F38.77778
sI16
F-12.888889
sI17
F60.11111
sI18
F0.41303283
sI19
F-2.3086562
ssbsg15
g0
(g16
g2
Ntp1314
Rp1315
(dp1316
g20
I0
sbsba(iclasses
Instance
p1317
(dp1318
g10
(iclasses
FeatureVector
p1319
(dp1320
g13
(dp1321
I1
F169.0
sI2
F199.0
sI3
F9.0
sI6
F1.277778
sI7
F0.4430534
sI8
F1.277778
sI9
F1.041722
sI10
F14.518518
sI11
F11.111111
sI12
F14.555555
sI13
F17.88889
sI14
F-10.222222
sI15
F0.11111111
sI16
F10.111111
sI17
F17.88889
sI18
F0.37847343
sI19
F2.6341755
ssbsg15
g0
(g16
g2
Ntp1322
Rp1323
(dp1324
g20
I1
sbsba(iclasses
Instance
p1325
(dp1326
g10
(iclasses
FeatureVector
p1327
(dp1328
g13
(dp1329
I1
F81.0
sI2
F145.0
sI3
F9.0
sI5
F0.11111111
sI6
F4.5555553
sI7
F4.5346413
sI8
F7.5
sI9
F6.1128287
sI10
F13.444445
sI11
F9.888889
sI12
F20.11111
sI13
F10.333334
sI14
F-10.666667
sI15
F20.0
sI16
F-9.333333
sI17
F20.11111
sI18
F0.53272784
sI19
F-2.0623195
ssbsg15
g0
(g16
g2
Ntp1330
Rp1331
(dp1332
g20
I0
sbsba(iclasses
Instance
p1333
(dp1334
g10
(iclasses
FeatureVector
p1335
(dp1336
g13
(dp1337
I1
F49.0
sI2
F240.0
sI3
F9.0
sI5
F0.11111111
sI6
F3.0555553
sI7
F1.638654
sI8
F2.0555556
sI9
F1.7437719
sI10
F20.444445
sI11
F15.222222
sI12
F18.777779
sI13
F27.333334
sI14
F-15.666667
sI15
F-5.0
sI16
F20.666666
sI17
F27.333334
sI18
F0.44580838
sI19
F2.4207911
ssbsg15
g0
(g16
g2
Ntp1338
Rp1339
(dp1340
g20
I1
sbsba(iclasses
Instance
p1341
(dp1342
g10
(iclasses
FeatureVector
p1343
(dp1344
g13
(dp1345
I1
F90.0
sI2
F237.0
sI3
F9.0
sI6
F2.4444444
sI7
F1.327766
sI8
F2.7222216
sI9
F2.678446
sI10
F22.222221
sI11
F17.555555
sI12
F19.666668
sI13
F29.444445
sI14
F-14.0
sI15
F-7.6666665
sI16
F21.666666
sI17
F29.444445
sI18
F0.41374576
sI19
F2.2802892
ssbsg15
g0
(g16
g2
Ntp1346
Rp1347
(dp1348
g20
I1
sbsba(iclasses
Instance
p1349
(dp1350
g10
(iclasses
FeatureVector
p1351
(dp1352
g13
(dp1353
I1
F19.0
sI2
F184.0
sI3
F9.0
sI6
F0.5555555
sI7
F0.34426498
sI8
F0.8333333
sI9
F0.62360954
sI10
F14.222222
sI11
F12.333333
sI12
F11.0
sI13
F19.333334
sI14
F-5.6666665
sI15
F-9.666667
sI16
F15.333333
sI17
F19.333334
sI18
F0.43115196
sI19
F1.9378915
ssbsg15
g0
(g16
g2
Ntp1354
Rp1355
(dp1356
g20
I1
sbsba(iclasses
Instance
p1357
(dp1358
g10
(iclasses
FeatureVector
p1359
(dp1360
g13
(dp1361
I1
F85.0
sI2
F124.0
sI3
F9.0
sI6
F1.2222227
sI7
F0.93491936
sI8
F2.3888893
sI9
F1.6788442
sI10
F14.666667
sI11
F7.5555553
sI12
F24.11111
sI13
F12.333333
sI14
F-21.333334
sI15
F28.333334
sI16
F-7.0
sI17
F24.11111
sI18
F0.6911226
sI19
F-2.3966818
ssbsg15
g0
(g16
g2
Ntp1362
Rp1363
(dp1364
g20
I0
sbsba(iclasses
Instance
p1365
(dp1366
g10
(iclasses
FeatureVector
p1367
(dp1368
g13
(dp1369
I1
F47.0
sI2
F175.0
sI3
F9.0
sI6
F1.3333327
sI7
F0.78881073
sI8
F1.166666
sI9
F0.88819396
sI10
F23.74074
sI11
F18.666668
sI12
F23.777779
sI13
F28.777779
sI14
F-15.222222
sI15
F0.11111111
sI16
F15.111111
sI17
F28.777779
sI18
F0.35148725
sI19
F2.630157
ssbsg15
g0
(g16
g2
Ntp1370
Rp1371
(dp1372
g20
I1
sbsba(iclasses
Instance
p1373
(dp1374
g10
(iclasses
FeatureVector
p1375
(dp1376
g13
(dp1377
I1
F20.0
sI2
F117.0
sI3
F9.0
ssbsg15
g0
(g16
g2
Ntp1378
Rp1379
(dp1380
g20
I0
sbsba(iclasses
Instance
p1381
(dp1382
g10
(iclasses
FeatureVector
p1383
(dp1384
g13
(dp1385
I1
F228.0
sI2
F91.0
sI3
F9.0
sI6
F0.72222227
sI7
F0.1962963
sI8
F1.1111112
sI9
F0.38518512
sI10
F2.6296296
sI11
F0.44444445
sI12
F6.2222223
sI13
F1.2222222
sI14
F-6.5555553
sI15
F10.777778
sI16
F-4.2222223
sI17
F6.2222223
sI18
F0.9398148
sI19
F-2.2257352
ssbsg15
g0
(g16
g2
Ntp1386
Rp1387
(dp1388
g20
I0
sbsba(iclasses
Instance
p1389
(dp1390
g10
(iclasses
FeatureVector
p1391
(dp1392
g13
(dp1393
I1
F48.0
sI2
F192.0
sI3
F9.0
sI6
F1.2222224
sI7
F1.0074071
sI8
F2.8888886
sI9
F4.8296304
sI10
F9.962963
sI11
F8.666667
sI12
F7.4444447
sI13
F13.777778
sI14
F-3.8888888
sI15
F-7.5555553
sI16
F11.444445
sI17
F13.777778
sI18
F0.47623578
sI19
F1.908457
ssbsg15
g0
(g16
g2
Ntp1394
Rp1395
(dp1396
g20
I1
sbsba(iclasses
Instance
p1397
(dp1398
g10
(iclasses
FeatureVector
p1399
(dp1400
g13
(dp1401
I1
F26.0
sI2
F82.0
sI3
F9.0
sI6
F1.5555553
sI7
F0.4740743
sI8
F2.111111
sI9
F4.3851857
sI10
F5.5925927
sI11
F1.7777778
sI12
F10.222222
sI13
F4.7777777
sI14
F-11.444445
sI15
F13.888889
sI16
F-2.4444444
sI17
F10.222222
sI18
F0.843607
sI19
F-2.4519827
ssbsg15
g0
(g16
g2
Ntp1402
Rp1403
(dp1404
g20
I0
sbsba(iclasses
Instance
p1405
(dp1406
g10
(iclasses
FeatureVector
p1407
(dp1408
g13
(dp1409
I1
F150.0
sI2
F144.0
sI3
F9.0
sI6
F0.55555564
sI7
F0.074074075
sI8
F0.6111111
sI9
F0.15185197
sI10
F2.5185184
sI11
F0.11111111
sI12
F6.5555553
sI13
F0.8888889
sI14
F-7.2222223
sI15
F12.111111
sI16
F-4.888889
sI17
F6.5555553
sI18
F0.9861111
sI19
F-2.2121625
ssbsg15
g0
(g16
g2
Ntp1410
Rp1411
(dp1412
g20
I0
sbsba(iclasses
Instance
p1413
(dp1414
g10
(iclasses
FeatureVector
p1415
(dp1416
g13
(dp1417
I1
F226.0
sI2
F72.0
sI3
F9.0
sI6
F1.2777778
sI7
F0.81851846
sI8
F1.3888888
sI9
F1.4407405
sI10
F4.5185184
sI11
F1.5555556
sI12
F9.444445
sI13
F2.5555556
sI14
F-8.888889
sI15
F14.777778
sI16
F-5.888889
sI17
F9.444445
sI18
F0.84168977
sI19
F-2.2167206
ssbsg15
g0
(g16
g2
Ntp1418
Rp1419
(dp1420
g20
I0
sbsba(iclasses
Instance
p1421
(dp1422
g10
(iclasses
FeatureVector
p1423
(dp1424
g13
(dp1425
I1
F236.0
sI2
F240.0
sI3
F9.0
sI6
F2.5555553
sI7
F1.6688874
sI8
F3.3888886
sI9
F2.4532666
sI10
F22.481482
sI11
F19.555555
sI12
F19.777779
sI13
F28.11111
sI14
F-8.777778
sI15
F-8.111111
sI16
F16.88889
sI17
F28.11111
sI18
F0.329382
sI19
F2.1418114
ssbsg15
g0
(g16
g2
Ntp1426
Rp1427
(dp1428
g20
I1
sbsba(iclasses
Instance
p1429
(dp1430
g10
(iclasses
FeatureVector
p1431
(dp1432
g13
(dp1433
I1
F231.0
sI2
F124.0
sI3
F9.0
sI6
F3.4444447
sI7
F14.962965
sI8
F1.8333334
sI9
F6.4333353
sI10
F3.0
sI11
F1.4444444
sI12
F5.888889
sI13
F1.6666666
sI14
F-4.6666665
sI15
F8.666667
sI16
F-4.0
sI17
F5.888889
sI18
F0.895369
sI19
F-2.118937
ssbsg15
g0
(g16
g2
Ntp1434
Rp1435
(dp1436
g20
I0
sbsba(iclasses
Instance
p1437
(dp1438
g10
(iclasses
FeatureVector
p1439
(dp1440
g13
(dp1441
I1
F234.0
sI2
F110.0
sI3
F9.0
sI6
F0.8333333
sI7
F0.21111107
sI8
F0.5
sI9
F0.56666666
sI10
F1.8148148
sI11
F0.11111111
sI12
F4.888889
sI13
F0.44444445
sI14
F-5.111111
sI15
F9.222222
sI16
F-4.111111
sI17
F4.888889
sI18
F0.984127
sI19
F-2.1525068
ssbsg15
g0
(g16
g2
Ntp1442
Rp1443
(dp1444
g20
I0
sbsba(iclasses
Instance
p1445
(dp1446
g10
(iclasses
FeatureVector
p1447
(dp1448
g13
(dp1449
I1
F62.0
sI2
F223.0
sI3
F9.0
sI6
F2.5
sI7
F5.722223
sI8
F1.6666666
sI9
F2.4444442
sI10
F6.6666665
sI11
F4.888889
sI12
F4.666667
sI13
F10.444445
sI14
F-5.3333335
sI15
F-6.0
sI16
F11.333333
sI17
F10.444445
sI18
F0.5931498
sI19
F2.0465877
ssbsg15
g0
(g16
g2
Ntp1450
Rp1451
(dp1452
g20
I1
sbsba(iclasses
Instance
p1453
(dp1454
g10
(iclasses
FeatureVector
p1455
(dp1456
g13
(dp1457
I1
F234.0
sI2
F122.0
sI3
F9.0
sI6
F1.7222222
sI7
F7.8407397
sI8
F1.3888888
sI9
F7.574073
sI10
F2.2592592
sI11
F0.5555556
sI12
F5.2222223
sI13
F1.0
sI14
F-5.111111
sI15
F8.888889
sI16
F-3.7777777
sI17
F5.2222223
sI18
F0.96031743
sI19
F-2.1732037
ssbsg15
g0
(g16
g2
Ntp1458
Rp1459
(dp1460
g20
I0
sbsba(iclasses
Instance
p1461
(dp1462
g10
(iclasses
FeatureVector
p1463
(dp1464
g13
(dp1465
I1
F21.0
sI2
F216.0
sI3
F9.0
sI4
F0.11111111
sI6
F3.833333
sI7
F0.69999796
sI8
F0.8333333
sI9
F0.47777775
sI10
F16.555555
sI11
F13.111111
sI12
F14.0
sI13
F22.555555
sI14
F-10.333333
sI15
F-7.6666665
sI16
F18.0
sI17
F22.555555
sI18
F0.426777
sI19
F2.2093086
ssbsg15
g0
(g16
g2
Ntp1466
Rp1467
(dp1468
g20
I1
sbsba(iclasses
Instance
p1469
(dp1470
g10
(iclasses
FeatureVector
p1471
(dp1472
g13
(dp1473
I1
F216.0
sI2
F169.0
sI3
F9.0
sI6
F0.8333333
sI7
F0.3888888
sI8
F1.9444443
sI9
F0.41851807
sI10
F16.592592
sI11
F12.777778
sI12
F15.666667
sI13
F21.333334
sI14
F-11.444445
sI15
F-2.7777777
sI16
F14.222222
sI17
F21.333334
sI18
F0.40075645
sI19
F2.44578
ssbsg15
g0
(g16
g2
Ntp1474
Rp1475
(dp1476
g20
I1
sbsba(iclasses
Instance
p1477
(dp1478
g10
(iclasses
FeatureVector
p1479
(dp1480
g13
(dp1481
I1
F220.0
sI2
F120.0
sI3
F9.0
sI6
F0.38888893
sI7
F0.062962964
sI8
F0.38888887
sI9
F0.062962994
sI10
F1.0
sI12
F3.0
sI14
F-3.0
sI15
F6.0
sI16
F-3.0
sI17
F3.0
sI18
F1.0
sI19
F-2.0943952
ssbsg15
g0
(g16
g2
Ntp1482
Rp1483
(dp1484
g20
I0
sbsba(iclasses
Instance
p1485
(dp1486
g10
(iclasses
FeatureVector
p1487
(dp1488
g13
(dp1489
I1
F117.0
sI2
F137.0
sI3
F9.0
sI6
F0.27777776
sI7
F0.3896817
sI8
F0.38888887
sI9
F0.25092417
sI10
F0.7777778
sI12
F2.2222223
sI13
F0.11111111
sI14
F-2.3333333
sI15
F4.3333335
sI16
F-2.0
sI17
F2.2222223
sI18
F1.0
sI19
F-2.123254
ssbsg15
g0
(g16
g2
Ntp1490
Rp1491
(dp1492
g20
I0
sbsba(iclasses
Instance
p1493
(dp1494
g10
(iclasses
FeatureVector
p1495
(dp1496
g13
(dp1497
I1
F45.0
sI2
F108.0
sI3
F9.0
sI5
F0.11111111
sI6
F25.5
sI7
F12.795401
sI8
F27.277779
sI9
F15.930981
sI10
F49.814816
sI11
F41.77778
sI12
F61.11111
sI13
F46.555557
sI14
F-24.11111
sI15
F33.88889
sI16
F-9.777778
sI17
F61.11111
sI18
F0.35897508
sI19
F-2.3604913
ssbsg15
g0
(g16
g2
Ntp1498
Rp1499
(dp1500
g20
I0
sbsba(iclasses
Instance
p1501
(dp1502
g10
(iclasses
FeatureVector
p1503
(dp1504
g13
(dp1505
I1
F226.0
sI2
F84.0
sI3
F9.0
sI6
F3.055556
sI7
F3.9740732
sI8
F1.7777778
sI9
F2.6962967
sI10
F4.5555553
sI11
F1.5555556
sI12
F9.0
sI13
F3.1111112
sI14
F-9.0
sI15
F13.333333
sI16
F-4.3333335
sI17
F9.0
sI18
F0.84772927
sI19
F-2.3057292
ssbsg15
g0
(g16
g2
Ntp1506
Rp1507
(dp1508
g20
I0
sbsba(iclasses
Instance
p1509
(dp1510
g10
(iclasses
FeatureVector
p1511
(dp1512
g13
(dp1513
I1
F136.0
sI2
F216.0
sI3
F9.0
sI4
F0.11111111
sI6
F2.7777774
sI7
F1.3277673
sI8
F2.7222226
sI9
F2.984528
sI10
F15.074074
sI11
F11.444445
sI12
F13.222222
sI13
F20.555555
sI14
F-10.888889
sI15
F-5.5555553
sI16
F16.444445
sI17
F20.555555
sI18
F0.44167453
sI19
F2.2845712
ssbsg15
g0
(g16
g2
Ntp1514
Rp1515
(dp1516
g20
I1
sbsba(iclasses
Instance
p1517
(dp1518
g10
(iclasses
FeatureVector
p1519
(dp1520
g13
(dp1521
I1
F23.0
sI2
F113.0
sI3
F9.0
sI6
F0.611111
sI7
F0.28518534
sI8
F0.6666666
sI9
F0.48888886
sI10
F1.4074074
sI11
F0.11111111
sI12
F3.4444444
sI13
F0.6666667
sI14
F-3.8888888
sI15
F6.111111
sI16
F-2.2222223
sI17
F3.4444444
sI18
F0.9814815
sI19
F-2.2375617
ssbsg15
g0
(g16
g2
Ntp1522
Rp1523
(dp1524
g20
I0
sbsba(iclasses
Instance
p1525
(dp1526
g10
(iclasses
FeatureVector
p1527
(dp1528
g13
(dp1529
I1
F68.0
sI2
F103.0
sI3
F9.0
sI6
F0.66666675
sI7
F0.57777774
sI8
F1.111111
sI9
F0.96296334
sI10
F2.148148
sI11
F0.11111111
sI12
F5.6666665
sI13
F0.6666667
sI14
F-6.111111
sI15
F10.555555
sI16
F-4.4444447
sI17
F5.6666665
sI18
F0.9876543
sI19
F-2.1854658
ssbsg15
g0
(g16
g2
Ntp1530
Rp1531
(dp1532
g20
I0
sbsba(iclasses
Instance
p1533
(dp1534
g10
(iclasses
FeatureVector
p1535
(dp1536
g13
(dp1537
I1
F80.0
sI2
F87.0
sI3
F9.0
sI5
F0.11111111
sI6
F24.388891
sI7
F572.9964
sI8
F44.722225
sI9
F1386.3292
sI10
F67.44444
sI11
F58.77778
sI12
F79.0
sI13
F64.55556
sI14
F-26.0
sI15
F34.666668
sI16
F-8.666667
sI17
F79.0
sI18
F0.30628127
sI19
F-2.4221272
ssbsg15
g0
(g16
g2
Ntp1538
Rp1539
(dp1540
g20
I0
sbsba(iclasses
Instance
p1541
(dp1542
g10
(iclasses
FeatureVector
p1543
(dp1544
g13
(dp1545
I1
F201.0
sI2
F86.0
sI3
F9.0
sI5
F0.11111111
sI6
F9.5
sI7
F222.70003
sI8
F8.777779
sI9
F105.54074
sI10
F13.407408
sI11
F8.777778
sI12
F19.88889
sI13
F11.555555
sI14
F-13.888889
sI15
F19.444445
sI16
F-5.5555553
sI17
F19.88889
sI18
F0.6309454
sI19
F-2.363577
ssbsg15
g0
(g16
g2
Ntp1546
Rp1547
(dp1548
g20
I0
sbsba(iclasses
Instance
p1549
(dp1550
g10
(iclasses
FeatureVector
p1551
(dp1552
g13
(dp1553
I1
F152.0
sI2
F220.0
sI3
F9.0
sI6
F0.94444466
sI7
F0.6851854
sI8
F1.4444448
sI9
F2.1629636
sI10
F14.62963
sI11
F11.555555
sI12
F13.111111
sI13
F19.222221
sI14
F-9.222222
sI15
F-4.5555553
sI16
F13.777778
sI17
F19.222221
sI18
F0.41670507
sI19
F2.3068845
ssbsg15
g0
(g16
g2
Ntp1554
Rp1555
(dp1556
g20
I1
sbsba(iclasses
Instance
p1557
(dp1558
g10
(iclasses
FeatureVector
p1559
(dp1560
g13
(dp1561
I1
F232.0
sI2
F175.0
sI3
F9.0
sI6
F1.1666669
sI7
F0.62360954
sI8
F2.8333333
sI9
F2.1679492
sI10
F15.37037
sI11
F12.444445
sI12
F13.555555
sI13
F20.11111
sI14
F-8.777778
sI15
F-5.4444447
sI16
F14.222222
sI17
F20.11111
sI18
F0.38741234
sI19
F2.2421958
ssbsg15
g0
(g16
g2
Ntp1562
Rp1563
(dp1564
g20
I1
sbsba(iclasses
Instance
p1565
(dp1566
g10
(iclasses
FeatureVector
p1567
(dp1568
g13
(dp1569
I1
F6.0
sI2
F120.0
sI3
F9.0
sI6
F0.33333328
sI7
F0.08888888
sI8
F0.5
sI9
F0.077777766
sI10
F1.1481482
sI11
F0.22222222
sI12
F3.0
sI13
F0.22222222
sI14
F-2.7777777
sI15
F5.5555553
sI16
F-2.7777777
sI17
F3.0
sI18
F1.0
sI19
F-2.0572872
ssbsg15
g0
(g16
g2
Ntp1570
Rp1571
(dp1572
g20
I0
sbsba(iclasses
Instance
p1573
(dp1574
g10
(iclasses
FeatureVector
p1575
(dp1576
g13
(dp1577
I1
F56.0
sI2
F107.0
sI3
F9.0
sI5
F0.11111111
sI6
F4.555556
sI7
F13.407408
sI8
F6.7777786
sI9
F23.185177
sI10
F7.962963
sI11
F4.5555553
sI12
F13.0
sI13
F6.3333335
sI14
F-10.222222
sI15
F15.111111
sI16
F-4.888889
sI17
F13.0
sI18
F0.7305922
sI19
F-2.2917624
ssbsg15
g0
(g16
g2
Ntp1578
Rp1579
(dp1580
g20
I0
sbsba(iclasses
Instance
p1581
(dp1582
g10
(iclasses
FeatureVector
p1583
(dp1584
g13
(dp1585
I1
F157.0
sI2
F184.0
sI3
F9.0
sI6
F1.2777777
sI7
F0.77407444
sI8
F1.3333334
sI9
F0.8444448
sI10
F19.444445
sI11
F15.222222
sI12
F18.222221
sI13
F24.88889
sI14
F-12.666667
sI15
F-3.6666667
sI16
F16.333334
sI17
F24.88889
sI18
F0.3882103
sI19
F2.4194453
ssbsg15
g0
(g16
g2
Ntp1586
Rp1587
(dp1588
g20
I1
sbsba(iclasses
Instance
p1589
(dp1590
g10
(iclasses
FeatureVector
p1591
(dp1592
g13
(dp1593
I1
F11.0
sI2
F118.0
sI3
F9.0
sI6
F0.27777776
sI7
F0.15185185
sI8
F0.38888893
sI9
F0.06296293
sI10
F0.7037037
sI12
F2.0
sI13
F0.11111111
sI14
F-2.1111112
sI15
F3.8888888
sI16
F-1.7777778
sI17
F2.0
sI18
F1.0
sI19
F-2.132635
ssbsg15
g0
(g16
g2
Ntp1594
Rp1595
(dp1596
g20
I0
sbsba(iclasses
Instance
p1597
(dp1598
g10
(iclasses
FeatureVector
p1599
(dp1600
g13
(dp1601
I1
F88.0
sI2
F211.0
sI3
F9.0
sI4
F0.22222222
sI6
F1.388889
sI7
F0.87981474
sI8
F2.4444444
sI9
F1.4555134
sI10
F10.814815
sI11
F8.888889
sI12
F7.6666665
sI13
F15.888889
sI14
F-5.7777777
sI15
F-9.444445
sI16
F15.222222
sI17
F15.888889
sI18
F0.52432793
sI19
F1.9408315
ssbsg15
g0
(g16
g2
Ntp1602
Rp1603
(dp1604
g20
I1
sbsba(iclasses
Instance
p1605
(dp1606
g10
(iclasses
FeatureVector
p1607
(dp1608
g13
(dp1609
I1
F34.0
sI2
F169.0
sI3
F9.0
sI6
F0.8333333
sI7
F0.5055251
sI8
F1.6111112
sI9
F0.8798151
sI10
F12.814815
sI11
F10.666667
sI12
F9.777778
sI13
F18.0
sI14
F-6.4444447
sI15
F-9.111111
sI16
F15.555555
sI17
F18.0
sI18
F0.46356925
sI19
F1.9931829
ssbsg15
g0
(g16
g2
Ntp1610
Rp1611
(dp1612
g20
I1
sbsba(iclasses
Instance
p1613
(dp1614
g10
(iclasses
FeatureVector
p1615
(dp1616
g13
(dp1617
I1
F78.0
sI2
F99.0
sI3
F9.0
sI6
F1.611111
sI7
F8.018518
sI8
F3.0555553
sI9
F14.7740755
sI10
F4.148148
sI11
F1.1111112
sI12
F9.0
sI13
F2.3333335
sI14
F-9.111111
sI15
F14.555555
sI16
F-5.4444447
sI17
F9.0
sI18
F0.91089994
sI19
F-2.2556732
ssbsg15
g0
(g16
g2
Ntp1618
Rp1619
(dp1620
g20
I0
sbsba(iclasses
Instance
p1621
(dp1622
g10
(iclasses
FeatureVector
p1623
(dp1624
g13
(dp1625
I1
F157.0
sI2
F221.0
sI3
F9.0
sI6
F1.0555555
sI7
F0.6469299
sI8
F1.2222222
sI9
F0.6206328
sI10
F12.111111
sI11
F10.222222
sI12
F8.111112
sI13
F18.0
sI14
F-5.6666665
sI15
F-12.0
sI16
F17.666666
sI17
F18.0
sI18
F0.5491797
sI19
F1.8771459
ssbsg15
g0
(g16
g2
Ntp1626
Rp1627
(dp1628
g20
I1
sbsba(iclasses
Instance
p1629
(dp1630
g10
(iclasses
FeatureVector
p1631
(dp1632
g13
(dp1633
I1
F58.0
sI2
F109.0
sI3
F9.0
sI6
F0.8888889
sI7
F0.25185165
sI8
F2.8333333
sI9
F1.677777
sI10
F4.296296
sI11
F1.4444444
sI12
F8.444445
sI13
F3.0
sI14
F-8.555555
sI15
F12.444445
sI16
F-3.8888888
sI17
F8.444445
sI18
F0.8644824
sI19
F-2.2837873
ssbsg15
g0
(g16
g2
Ntp1634
Rp1635
(dp1636
g20
I0
sbsba(iclasses
Instance
p1637
(dp1638
g10
(iclasses
FeatureVector
p1639
(dp1640
g13
(dp1641
I1
F186.0
sI2
F173.0
sI3
F9.0
sI6
F1.4444445
sI7
F0.82963055
sI8
F2.1111114
sI9
F1.9851853
sI10
F17.148148
sI11
F13.555555
sI12
F15.555555
sI13
F22.333334
sI14
F-10.777778
sI15
F-4.7777777
sI16
F15.555555
sI17
F22.333334
sI18
F0.39643326
sI19
F2.332739
ssbsg15
g0
(g16
g2
Ntp1642
Rp1643
(dp1644
g20
I1
sbsba(iclasses
Instance
p1645
(dp1646
g10
(iclasses
FeatureVector
p1647
(dp1648
g13
(dp1649
I1
F74.0
sI2
F129.0
sI3
F9.0
sI6
F0.22222222
sI7
F0.029629637
sI8
F0.11111111
sI9
F0.029629635
sI10
F0.5185185
sI12
F1.5555556
sI14
F-1.5555556
sI15
F3.1111112
sI16
F-1.5555556
sI17
F1.5555556
sI18
F1.0
sI19
F-2.0943952
ssbsg15
g0
(g16
g2
Ntp1650
Rp1651
(dp1652
g20
I0
sbsba(iclasses
Instance
p1653
(dp1654
g10
(iclasses
FeatureVector
p1655
(dp1656
g13
(dp1657
I1
F14.0
sI2
F95.0
sI3
F9.0
sI6
F1.3333334
sI7
F0.699206
sI8
F1.1111112
sI9
F0.62063295
sI10
F2.2592592
sI11
F0.6666667
sI12
F3.8888888
sI13
F2.2222223
sI14
F-4.7777777
sI15
F4.888889
sI16
F-0.11111111
sI17
F3.8888888
sI18
F0.8740741
sI19
F-2.5527236
ssbsg15
g0
(g16
g2
Ntp1658
Rp1659
(dp1660
g20
I0
sbsba(iclasses
Instance
p1661
(dp1662
g10
(iclasses
FeatureVector
p1663
(dp1664
g13
(dp1665
I1
F163.0
sI2
F210.0
sI3
F9.0
sI6
F1.5555555
sI7
F0.5443307
sI8
F1.4999999
sI9
F0.9603243
sI10
F11.851851
sI11
F9.333334
sI12
F8.888889
sI13
F17.333334
sI14
F-7.5555553
sI15
F-8.888889
sI16
F16.444445
sI17
F17.333334
sI18
F0.48873982
sI19
F2.0437257
ssbsg15
g0
(g16
g2
Ntp1666
Rp1667
(dp1668
g20
I1
sbsba(iclasses
Instance
p1669
(dp1670
g10
(iclasses
FeatureVector
p1671
(dp1672
g13
(dp1673
I1
F121.0
sI2
F237.0
sI3
F9.0
sI6
F1.3333331
sI7
F1.155555
sI8
F1.5555553
sI9
F0.785185
sI10
F7.4814816
sI11
F6.111111
sI12
F5.111111
sI13
F11.222222
sI14
F-4.111111
sI15
F-7.111111
sI16
F11.222222
sI17
F11.222222
sI18
F0.55723476
sI19
F1.9384677
ssbsg15
g0
(g16
g2
Ntp1674
Rp1675
(dp1676
g20
I1
sbsba(iclasses
Instance
p1677
(dp1678
g10
(iclasses
FeatureVector
p1679
(dp1680
g13
(dp1681
I1
F140.0
sI2
F125.0
sI3
F9.0
sI6
F0.66666657
sI7
F0.22222227
sI8
F2.6666667
sI9
F3.7777781
sI10
F3.925926
sI11
F1.5555556
sI12
F7.7777777
sI13
F2.4444444
sI14
F-7.111111
sI15
F11.555555
sI16
F-4.4444447
sI17
F7.7777777
sI18
F0.85319865
sI19
F-2.2342408
ssbsg15
g0
(g16
g2
Ntp1682
Rp1683
(dp1684
g20
I0
sbsba(iclasses
Instance
p1685
(dp1686
g10
(iclasses
FeatureVector
p1687
(dp1688
g13
(dp1689
I1
F63.0
sI2
F122.0
sI3
F9.0
sI10
F0.33333334
sI12
F1.0
sI14
F-1.0
sI15
F2.0
sI16
F-1.0
sI17
F1.0
sI18
F1.0
sI19
F-2.0943952
ssbsg15
g0
(g16
g2
Ntp1690
Rp1691
(dp1692
g20
I0
sbsba(iclasses
Instance
p1693
(dp1694
g10
(iclasses
FeatureVector
p1695
(dp1696
g13
(dp1697
I1
F76.0
sI2
F249.0
sI3
F9.0
sI4
F0.11111111
sI6
F2.0555558
sI7
F2.0629644
sI8
F2.3333335
sI9
F5.5111136
sI10
F13.37037
sI11
F12.222222
sI12
F13.111111
sI13
F14.777778
sI14
F-3.4444444
sI15
F-0.7777778
sI16
F4.2222223
sI17
F15.0
sI18
F0.20324889
sI19
F2.5634372
ssbsg15
g0
(g16
g2
Ntp1698
Rp1699
(dp1700
g20
I1
sbsba(iclasses
Instance
p1701
(dp1702
g10
(iclasses
FeatureVector
p1703
(dp1704
g13
(dp1705
I1
F212.0
sI2
F235.0
sI3
F9.0
sI6
F1.4444447
sI7
F1.4555132
sI8
F1.944445
sI9
F2.2648687
sI10
F25.88889
sI11
F21.11111
sI12
F24.0
sI13
F32.555557
sI14
F-14.333333
sI15
F-5.6666665
sI16
F20.0
sI17
F32.555557
sI18
F0.35188085
sI19
F2.3560238
ssbsg15
g0
(g16
g2
Ntp1706
Rp1707
(dp1708
g20
I1
sbsba(iclasses
Instance
p1709
(dp1710
g10
(iclasses
FeatureVector
p1711
(dp1712
g13
(dp1713
I1
F231.0
sI2
F124.0
sI3
F9.0
sI6
F3.4444447
sI7
F14.962965
sI8
F1.8333334
sI9
F6.4333353
sI10
F3.0
sI11
F1.4444444
sI12
F5.888889
sI13
F1.6666666
sI14
F-4.6666665
sI15
F8.666667
sI16
F-4.0
sI17
F5.888889
sI18
F0.895369
sI19
F-2.118937
ssbsg15
g0
(g16
g2
Ntp1714
Rp1715
(dp1716
g20
I0
sbsba(iclasses
Instance
p1717
(dp1718
g10
(iclasses
FeatureVector
p1719
(dp1720
g13
(dp1721
I1
F142.0
sI2
F208.0
sI3
F9.0
sI6
F1.9444442
sI7
F2.6407385
sI8
F2.4999995
sI9
F1.3222219
sI10
F18.555555
sI11
F15.444445
sI12
F14.888889
sI13
F25.333334
sI14
F-9.333333
sI15
F-11.0
sI16
F20.333334
sI17
F25.333334
sI18
F0.4408947
sI19
F2.1022124
ssbsg15
g0
(g16
g2
Ntp1722
Rp1723
(dp1724
g20
I1
sbsba(iclasses
Instance
p1725
(dp1726
g10
(iclasses
FeatureVector
p1727
(dp1728
g13
(dp1729
I1
F245.0
sI2
F249.0
sI3
F9.0
sI6
F2.0
sI7
F1.2888895
sI8
F1.4999999
sI9
F0.61111146
sI10
F14.740741
sI11
F10.777778
sI12
F15.333333
sI13
F18.11111
sI14
F-11.888889
sI15
F1.7777778
sI16
F10.111111
sI17
F18.11111
sI18
F0.40621215
sI19
F2.7435553
ssbsg15
g0
(g16
g2
Ntp1730
Rp1731
(dp1732
g20
I1
sbsba(iclasses
Instance
p1733
(dp1734
g10
(iclasses
FeatureVector
p1735
(dp1736
g13
(dp1737
I1
F96.0
sI2
F130.0
sI3
F9.0
sI6
F0.5555555
sI7
F0.45542008
sI8
F1.2222222
sI9
F0.65546143
sI10
F2.4074075
sI11
F0.44444445
sI12
F5.0
sI13
F1.7777778
sI14
F-5.888889
sI15
F7.7777777
sI16
F-1.8888888
sI17
F5.0
sI18
F0.93121696
sI19
F-2.3662155
ssbsg15
g0
(g16
g2
Ntp1738
Rp1739
(dp1740
g20
I0
sbsba(iclasses
Instance
p1741
(dp1742
g10
(iclasses
FeatureVector
p1743
(dp1744
g13
(dp1745
I1
F89.0
sI2
F221.0
sI3
F9.0
sI6
F1.3888888
sI7
F1.4851848
sI8
F1.4444445
sI9
F1.5851862
sI10
F14.074074
sI11
F10.666667
sI12
F12.444445
sI13
F19.11111
sI14
F-10.222222
sI15
F-4.888889
sI16
F15.111111
sI17
F19.11111
sI18
F0.44601154
sI19
F2.3172119
ssbsg15
g0
(g16
g2
Ntp1746
Rp1747
(dp1748
g20
I1
sbsba(iclasses
Instance
p1749
(dp1750
g10
(iclasses
FeatureVector
p1751
(dp1752
g13
(dp1753
I1
F63.0
sI2
F201.0
sI3
F9.0
sI6
F1.4444445
sI7
F0.9185186
sI8
F0.94444424
sI9
F0.5518518
sI10
F7.7777777
sI11
F6.2222223
sI12
F5.5555553
sI13
F11.555555
sI14
F-4.6666665
sI15
F-6.6666665
sI16
F11.333333
sI17
F11.555555
sI18
F0.54320127
sI19
F1.9829868
ssbsg15
g0
(g16
g2
Ntp1754
Rp1755
(dp1756
g20
I1
sbsba(iclasses
Instance
p1757
(dp1758
g10
(iclasses
FeatureVector
p1759
(dp1760
g13
(dp1761
I1
F96.0
sI2
F96.0
sI3
F9.0
sI6
F1.0
sI7
F1.5111109
sI8
F0.8333333
sI9
F0.29999986
sI10
F6.296296
sI11
F2.6666667
sI12
F11.888889
sI13
F4.3333335
sI14
F-10.888889
sI15
F16.777779
sI16
F-5.888889
sI17
F11.888889
sI18
F0.7788625
sI19
F-2.2757916
ssbsg15
g0
(g16
g2
Ntp1762
Rp1763
(dp1764
g20
I0
sbsba(iclasses
Instance
p1765
(dp1766
g10
(iclasses
FeatureVector
p1767
(dp1768
g13
(dp1769
I1
F47.0
sI2
F209.0
sI3
F9.0
sI6
F1.7222222
sI7
F1.2895589
sI8
F1.388889
sI9
F0.92895794
sI10
F11.62963
sI11
F9.555555
sI12
F9.222222
sI13
F16.11111
sI14
F-6.2222223
sI15
F-7.2222223
sI16
F13.444445
sI17
F16.11111
sI18
F0.46432462
sI19
F2.0609548
ssbsg15
g0
(g16
g2
Ntp1770
Rp1771
(dp1772
g20
I1
sbsba(iclasses
Instance
p1773
(dp1774
g10
(iclasses
FeatureVector
p1775
(dp1776
g13
(dp1777
I1
F94.0
sI2
F127.0
sI3
F9.0
sI6
F0.77777785
sI7
F0.5018486
sI8
F0.77777773
sI9
F0.6885305
sI10
F2.7407408
sI11
F0.5555556
sI12
F5.5555553
sI13
F2.1111112
sI14
F-6.5555553
sI15
F8.444445
sI16
F-1.8888888
sI17
F5.5555553
sI18
F0.91534394
sI19
F-2.4089394
ssbsg15
g0
(g16
g2
Ntp1778
Rp1779
(dp1780
g20
I0
sbsba(iclasses
Instance
p1781
(dp1782
g10
(iclasses
FeatureVector
p1783
(dp1784
g13
(dp1785
I1
F58.0
sI2
F128.0
sI3
F9.0
sI4
F0.11111111
sI6
F2.9444447
sI7
F1.75647
sI8
F2.4444444
sI9
F1.6821501
sI10
F16.481482
sI11
F10.111111
sI12
F25.88889
sI13
F13.444445
sI14
F-19.11111
sI15
F28.222221
sI16
F-9.111111
sI17
F25.88889
sI18
F0.6133847
sI19
F-2.3163002
ssbsg15
g0
(g16
g2
Ntp1786
Rp1787
(dp1788
g20
I0
sbsba(iclasses
Instance
p1789
(dp1790
g10
(iclasses
FeatureVector
p1791
(dp1792
g13
(dp1793
I1
F152.0
sI2
F247.0
sI3
F9.0
sI5
F0.22222222
sI6
F1.6111107
sI7
F1.2185191
sI8
F7.1111107
sI9
F4.340751
sI10
F21.925926
sI11
F21.11111
sI12
F25.11111
sI13
F19.555555
sI14
F-2.4444444
sI15
F9.555555
sI16
F-7.111111
sI17
F25.11111
sI18
F0.21578804
sI19
F-1.7554835
ssbsg15
g0
(g16
g2
Ntp1794
Rp1795
(dp1796
g20
I1
sbsba(iclasses
Instance
p1797
(dp1798
g10
(iclasses
FeatureVector
p1799
(dp1800
g13
(dp1801
I1
F33.0
sI2
F94.0
sI3
F9.0
sI6
F1.3333336
sI7
F0.21081811
sI8
F2.5555556
sI9
F1.6420401
sI10
F5.888889
sI11
F3.2222223
sI12
F7.7777777
sI13
F6.6666665
sI14
F-8.0
sI15
F5.6666665
sI16
F2.3333333
sI17
F7.7777777
sI18
F0.60978836
sI19
F-2.869948
ssbsg15
g0
(g16
g2
Ntp1802
Rp1803
(dp1804
g20
I0
sbsba(iclasses
Instance
p1805
(dp1806
g10
(iclasses
FeatureVector
p1807
(dp1808
g13
(dp1809
I1
F234.0
sI2
F177.0
sI3
F9.0
sI6
F1.111111
sI7
F0.4740733
sI8
F0.88888884
sI9
F0.5629634
sI10
F16.25926
sI11
F12.555555
sI12
F15.444445
sI13
F20.777779
sI14
F-11.111111
sI15
F-2.4444444
sI16
F13.555555
sI17
F20.777779
sI18
F0.3963988
sI19
F2.4621184
ssbsg15
g0
(g16
g2
Ntp1810
Rp1811
(dp1812
g20
I1
sbsba(iclasses
Instance
p1813
(dp1814
g10
(iclasses
FeatureVector
p1815
(dp1816
g13
(dp1817
I1
F224.0
sI2
F73.0
sI3
F9.0
sI6
F1.5
sI7
F1.2777776
sI8
F2.3333333
sI9
F1.0666656
sI10
F5.814815
sI11
F2.3333335
sI12
F10.666667
sI13
F4.4444447
sI14
F-10.444445
sI15
F14.555555
sI16
F-4.111111
sI17
F10.666667
sI18
F0.7899301
sI19
F-2.3556414
ssbsg15
g0
(g16
g2
Ntp1818
Rp1819
(dp1820
g20
I0
sbsba(iclasses
Instance
p1821
(dp1822
g10
(iclasses
FeatureVector
p1823
(dp1824
g13
(dp1825
I1
F71.0
sI2
F187.0
sI3
F9.0
sI6
F2.0
sI7
F1.6329935
sI8
F3.555555
sI9
F1.8698399
sI10
F18.666666
sI11
F14.666667
sI12
F16.222223
sI13
F25.11111
sI14
F-12.0
sI15
F-7.3333335
sI16
F19.333334
sI17
F25.11111
sI18
F0.43121487
sI19
F2.2543035
ssbsg15
g0
(g16
g2
Ntp1826
Rp1827
(dp1828
g20
I1
sbsba(iclasses
Instance
p1829
(dp1830
g10
(iclasses
FeatureVector
p1831
(dp1832
g13
(dp1833
I1
F68.0
sI2
F122.0
sI3
F9.0
sI6
F2.777778
sI7
F2.0294137
sI8
F1.5555559
sI9
F1.9962927
sI10
F20.148148
sI11
F14.222222
sI12
F31.11111
sI13
F15.111111
sI14
F-17.777779
sI15
F32.88889
sI16
F-15.111111
sI17
F31.11111
sI18
F0.54582953
sI19
F-2.0601704
ssbsg15
g0
(g16
g2
Ntp1834
Rp1835
(dp1836
g20
I0
sbsba(iclasses
Instance
p1837
(dp1838
g10
(iclasses
FeatureVector
p1839
(dp1840
g13
(dp1841
I1
F68.0
sI2
F172.0
sI3
F9.0
sI6
F1.0555553
sI7
F1.0628396
sI8
F2.3333337
sI9
F1.6996722
sI10
F30.11111
sI11
F24.555555
sI12
F30.11111
sI13
F35.666668
sI14
F-16.666666
sI16
F16.666666
sI17
F35.666668
sI18
F0.31229463
sI19
F2.6178014
ssbsg15
g0
(g16
g2
Ntp1842
Rp1843
(dp1844
g20
I1
sbsba(iclasses
Instance
p1845
(dp1846
g10
(iclasses
FeatureVector
p1847
(dp1848
g13
(dp1849
I1
F93.0
sI2
F236.0
sI3
F9.0
sI4
F0.11111111
sI6
F1.7777777
sI7
F2.6962965
sI8
F1.9999999
sI9
F0.93333334
sI10
F12.518518
sI11
F9.555555
sI12
F10.777778
sI13
F17.222223
sI14
F-8.888889
sI15
F-5.2222223
sI16
F14.111111
sI17
F17.222223
sI18
F0.44724658
sI19
F2.2671974
ssbsg15
g0
(g16
g2
Ntp1850
Rp1851
(dp1852
g20
I1
sbsba(iclasses
Instance
p1853
(dp1854
g10
(iclasses
FeatureVector
p1855
(dp1856
g13
(dp1857
I1
F14.0
sI2
F120.0
sI3
F9.0
sI6
F0.3333333
sI7
F0.13333331
sI8
F0.44444442
sI9
F0.29629624
sI10
F1.5925926
sI12
F3.8888888
sI13
F0.8888889
sI14
F-4.7777777
sI15
F6.888889
sI16
F-2.1111112
sI17
F3.8888888
sI18
F1.0
sI19
F-2.3157208
ssbsg15
g0
(g16
g2
Ntp1858
Rp1859
(dp1860
g20
I0
sbsba(iclasses
Instance
p1861
(dp1862
g10
(iclasses
FeatureVector
p1863
(dp1864
g13
(dp1865
I1
F214.0
sI2
F121.0
sI3
F9.0
sI6
F0.2777778
sI7
F0.06296298
sI8
F0.11111111
sI9
F0.07407408
sI10
F1.1481482
sI12
F3.3333333
sI13
F0.11111111
sI14
F-3.4444444
sI15
F6.5555553
sI16
F-3.1111112
sI17
F3.3333333
sI18
F1.0
sI19
F-2.132635
ssbsg15
g0
(g16
g2
Ntp1866
Rp1867
(dp1868
g20
I0
sbsba(iclasses
Instance
p1869
(dp1870
g10
(iclasses
FeatureVector
p1871
(dp1872
g13
(dp1873
I1
F96.0
sI2
F133.0
sI3
F9.0
sI6
F0.055555556
sI7
F0.01851852
sI8
F0.22222222
sI9
F0.029629637
sI10
F0.4814815
sI12
F1.4444444
sI14
F-1.4444444
sI15
F2.8888888
sI16
F-1.4444444
sI17
F1.4444444
sI18
F1.0
sI19
F-2.0943952
ssbsg15
g0
(g16
g2
Ntp1874
Rp1875
(dp1876
g20
I0
sbsba(iclasses
Instance
p1877
(dp1878
g10
(iclasses
FeatureVector
p1879
(dp1880
g13
(dp1881
I1
F23.0
sI2
F92.0
sI3
F9.0
sI5
F0.11111111
sI6
F4.111111
sI7
F4.63641
sI8
F7.0
sI9
F5.688196
sI10
F12.666667
sI11
F8.777778
sI12
F18.666668
sI13
F10.555555
sI14
F-11.666667
sI15
F18.0
sI16
F-6.3333335
sI17
F18.666668
sI18
F0.56489813
sI19
F-2.2805607
ssbsg15
g0
(g16
g2
Ntp1882
Rp1883
(dp1884
g20
I0
sbsba(iclasses
Instance
p1885
(dp1886
g10
(iclasses
FeatureVector
p1887
(dp1888
g13
(dp1889
I1
F74.0
sI2
F129.0
sI3
F9.0
sI6
F0.22222222
sI7
F0.029629637
sI8
F0.11111111
sI9
F0.029629635
sI10
F0.5185185
sI12
F1.5555556
sI14
F-1.5555556
sI15
F3.1111112
sI16
F-1.5555556
sI17
F1.5555556
sI18
F1.0
sI19
F-2.0943952
ssbsg15
g0
(g16
g2
Ntp1890
Rp1891
(dp1892
g20
I0
sbsba(iclasses
Instance
p1893
(dp1894
g10
(iclasses
FeatureVector
p1895
(dp1896
g13
(dp1897
I1
F104.0
sI2
F139.0
sI3
F9.0
sI6
F0.33333334
sI7
F0.5163977
sI8
F0.33333334
sI9
F0.5163977
sI10
F0.6666667
sI12
F1.7777778
sI13
F0.22222222
sI14
F-2.0
sI15
F3.3333333
sI16
F-1.3333334
sI17
F1.7777778
sI18
F1.0
sI19
F-2.1507304
ssbsg15
g0
(g16
g2
Ntp1898
Rp1899
(dp1900
g20
I0
sbsba(iclasses
Instance
p1901
(dp1902
g10
(iclasses
FeatureVector
p1903
(dp1904
g13
(dp1905
I1
F54.0
sI2
F126.0
sI3
F9.0
sI6
F0.6666666
sI7
F0.31111127
sI8
F0.49999997
sI9
F0.16666673
sI10
F1.4074074
sI12
F3.6666667
sI13
F0.5555556
sI14
F-4.2222223
sI15
F6.7777777
sI16
F-2.5555556
sI17
F3.6666667
sI18
F1.0
sI19
F-2.229939
ssbsg15
g0
(g16
g2
Ntp1906
Rp1907
(dp1908
g20
I0
sbsba(iclasses
Instance
p1909
(dp1910
g10
(iclasses
FeatureVector
p1911
(dp1912
g13
(dp1913
I1
F23.0
sI2
F129.0
sI3
F9.0
sI6
F0.5
sI7
F0.077777795
sI8
F0.38888887
sI9
F0.15185186
sI10
F0.5185185
sI12
F1.5555556
sI14
F-1.5555556
sI15
F3.1111112
sI16
F-1.5555556
sI17
F1.5555556
sI18
F0.7777778
sI19
F-2.0943952
ssbsg15
g0
(g16
g2
Ntp1914
Rp1915
(dp1916
g20
I0
sbsba(iclasses
Instance
p1917
(dp1918
g10
(iclasses
FeatureVector
p1919
(dp1920
g13
(dp1921
I1
F217.0
sI2
F245.0
sI3
F9.0
sI4
F0.11111111
sI5
F0.11111111
sI6
F3.1666667
sI7
F3.0166214
sI8
F2.1666667
sI9
F1.2427571
sI10
F9.740741
sI11
F7.4444447
sI12
F7.111111
sI13
F14.666667
sI14
F-6.888889
sI15
F-7.888889
sI16
F14.777778
sI17
F14.666667
sI18
F0.57276654
sI19
F2.0694523
ssbsg15
g0
(g16
g2
Ntp1922
Rp1923
(dp1924
g20
I1
sbsba(iclasses
Instance
p1925
(dp1926
g10
(iclasses
FeatureVector
p1927
(dp1928
g13
(dp1929
I1
F163.0
sI2
F177.0
sI3
F9.0
sI4
F0.11111111
sI6
F1.1666673
sI7
F0.7
sI8
F2.5
sI9
F0.7888896
sI10
F24.518518
sI11
F21.222221
sI12
F21.444445
sI13
F30.88889
sI14
F-9.888889
sI15
F-9.222222
sI16
F19.11111
sI17
F30.88889
sI18
F0.3211389
sI19
F2.1254158
ssbsg15
g0
(g16
g2
Ntp1930
Rp1931
(dp1932
g20
I1
sbsba(iclasses
Instance
p1933
(dp1934
g10
(iclasses
FeatureVector
p1935
(dp1936
g13
(dp1937
I1
F18.0
sI2
F90.0
sI3
F9.0
sI6
F1.0555555
sI7
F0.37407416
sI8
F0.6666667
sI9
F0.22222227
sI10
F2.8148148
sI11
F0.5555556
sI12
F6.888889
sI13
F1.0
sI14
F-6.7777777
sI15
F12.222222
sI16
F-5.4444447
sI17
F6.888889
sI18
F0.9261464
sI19
F-2.1643226
ssbsg15
g0
(g16
g2
Ntp1938
Rp1939
(dp1940
g20
I0
sbsba(iclasses
Instance
p1941
(dp1942
g10
(iclasses
FeatureVector
p1943
(dp1944
g13
(dp1945
I1
F140.0
sI2
F161.0
sI3
F9.0
sI6
F0.27777767
sI7
F0.3277306
sI8
F0.7777777
sI9
F0.6206328
sI10
F15.740741
sI11
F12.444445
sI12
F14.333333
sI13
F20.444445
sI14
F-9.888889
sI15
F-4.2222223
sI16
F14.111111
sI17
F20.444445
sI18
F0.39095718
sI19
F2.3451326
ssbsg15
g0
(g16
g2
Ntp1946
Rp1947
(dp1948
g20
I1
sbsba(iclasses
Instance
p1949
(dp1950
g10
(iclasses
FeatureVector
p1951
(dp1952
g13
(dp1953
I1
F63.0
sI2
F220.0
sI3
F9.0
sI6
F3.055556
sI7
F15.2629595
sI8
F3.6666667
sI9
F6.0888896
sI10
F8.185185
sI11
F6.5555553
sI12
F6.4444447
sI13
F11.555555
sI14
F-4.888889
sI15
F-5.2222223
sI16
F10.111111
sI17
F11.555555
sI18
F0.48671728
sI19
F2.0931497
ssbsg15
g0
(g16
g2
Ntp1954
Rp1955
(dp1956
g20
I1
sbsba(iclasses
Instance
p1957
(dp1958
g10
(iclasses
FeatureVector
p1959
(dp1960
g13
(dp1961
I1
F19.0
sI2
F90.0
sI3
F9.0
sI6
F1.3888888
sI7
F1.8851852
sI8
F1.1111112
sI9
F2.1185184
sI10
F3.4074075
sI11
F0.8888889
sI12
F7.888889
sI13
F1.4444444
sI14
F-7.5555553
sI15
F13.444445
sI16
F-5.888889
sI17
F7.888889
sI18
F0.904321
sI19
F-2.1660802
ssbsg15
g0
(g16
g2
Ntp1962
Rp1963
(dp1964
g20
I0
sbsba(iclasses
Instance
p1965
(dp1966
g10
(iclasses
FeatureVector
p1967
(dp1968
g13
(dp1969
I1
F215.0
sI2
F219.0
sI3
F9.0
sI6
F2.5555556
sI7
F2.2377238
sI8
F3.2222223
sI9
F2.491467
sI10
F13.222222
sI11
F10.333334
sI12
F10.222222
sI13
F19.11111
sI14
F-8.666667
sI15
F-9.0
sI16
F17.666666
sI17
F19.11111
sI18
F0.49459508
sI19
F2.0861003
ssbsg15
g0
(g16
g2
Ntp1970
Rp1971
(dp1972
g20
I1
sbsba(iclasses
Instance
p1973
(dp1974
g10
(iclasses
FeatureVector
p1975
(dp1976
g13
(dp1977
I1
F38.0
sI2
F241.0
sI3
F9.0
sI6
F2.055556
sI7
F0.5741337
sI8
F1.5555559
sI9
F1.4246509
sI10
F14.333333
sI11
F10.888889
sI12
F14.0
sI13
F18.11111
sI14
F-10.333333
sI15
F-1.0
sI16
F11.333333
sI17
F18.11111
sI18
F0.3999011
sI19
F2.544142
ssbsg15
g0
(g16
g2
Ntp1978
Rp1979
(dp1980
g20
I1
sbsba(iclasses
Instance
p1981
(dp1982
g10
(iclasses
FeatureVector
p1983
(dp1984
g13
(dp1985
I1
F200.0
sI2
F250.0
sI3
F9.0
sI6
F2.2777777
sI7
F1.420746
sI8
F1.4444445
sI9
F1.0255988
sI10
F9.222222
sI11
F6.5555553
sI12
F7.3333335
sI13
F13.777778
sI14
F-8.0
sI15
F-5.6666665
sI16
F13.666667
sI17
F13.777778
sI18
F0.5633903
sI19
F2.1929355
ssbsg15
g0
(g16
g2
Ntp1986
Rp1987
(dp1988
g20
I1
sbsba(iclasses
Instance
p1989
(dp1990
g10
(iclasses
FeatureVector
p1991
(dp1992
g13
(dp1993
I1
F16.0
sI2
F246.0
sI3
F9.0
sI4
F0.11111111
sI6
F2.3888888
sI7
F1.0851847
sI8
F1.722222
sI9
F1.7518522
sI10
F9.407408
sI11
F9.555555
sI12
F10.111111
sI13
F8.555555
sI14
F0.44444445
sI15
F2.1111112
sI16
F-2.5555556
sI17
F10.333334
sI18
F0.16335146
sI19
F-1.1905607
ssbsg15
g0
(g16
g2
Ntp1994
Rp1995
(dp1996
g20
I1
sbsba(iclasses
Instance
p1997
(dp1998
g10
(iclasses
FeatureVector
p1999
(dp2000
g13
(dp2001
I1
F113.0
sI2
F130.0
sI3
F9.0
sI6
F0.27777776
sI7
F0.25092423
sI8
F0.33333328
sI9
F0.3651483
sI10
F0.8888889
sI12
F2.5555556
sI13
F0.11111111
sI14
F-2.6666667
sI15
F5.0
sI16
F-2.3333333
sI17
F2.5555556
sI18
F1.0
sI19
F-2.123254
ssbsg15
g0
(g16
g2
Ntp2002
Rp2003
(dp2004
g20
I0
sbsba(iclasses
Instance
p2005
(dp2006
g10
(iclasses
FeatureVector
p2007
(dp2008
g13
(dp2009
I1
F175.0
sI2
F212.0
sI3
F9.0
sI4
F0.11111111
sI6
F1.0000001
sI7
F0.666667
sI8
F1.8333334
sI9
F1.345775
sI10
F12.296296
sI11
F10.0
sI12
F9.0
sI13
F17.88889
sI14
F-6.888889
sI15
F-9.888889
sI16
F16.777779
sI17
F17.88889
sI18
F0.4987573
sI19
F1.9744948
ssbsg15
g0
(g16
g2
Ntp2010
Rp2011
(dp2012
g20
I1
sbsba(iclasses
Instance
p2013
(dp2014
g10
(iclasses
FeatureVector
p2015
(dp2016
g13
(dp2017
I1
F127.0
sI2
F143.0
sI3
F9.0
sI6
F1.5
sI7
F0.12222214
sI8
F0.88888884
sI9
F0.60740745
sI10
F4.185185
sI11
F0.8888889
sI12
F9.444445
sI13
F2.2222223
sI14
F-9.888889
sI15
F15.777778
sI16
F-5.888889
sI17
F9.444445
sI18
F0.915376
sI19
F-2.2574124
ssbsg15
g0
(g16
g2
Ntp2018
Rp2019
(dp2020
g20
I0
sbsba(iclasses
Instance
p2021
(dp2022
g10
(iclasses
FeatureVector
p2023
(dp2024
g13
(dp2025
I1
F71.0
sI2
F180.0
sI3
F9.0
sI4
F0.11111111
sI6
F1.222222
sI7
F0.5629625
sI8
F3.0
sI9
F1.8666646
sI10
F22.333334
sI11
F18.333334
sI12
F21.444445
sI13
F27.222221
sI14
F-12.0
sI15
F-2.6666667
sI16
F14.666667
sI17
F27.222221
sI18
F0.3273826
sI19
F2.4538307
ssbsg15
g0
(g16
g2
Ntp2026
Rp2027
(dp2028
g20
I1
sbsba(iclasses
Instance
p2029
(dp2030
g10
(iclasses
FeatureVector
p2031
(dp2032
g13
(dp2033
I1
F115.0
sI2
F138.0
sI3
F9.0
sI6
F0.33333334
sI7
F0.0888889
sI8
F0.33333334
sI9
F0.1777778
sI10
F0.7777778
sI12
F2.3333335
sI14
F-2.3333333
sI15
F4.6666665
sI16
F-2.3333333
sI17
F2.3333335
sI18
F1.0
sI19
F-2.0943952
ssbsg15
g0
(g16
g2
Ntp2034
Rp2035
(dp2036
g20
I0
sbsba(iclasses
Instance
p2037
(dp2038
g10
(iclasses
FeatureVector
p2039
(dp2040
g13
(dp2041
I1
F91.0
sI2
F247.0
sI3
F9.0
sI6
F2.6666665
sI7
F1.2472191
sI8
F2.222222
sI9
F1.4246507
sI10
F12.62963
sI11
F9.555555
sI12
F12.444445
sI13
F15.888889
sI14
F-9.222222
sI15
F-0.5555556
sI16
F9.777778
sI17
F15.888889
sI18
F0.4018332
sI19
F2.55309
ssbsg15
g0
(g16
g2
Ntp2042
Rp2043
(dp2044
g20
I1
sbsba(iclasses
Instance
p2045
(dp2046
g10
(iclasses
FeatureVector
p2047
(dp2048
g13
(dp2049
I1
F62.0
sI2
F223.0
sI3
F9.0
sI6
F2.5
sI7
F5.722223
sI8
F1.6666666
sI9
F2.4444442
sI10
F6.6666665
sI11
F4.888889
sI12
F4.666667
sI13
F10.444445
sI14
F-5.3333335
sI15
F-6.0
sI16
F11.333333
sI17
F10.444445
sI18
F0.5931498
sI19
F2.0465877
ssbsg15
g0
(g16
g2
Ntp2050
Rp2051
(dp2052
g20
I1
sbsba(iclasses
Instance
p2053
(dp2054
g10
(iclasses
FeatureVector
p2055
(dp2056
g13
(dp2057
I1
F107.0
sI2
F210.0
sI3
F9.0
sI6
F0.9444445
sI7
F0.5962963
sI8
F1.8333335
sI9
F0.65555495
sI10
F15.111111
sI11
F11.222222
sI12
F14.222222
sI13
F19.88889
sI14
F-11.666667
sI15
F-2.6666667
sI16
F14.333333
sI17
F19.88889
sI18
F0.43576914
sI19
F2.4615993
ssbsg15
g0
(g16
g2
Ntp2058
Rp2059
(dp2060
g20
I1
sbsba(iclasses
Instance
p2061
(dp2062
g10
(iclasses
FeatureVector
p2063
(dp2064
g13
(dp2065
I1
F53.0
sI2
F135.0
sI3
F9.0
sI6
F0.5555555
sI7
F0.2074075
sI8
F0.33333334
sI9
F0.08888893
sI10
F0.7407407
sI12
F2.1111112
sI13
F0.11111111
sI14
F-2.2222223
sI15
F4.111111
sI16
F-1.8888888
sI17
F2.1111112
sI18
F0.8888889
sI19
F-2.1374457
ssbsg15
g0
(g16
g2
Ntp2066
Rp2067
(dp2068
g20
I0
sbsba(iclasses
Instance
p2069
(dp2070
g10
(iclasses
FeatureVector
p2071
(dp2072
g13
(dp2073
I1
F49.0
sI2
F112.0
sI3
F9.0
sI4
F0.11111111
sI6
F1.3333334
sI7
F1.3777776
sI8
F1.5555555
sI9
F1.7185184
sI10
F3.8148148
sI11
F1.1111112
sI12
F7.2222223
sI13
F3.1111112
sI14
F-8.111111
sI15
F10.222222
sI16
F-2.1111112
sI17
F7.2222223
sI18
F0.86766475
sI19
F-2.4357176
ssbsg15
g0
(g16
g2
Ntp2074
Rp2075
(dp2076
g20
I0
sbsba(iclasses
Instance
p2077
(dp2078
g10
(iclasses
FeatureVector
p2079
(dp2080
g13
(dp2081
I1
F234.0
sI2
F161.0
sI3
F9.0
sI6
F0.888889
sI7
F0.501849
sI8
F1.6111113
sI9
F1.4050179
sI10
F19.037037
sI11
F15.111111
sI12
F17.0
sI13
F25.0
sI14
F-11.777778
sI15
F-6.111111
sI16
F17.88889
sI17
F25.0
sI18
F0.39559862
sI19
F2.292736
ssbsg15
g0
(g16
g2
Ntp2082
Rp2083
(dp2084
g20
I1
sbsba(iclasses
Instance
p2085
(dp2086
g10
(iclasses
FeatureVector
p2087
(dp2088
g13
(dp2089
I1
F29.0
sI2
F195.0
sI3
F9.0
sI6
F0.44444433
sI7
F0.40368652
sI8
F0.61111087
sI9
F0.6804136
sI10
F16.037037
sI11
F14.444445
sI12
F13.333333
sI13
F20.333334
sI14
F-4.7777777
sI15
F-8.111111
sI16
F12.888889
sI17
F20.333334
sI18
F0.34230694
sI19
F1.9430399
ssbsg15
g0
(g16
g2
Ntp2090
Rp2091
(dp2092
g20
I1
sbsba(iclasses
Instance
p2093
(dp2094
g10
(iclasses
FeatureVector
p2095
(dp2096
g13
(dp2097
I1
F100.0
sI2
F115.0
sI3
F9.0
sI4
F0.11111111
sI6
F0.77777785
sI7
F0.16296305
sI8
F0.7222223
sI9
F0.32962963
sI10
F2.7407408
sI11
F0.33333334
sI12
F6.2222223
sI13
F1.6666666
sI14
F-7.2222223
sI15
F10.444445
sI16
F-3.2222223
sI17
F6.2222223
sI18
F0.9543651
sI19
F-2.3218653
ssbsg15
g0
(g16
g2
Ntp2098
Rp2099
(dp2100
g20
I0
sbsba(iclasses
Instance
p2101
(dp2102
g10
(iclasses
FeatureVector
p2103
(dp2104
g13
(dp2105
I1
F94.0
sI2
F246.0
sI3
F9.0
sI6
F2.3333333
sI7
F1.6193275
sI8
F2.7222223
sI9
F0.77220213
sI10
F22.814816
sI11
F18.88889
sI12
F19.666668
sI13
F29.88889
sI14
F-11.777778
sI15
F-9.444445
sI16
F21.222221
sI17
F29.88889
sI18
F0.37479976
sI19
F2.1589146
ssbsg15
g0
(g16
g2
Ntp2106
Rp2107
(dp2108
g20
I1
sbsba(iclasses
Instance
p2109
(dp2110
g10
(iclasses
FeatureVector
p2111
(dp2112
g13
(dp2113
I1
F69.0
sI2
F139.0
sI3
F9.0
sI6
F2.8333328
sI7
F1.7732588
sI8
F2.1111112
sI9
F1.6688871
sI10
F18.074074
sI11
F16.0
sI12
F22.555555
sI13
F15.666667
sI14
F-6.2222223
sI15
F13.444445
sI16
F-7.2222223
sI17
F23.88889
sI18
F0.38661182
sI19
F-1.7028334
ssbsg15
g0
(g16
g2
Ntp2114
Rp2115
(dp2116
g20
I0
sbsba(iclasses
Instance
p2117
(dp2118
g10
(iclasses
FeatureVector
p2119
(dp2120
g13
(dp2121
I1
F100.0
sI2
F111.0
sI3
F9.0
sI6
F3.7222223
sI7
F20.951847
sI8
F4.111111
sI9
F19.496296
sI10
F4.888889
sI11
F2.2222223
sI12
F9.111111
sI13
F3.3333333
sI14
F-8.0
sI15
F12.666667
sI16
F-4.6666665
sI17
F9.111111
sI18
F0.8646644
sI19
F-2.2164733
ssbsg15
g0
(g16
g2
Ntp2122
Rp2123
(dp2124
g20
I0
sbsba(iclasses
Instance
p2125
(dp2126
g10
(iclasses
FeatureVector
p2127
(dp2128
g13
(dp2129
I1
F96.0
sI2
F236.0
sI3
F9.0
sI6
F1.7222222
sI7
F3.840741
sI8
F1.7222223
sI9
F1.1296297
sI10
F13.962963
sI11
F10.777778
sI12
F12.444445
sI13
F18.666668
sI14
F-9.555555
sI15
F-4.5555553
sI16
F14.111111
sI17
F18.666668
sI18
F0.42423514
sI19
F2.3206298
ssbsg15
g0
(g16
g2
Ntp2130
Rp2131
(dp2132
g20
I1
sbsba(iclasses
Instance
p2133
(dp2134
g10
(iclasses
FeatureVector
p2135
(dp2136
g13
(dp2137
I1
F78.0
sI2
F100.0
sI3
F9.0
sI6
F1.5555553
sI7
F8.296297
sI8
F2.5555556
sI9
F8.829631
sI10
F4.5925927
sI11
F1.4444444
sI12
F9.444445
sI13
F2.8888888
sI14
F-9.444445
sI15
F14.555555
sI16
F-5.111111
sI17
F9.444445
sI18
F0.87633204
sI19
F-2.2805398
ssbsg15
g0
(g16
g2
Ntp2138
Rp2139
(dp2140
g20
I0
sbsba(iclasses
Instance
p2141
(dp2142
g10
(iclasses
FeatureVector
p2143
(dp2144
g13
(dp2145
I1
F192.0
sI2
F239.0
sI3
F9.0
sI4
F0.11111111
sI6
F2.4999998
sI7
F2.4333322
sI8
F2.277778
sI9
F1.3074071
sI10
F15.148149
sI11
F12.222222
sI12
F14.555555
sI13
F18.666668
sI14
F-8.777778
sI15
F-1.7777778
sI16
F10.555555
sI17
F18.666668
sI18
F0.34430414
sI19
F2.482445
ssbsg15
g0
(g16
g2
Ntp2146
Rp2147
(dp2148
g20
I1
sbsba(iclasses
Instance
p2149
(dp2150
g10
(iclasses
FeatureVector
p2151
(dp2152
g13
(dp2153
I1
F23.0
sI2
F237.0
sI3
F9.0
sI6
F1.6666666
sI7
F2.444445
sI8
F1.7777777
sI9
F2.074075
sI10
F5.851852
sI11
F4.2222223
sI12
F4.5555553
sI13
F8.777778
sI14
F-4.888889
sI15
F-3.8888888
sI16
F8.777778
sI17
F8.777778
sI18
F0.54126585
sI19
F2.1805263
ssbsg15
g0
(g16
g2
Ntp2154
Rp2155
(dp2156
g20
I1
sbsba(iclasses
Instance
p2157
(dp2158
g10
(iclasses
FeatureVector
p2159
(dp2160
g13
(dp2161
I1
F18.0
sI2
F66.0
sI3
F9.0
sI6
F8.666665
sI7
F9.089677
sI8
F10.944443
sI9
F5.289054
sI10
F39.88889
sI11
F32.333336
sI12
F49.555557
sI13
F37.77778
sI14
F-22.666666
sI15
F29.0
sI16
F-6.3333335
sI17
F49.555557
sI18
F0.3501687
sI19
F-2.43063
ssbsg15
g0
(g16
g2
Ntp2162
Rp2163
(dp2164
g20
I0
sbsba(iclasses
Instance
p2165
(dp2166
g10
(iclasses
FeatureVector
p2167
(dp2168
g13
(dp2169
I1
F63.0
sI2
F201.0
sI3
F9.0
sI6
F1.4444445
sI7
F0.9185186
sI8
F0.94444424
sI9
F0.5518518
sI10
F7.7777777
sI11
F6.2222223
sI12
F5.5555553
sI13
F11.555555
sI14
F-4.6666665
sI15
F-6.6666665
sI16
F11.333333
sI17
F11.555555
sI18
F0.54320127
sI19
F1.9829868
ssbsg15
g0
(g16
g2
Ntp2170
Rp2171
(dp2172
g20
I1
sbsba(iclasses
Instance
p2173
(dp2174
g10
(iclasses
FeatureVector
p2175
(dp2176
g13
(dp2177
I1
F132.0
sI2
F91.0
sI3
F9.0
sI5
F0.11111111
sI6
F18.944445
sI7
F188.50739
sI8
F33.444447
sI9
F889.3629
sI10
F42.814816
sI11
F35.88889
sI12
F52.666668
sI13
F39.88889
sI14
F-20.777779
sI15
F29.555555
sI16
F-8.777778
sI17
F52.666668
sI18
F0.39882392
sI19
F-2.3460567
ssbsg15
g0
(g16
g2
Ntp2178
Rp2179
(dp2180
g20
I0
sbsba(iclasses
Instance
p2181
(dp2182
g10
(iclasses
FeatureVector
p2183
(dp2184
g13
(dp2185
I1
F241.0
sI2
F218.0
sI3
F9.0
sI6
F1.7777777
sI7
F3.4962964
sI8
F1.6666664
sI9
F1.0222222
sI10
F8.444445
sI11
F5.4444447
sI12
F7.3333335
sI13
F12.555555
sI14
F-9.0
sI15
F-3.3333333
sI16
F12.333333
sI17
F12.555555
sI18
F0.5692659
sI19
F2.361442
ssbsg15
g0
(g16
g2
Ntp2186
Rp2187
(dp2188
g20
I1
sbsba(iclasses
Instance
p2189
(dp2190
g10
(iclasses
FeatureVector
p2191
(dp2192
g13
(dp2193
I1
F18.0
sI2
F87.0
sI3
F9.0
sI6
F1.5555555
sI7
F1.9626132
sI8
F1.8888887
sI9
F1.7469552
sI10
F2.925926
sI11
F1.2222222
sI12
F5.6666665
sI13
F1.8888888
sI14
F-5.111111
sI15
F8.222222
sI16
F-3.1111112
sI17
F5.6666665
sI18
F0.86277056
sI19
F-2.2294934
ssbsg15
g0
(g16
g2
Ntp2194
Rp2195
(dp2196
g20
I0
sbsba(iclasses
Instance
p2197
(dp2198
g10
(iclasses
FeatureVector
p2199
(dp2200
g13
(dp2201
I1
F5.0
sI2
F118.0
sI3
F9.0
sI6
F0.22222222
sI7
F0.07407408
sI8
F0.33333334
sI9
F0.0888889
sI10
F0.9259259
sI12
F2.5555556
sI13
F0.22222222
sI14
F-2.7777777
sI15
F4.888889
sI16
F-2.1111112
sI17
F2.5555556
sI18
F1.0
sI19
F-2.1712801
ssbsg15
g0
(g16
g2
Ntp2202
Rp2203
(dp2204
g20
I0
sbsba(iclasses
Instance
p2205
(dp2206
g10
(iclasses
FeatureVector
p2207
(dp2208
g13
(dp2209
I1
F18.0
sI2
F90.0
sI3
F9.0
sI6
F1.0555555
sI7
F0.37407416
sI8
F0.6666667
sI9
F0.22222227
sI10
F2.8148148
sI11
F0.5555556
sI12
F6.888889
sI13
F1.0
sI14
F-6.7777777
sI15
F12.222222
sI16
F-5.4444447
sI17
F6.888889
sI18
F0.9261464
sI19
F-2.1643226
ssbsg15
g0
(g16
g2
Ntp2210
Rp2211
(dp2212
g20
I0
sbsba(iclasses
Instance
p2213
(dp2214
g10
(iclasses
FeatureVector
p2215
(dp2216
g13
(dp2217
I1
F25.0
sI2
F91.0
sI3
F9.0
sI6
F1.611111
sI7
F4.3740745
sI8
F1.388889
sI9
F0.99629617
sI10
F3.8888888
sI11
F0.8888889
sI12
F8.111112
sI13
F2.6666667
sI14
F-9.0
sI15
F12.666667
sI16
F-3.6666667
sI17
F8.111112
sI18
F0.9114478
sI19
F-2.3545752
ssbsg15
g0
(g16
g2
Ntp2218
Rp2219
(dp2220
g20
I0
sbsba(iclasses
Instance
p2221
(dp2222
g10
(iclasses
FeatureVector
p2223
(dp2224
g13
(dp2225
I1
F225.0
sI2
F222.0
sI3
F9.0
sI4
F0.11111111
sI6
F1.5
sI7
F0.4777781
sI8
F1.7777778
sI9
F1.7185186
sI10
F14.0
sI11
F10.777778
sI12
F13.666667
sI13
F17.555555
sI14
F-9.666667
sI15
F-1.0
sI16
F10.666667
sI17
F17.555555
sI18
F0.38572726
sI19
F2.5573087
ssbsg15
g0
(g16
g2
Ntp2226
Rp2227
(dp2228
g20
I1
sbsba(iclasses
Instance
p2229
(dp2230
g10
(iclasses
FeatureVector
p2231
(dp2232
g13
(dp2233
I1
F33.0
sI2
F142.0
sI3
F9.0
sI6
F1.888889
sI7
F1.3770607
sI8
F0.88888884
sI9
F1.4089661
sI10
F3.851852
sI11
F1.6666666
sI12
F7.2222223
sI13
F2.6666667
sI14
F-6.5555553
sI15
F10.111111
sI16
F-3.5555556
sI17
F7.2222223
sI18
F0.8135803
sI19
F-2.2806025
ssbsg15
g0
(g16
g2
Ntp2234
Rp2235
(dp2236
g20
I0
sbsba(iclasses
Instance
p2237
(dp2238
g10
(iclasses
FeatureVector
p2239
(dp2240
g13
(dp2241
I1
F86.0
sI2
F187.0
sI3
F9.0
sI6
F1.1111108
sI7
F0.7200825
sI8
F1.4444445
sI9
F0.750309
sI10
F13.740741
sI11
F11.666667
sI12
F10.333334
sI13
F19.222221
sI14
F-6.2222223
sI15
F-10.222222
sI16
F16.444445
sI17
F19.222221
sI18
F0.46332908
sI19
F1.9414649
ssbsg15
g0
(g16
g2
Ntp2242
Rp2243
(dp2244
g20
I1
sbsba(iclasses
Instance
p2245
(dp2246
g10
(iclasses
FeatureVector
p2247
(dp2248
g13
(dp2249
I1
F245.0
sI2
F176.0
sI3
F9.0
sI6
F1.0000006
sI7
F0.516398
sI8
F1.0
sI9
F0.5577736
sI10
F18.481482
sI11
F15.111111
sI12
F17.0
sI13
F23.333334
sI14
F-10.111111
sI15
F-4.4444447
sI16
F14.555555
sI17
F23.333334
sI18
F0.35206997
sI19
F2.332243
ssbsg15
g0
(g16
g2
Ntp2250
Rp2251
(dp2252
g20
I1
sbsba(iclasses
Instance
p2253
(dp2254
g10
(iclasses
FeatureVector
p2255
(dp2256
g13
(dp2257
I1
F88.0
sI2
F136.0
sI3
F9.0
sI6
F1.8333331
sI7
F1.149879
sI8
F2.0555553
sI9
F2.112573
sI10
F8.0
sI11
F4.111111
sI12
F13.222222
sI13
F6.6666665
sI14
F-11.666667
sI15
F15.666667
sI16
F-4.0
sI17
F13.222222
sI18
F0.6950877
sI19
F-2.412671
ssbsg15
g0
(g16
g2
Ntp2258
Rp2259
(dp2260
g20
I0
sbsba(iclasses
Instance
p2261
(dp2262
g10
(iclasses
FeatureVector
p2263
(dp2264
g13
(dp2265
I1
F114.0
sI2
F181.0
sI3
F9.0
sI6
F1.1111107
sI7
F0.38518563
sI8
F0.88888866
sI9
F1.0962963
sI10
F19.925926
sI11
F15.888889
sI12
F18.777779
sI13
F25.11111
sI14
F-12.111111
sI15
F-3.4444444
sI16
F15.555555
sI17
F25.11111
sI18
F0.36658052
sI19
F2.420823
ssbsg15
g0
(g16
g2
Ntp2266
Rp2267
(dp2268
g20
I1
sbsba(iclasses
Instance
p2269
(dp2270
g10
(iclasses
FeatureVector
p2271
(dp2272
g13
(dp2273
I1
F116.0
sI2
F211.0
sI3
F9.0
sI6
F1.722222
sI7
F1.1296293
sI8
F1.6111113
sI9
F1.7074069
sI10
F13.740741
sI11
F11.111111
sI12
F12.333333
sI13
F17.777779
sI14
F-7.888889
sI15
F-4.2222223
sI16
F12.111111
sI17
F17.777779
sI18
F0.37534603
sI19
F2.2920406
ssbsg15
g0
(g16
g2
Ntp2274
Rp2275
(dp2276
g20
I1
sbsba(iclasses
Instance
p2277
(dp2278
g10
(iclasses
FeatureVector
p2279
(dp2280
g13
(dp2281
I1
F4.0
sI2
F248.0
sI3
F9.0
sI6
F3.333334
sI7
F1.8135293
sI8
F3.2222226
sI9
F1.2590408
sI10
F19.555555
sI11
F15.555555
sI12
F16.666668
sI13
F26.444445
sI14
F-12.0
sI15
F-8.666667
sI16
F20.666666
sI17
F26.444445
sI18
F0.42215064
sI19
F2.205099
ssbsg15
g0
(g16
g2
Ntp2282
Rp2283
(dp2284
g20
I1
sbsba(iclasses
Instance
p2285
(dp2286
g10
(iclasses
FeatureVector
p2287
(dp2288
g13
(dp2289
I1
F162.0
sI2
F227.0
sI3
F9.0
sI6
F1.3888888
sI7
F0.99629617
sI8
F3.1666667
sI9
F8.611113
sI10
F13.962963
sI11
F10.111111
sI12
F14.444445
sI13
F17.333334
sI14
F-11.555555
sI15
F1.4444444
sI16
F10.111111
sI17
F17.444445
sI18
F0.42550126
sI19
F2.7070513
ssbsg15
g0
(g16
g2
Ntp2290
Rp2291
(dp2292
g20
I1
sbsba(iclasses
Instance
p2293
(dp2294
g10
(iclasses
FeatureVector
p2295
(dp2296
g13
(dp2297
I1
F10.0
sI2
F223.0
sI3
F9.0
sI4
F0.11111111
sI6
F1.5000001
sI7
F1.0697871
sI8
F3.555556
sI9
F2.9489486
sI10
F15.037037
sI11
F13.777778
sI12
F12.888889
sI13
F18.444445
sI14
F-3.7777777
sI15
F-6.4444447
sI16
F10.222222
sI17
F18.444445
sI18
F0.33066535
sI19
F1.9109454
ssbsg15
g0
(g16
g2
Ntp2298
Rp2299
(dp2300
g20
I1
sbsba(iclasses
Instance
p2301
(dp2302
g10
(iclasses
FeatureVector
p2303
(dp2304
g13
(dp2305
I1
F21.0
sI2
F64.0
sI3
F9.0
sI6
F16.277779
sI7
F12.948471
sI8
F20.222223
sI9
F17.629103
sI10
F31.0
sI11
F24.666666
sI12
F38.0
sI13
F30.333334
sI14
F-19.0
sI15
F21.0
sI16
F-2.0
sI17
F38.0
sI18
F0.40074632
sI19
F-2.593825
ssbsg15
g0
(g16
g2
Ntp2306
Rp2307
(dp2308
g20
I0
sbsba(iclasses
Instance
p2309
(dp2310
g10
(iclasses
FeatureVector
p2311
(dp2312
g13
(dp2313
I1
F245.0
sI2
F73.0
sI3
F9.0
sI6
F8.222222
sI7
F6.2739906
sI8
F10.722222
sI9
F7.6809044
sI10
F46.666668
sI11
F32.11111
sI12
F70.111115
sI13
F37.77778
sI14
F-43.666668
sI15
F70.333336
sI16
F-26.666666
sI17
F70.111115
sI18
F0.5490324
sI19
F-2.2512536
ssbsg15
g0
(g16
g2
Ntp2314
Rp2315
(dp2316
g20
I0
sbsba(iclasses
Instance
p2317
(dp2318
g10
(iclasses
FeatureVector
p2319
(dp2320
g13
(dp2321
I1
F25.0
sI2
F138.0
sI3
F9.0
sI4
F0.11111111
sI6
F1.2777777
sI7
F1.1434193
sI8
F0.72222215
sI9
F0.49065349
sI10
F5.185185
sI11
F2.0
sI12
F9.333334
sI13
F4.2222223
sI14
F-9.555555
sI15
F12.444445
sI16
F-2.8888888
sI17
F9.333334
sI18
F0.7900112
sI19
F-2.4068089
ssbsg15
g0
(g16
g2
Ntp2322
Rp2323
(dp2324
g20
I0
sbsba(iclasses
Instance
p2325
(dp2326
g10
(iclasses
FeatureVector
p2327
(dp2328
g13
(dp2329
I1
F9.0
sI2
F76.0
sI3
F9.0
sI6
F1.2777778
sI7
F1.4207457
sI8
F1.6666666
sI9
F1.8618987
sI10
F2.4444444
sI11
F0.8888889
sI12
F4.666667
sI13
F1.7777778
sI14
F-4.6666665
sI15
F6.6666665
sI16
F-2.0
sI17
F4.666667
sI18
F0.87222224
sI19
F-2.3408008
ssbsg15
g0
(g16
g2
Ntp2330
Rp2331
(dp2332
g20
I0
sbsba(iclasses
Instance
p2333
(dp2334
g10
(iclasses
FeatureVector
p2335
(dp2336
g13
(dp2337
I1
F232.0
sI2
F175.0
sI3
F9.0
sI6
F1.1666669
sI7
F0.62360954
sI8
F2.8333333
sI9
F2.1679492
sI10
F15.37037
sI11
F12.444445
sI12
F13.555555
sI13
F20.11111
sI14
F-8.777778
sI15
F-5.4444447
sI16
F14.222222
sI17
F20.11111
sI18
F0.38741234
sI19
F2.2421958
ssbsg15
g0
(g16
g2
Ntp2338
Rp2339
(dp2340
g20
I1
sbsba(iclasses
Instance
p2341
(dp2342
g10
(iclasses
FeatureVector
p2343
(dp2344
g13
(dp2345
I1
F110.0
sI2
F92.0
sI3
F9.0
sI4
F0.11111111
sI6
F1.8888887
sI7
F4.0296297
sI8
F2.277778
sI9
F3.529629
sI10
F7.4444447
sI11
F3.2222223
sI12
F12.666667
sI13
F6.4444447
sI14
F-12.666667
sI15
F15.666667
sI16
F-3.0
sI17
F12.666667
sI18
F0.7590125
sI19
F-2.452176
ssbsg15
g0
(g16
g2
Ntp2346
Rp2347
(dp2348
g20
I0
sbsba(iclasses
Instance
p2349
(dp2350
g10
(iclasses
FeatureVector
p2351
(dp2352
g13
(dp2353
I1
F28.0
sI2
F114.0
sI3
F9.0
sI6
F0.8333333
sI7
F0.43333334
sI8
F1.1666666
sI9
F0.25555548
sI10
F1.8518518
sI11
F0.11111111
sI12
F4.666667
sI13
F0.7777778
sI14
F-5.2222223
sI15
F8.444445
sI16
F-3.2222223
sI17
F4.666667
sI18
F0.984127
sI19
F-2.222661
ssbsg15
g0
(g16
g2
Ntp2354
Rp2355
(dp2356
g20
I0
sbsba(iclasses
Instance
p2357
(dp2358
g10
(iclasses
FeatureVector
p2359
(dp2360
g13
(dp2361
I1
F118.0
sI2
F85.0
sI3
F9.0
sI6
F3.2777777
sI7
F4.418521
sI8
F2.277778
sI9
F6.8185186
sI10
F8.185185
sI11
F3.5555556
sI12
F14.888889
sI13
F6.111111
sI14
F-13.888889
sI15
F20.11111
sI16
F-6.2222223
sI17
F14.888889
sI18
F0.7741213
sI19
F-2.3290927
ssbsg15
g0
(g16
g2
Ntp2362
Rp2363
(dp2364
g20
I0
sbsba(iclasses
Instance
p2365
(dp2366
g10
(iclasses
FeatureVector
p2367
(dp2368
g13
(dp2369
I1
F237.0
sI2
F106.0
sI3
F9.0
sI6
F0.9444444
sI7
F0.15185204
sI8
F0.8333333
sI9
F0.47777775
sI10
F2.4074075
sI11
F0.44444445
sI12
F6.111111
sI13
F0.6666667
sI14
F-5.888889
sI15
F11.111111
sI16
F-5.2222223
sI17
F6.111111
sI18
F0.9404762
sI19
F-2.133095
ssbsg15
g0
(g16
g2
Ntp2370
Rp2371
(dp2372
g20
I0
sbsba(iclasses
Instance
p2373
(dp2374
g10
(iclasses
FeatureVector
p2375
(dp2376
g13
(dp2377
I1
F27.0
sI2
F134.0
sI3
F9.0
sI6
F1.111111
sI7
F0.9813067
sI8
F1.6111113
sI9
F1.0628402
sI10
F8.703704
sI11
F3.6666667
sI12
F15.888889
sI13
F6.5555553
sI14
F-15.111111
sI15
F21.555555
sI16
F-6.4444447
sI17
F15.888889
sI18
F0.772831
sI19
F-2.3430035
ssbsg15
g0
(g16
g2
Ntp2378
Rp2379
(dp2380
g20
I0
sbsba(iclasses
Instance
p2381
(dp2382
g10
(iclasses
FeatureVector
p2383
(dp2384
g13
(dp2385
I1
F54.0
sI2
F140.0
sI3
F9.0
sI4
F0.11111111
sI6
F0.72222215
sI7
F0.4430532
sI8
F1.7777777
sI9
F1.0470418
sI10
F8.333333
sI11
F3.7777777
sI12
F14.0
sI13
F7.2222223
sI14
F-13.666667
sI15
F17.0
sI16
F-3.3333333
sI17
F14.0
sI18
F0.73447025
sI19
F-2.4423232
ssbsg15
g0
(g16
g2
Ntp2386
Rp2387
(dp2388
g20
I0
sbsba(iclasses
Instance
p2389
(dp2390
g10
(iclasses
FeatureVector
p2391
(dp2392
g13
(dp2393
I1
F131.0
sI2
F234.0
sI3
F9.0
sI6
F0.8333333
sI7
F0.29999986
sI8
F0.88888884
sI9
F0.60740733
sI10
F5.740741
sI11
F4.0
sI12
F4.4444447
sI13
F8.777778
sI14
F-5.2222223
sI15
F-3.8888888
sI16
F9.111111
sI17
F8.777778
sI18
F0.55661374
sI19
F2.1935678
ssbsg15
g0
(g16
g2
Ntp2394
Rp2395
(dp2396
g20
I1
sbsba(iclasses
Instance
p2397
(dp2398
g10
(iclasses
FeatureVector
p2399
(dp2400
g13
(dp2401
I1
F10.0
sI2
F94.0
sI3
F9.0
sI6
F0.4444445
sI7
F0.11851851
sI8
F0.72222227
sI9
F0.1962963
sI10
F2.2592592
sI11
F0.11111111
sI12
F6.0
sI13
F0.6666667
sI14
F-6.4444447
sI15
F11.222222
sI16
F-4.7777777
sI17
F6.0
sI18
F0.9861111
sI19
F-2.189708
ssbsg15
g0
(g16
g2
Ntp2402
Rp2403
(dp2404
g20
I0
sbsba(iclasses
Instance
p2405
(dp2406
g10
(iclasses
FeatureVector
p2407
(dp2408
g13
(dp2409
I1
F1.0
sI2
F81.0
sI3
F9.0
sI6
F12.166667
sI7
F267.45554
sI8
F9.222222
sI9
F205.36296
sI10
F21.333334
sI11
F14.0
sI12
F30.555555
sI13
F19.444445
sI14
F-22.0
sI15
F27.666666
sI16
F-5.6666665
sI17
F30.555555
sI18
F0.5952822
sI19
F-2.438409
ssbsg15
g0
(g16
g2
Ntp2410
Rp2411
(dp2412
g20
I0
sbsba(iclasses
Instance
p2413
(dp2414
g10
(iclasses
FeatureVector
p2415
(dp2416
g13
(dp2417
I1
F123.0
sI2
F143.0
sI3
F9.0
sI6
F0.2777778
sI7
F0.3896817
sI8
F0.2777778
sI9
F0.13608274
sI10
F0.4074074
sI12
F1.2222222
sI14
F-1.2222222
sI15
F2.4444444
sI16
F-1.2222222
sI17
F1.2222222
sI18
F0.7777778
sI19
F-2.0943952
ssbsg15
g0
(g16
g2
Ntp2418
Rp2419
(dp2420
g20
I0
sbsba(iclasses
Instance
p2421
(dp2422
g10
(iclasses
FeatureVector
p2423
(dp2424
g13
(dp2425
I1
F197.0
sI2
F156.0
sI3
F9.0
sI6
F0.9444439
sI7
F0.49065349
sI8
F2.0555558
sI9
F1.705112
sI10
F16.925926
sI11
F13.444445
sI12
F15.555555
sI13
F21.777779
sI14
F-10.444445
sI15
F-4.111111
sI16
F14.555555
sI17
F21.777779
sI18
F0.38463837
sI19
F2.3635807
ssbsg15
g0
(g16
g2
Ntp2426
Rp2427
(dp2428
g20
I1
sbsba(iclasses
Instance
p2429
(dp2430
g10
(iclasses
FeatureVector
p2431
(dp2432
g13
(dp2433
I1
F18.0
sI2
F123.0
sI3
F9.0
sI6
F0.72222227
sI7
F0.86296284
sI8
F0.6111111
sI9
F0.41851848
sI10
F1.074074
sI11
F0.11111111
sI12
F2.6666667
sI13
F0.44444445
sI14
F-2.8888888
sI15
F4.7777777
sI16
F-1.8888888
sI17
F2.6666667
sI18
F0.9814815
sI19
F-2.1692097
ssbsg15
g0
(g16
g2
Ntp2434
Rp2435
(dp2436
g20
I0
sbsba(iclasses
Instance
p2437
(dp2438
g10
(iclasses
FeatureVector
p2439
(dp2440
g13
(dp2441
I1
F119.0
sI2
F169.0
sI3
F9.0
sI6
F1.166667
sI7
F0.98319227
sI8
F0.9999997
sI9
F0.91893625
sI10
F25.962963
sI11
F20.88889
sI12
F25.0
sI13
F32.0
sI14
F-15.222222
sI15
F-2.8888888
sI16
F18.11111
sI17
F32.0
sI18
F0.34778315
sI19
F2.4790645
ssbsg15
g0
(g16
g2
Ntp2442
Rp2443
(dp2444
g20
I1
sbsba(iclasses
Instance
p2445
(dp2446
g10
(iclasses
FeatureVector
p2447
(dp2448
g13
(dp2449
I1
F205.0
sI2
F204.0
sI3
F9.0
sI6
F1.555555
sI7
F0.9583939
sI8
F1.8888887
sI9
F1.7722135
sI10
F19.0
sI11
F14.333333
sI12
F17.11111
sI13
F25.555555
sI14
F-14.0
sI15
F-5.6666665
sI16
F19.666666
sI17
F25.555555
sI18
F0.43934208
sI19
F2.3487284
ssbsg15
g0
(g16
g2
Ntp2450
Rp2451
(dp2452
g20
I1
sbsba(iclasses
Instance
p2453
(dp2454
g10
(iclasses
FeatureVector
p2455
(dp2456
g13
(dp2457
I1
F85.0
sI2
F225.0
sI3
F9.0
sI6
F1.5
sI7
F1.0055401
sI8
F1.6111113
sI9
F1.2895594
sI10
F16.185184
sI11
F14.444445
sI12
F12.777778
sI13
F21.333334
sI14
F-5.2222223
sI15
F-10.222222
sI16
F15.444445
sI17
F21.333334
sI18
F0.40115124
sI19
F1.8910155
ssbsg15
g0
(g16
g2
Ntp2458
Rp2459
(dp2460
g20
I1
sbsba(iclasses
Instance
p2461
(dp2462
g10
(iclasses
FeatureVector
p2463
(dp2464
g13
(dp2465
I1
F152.0
sI2
F199.0
sI3
F9.0
sI6
F1.111111
sI7
F0.5185188
sI8
F0.8333337
sI9
F0.2555551
sI10
F17.962963
sI11
F15.222222
sI12
F15.444445
sI13
F23.222221
sI14
F-8.222222
sI15
F-7.5555553
sI16
F15.777778
sI17
F23.222221
sI18
F0.34806257
sI19
F2.129513
ssbsg15
g0
(g16
g2
Ntp2466
Rp2467
(dp2468
g20
I1
sbsba(iclasses
Instance
p2469
(dp2470
g10
(iclasses
FeatureVector
p2471
(dp2472
g13
(dp2473
I1
F45.0
sI2
F89.0
sI3
F9.0
sI6
F0.7777777
sI7
F0.3407409
sI8
F0.77777773
sI9
F0.47407398
sI10
F2.2962964
sI11
F0.11111111
sI12
F6.4444447
sI13
F0.33333334
sI14
F-6.5555553
sI15
F12.444445
sI16
F-5.888889
sI17
F6.4444447
sI18
F0.9861111
sI19
F-2.1239047
ssbsg15
g0
(g16
g2
Ntp2474
Rp2475
(dp2476
g20
I0
sbsba(iclasses
Instance
p2477
(dp2478
g10
(iclasses
FeatureVector
p2479
(dp2480
g13
(dp2481
I1
F220.0
sI2
F220.0
sI3
F9.0
sI4
F0.11111111
sI6
F2.277778
sI7
F1.12963
sI8
F2.2777777
sI9
F4.151854
sI10
F6.4444447
sI11
F5.6666665
sI12
F5.3333335
sI13
F8.333334
sI14
F-2.3333333
sI15
F-3.3333333
sI16
F5.6666665
sI17
F8.333334
sI18
F0.42735383
sI19
F1.9843658
ssbsg15
g0
(g16
g2
Ntp2482
Rp2483
(dp2484
g20
I1
sbsba(iclasses
Instance
p2485
(dp2486
g10
(iclasses
FeatureVector
p2487
(dp2488
g13
(dp2489
I1
F200.0
sI2
F245.0
sI3
F9.0
sI4
F0.11111111
sI6
F1.4999999
sI7
F0.9222229
sI8
F1.0555552
sI9
F0.5074078
sI10
F16.11111
sI11
F11.888889
sI12
F15.0
sI13
F21.444445
sI14
F-12.666667
sI15
F-3.3333333
sI16
F16.0
sI17
F21.444445
sI18
F0.44538036
sI19
F2.432783
ssbsg15
g0
(g16
g2
Ntp2490
Rp2491
(dp2492
g20
I1
sbsba(iclasses
Instance
p2493
(dp2494
g10
(iclasses
FeatureVector
p2495
(dp2496
g13
(dp2497
I1
F51.0
sI2
F237.0
sI3
F9.0
sI4
F0.11111111
sI6
F2.5555556
sI7
F2.5356712
sI8
F2.3333333
sI9
F1.2292727
sI10
F14.148149
sI11
F11.111111
sI12
F13.0
sI13
F18.333334
sI14
F-9.111111
sI15
F-3.4444444
sI16
F12.555555
sI17
F18.333334
sI18
F0.39798474
sI19
F2.3784301
ssbsg15
g0
(g16
g2
Ntp2498
Rp2499
(dp2500
g20
I1
sbsba(iclasses
Instance
p2501
(dp2502
g10
(iclasses
FeatureVector
p2503
(dp2504
g13
(dp2505
I1
F39.0
sI2
F124.0
sI3
F9.0
sI5
F0.11111111
sI6
F5.3333335
sI7
F4.774935
sI8
F6.5000005
sI9
F4.544838
sI10
F7.5925927
sI11
F4.111111
sI12
F12.888889
sI13
F5.7777777
sI14
F-10.444445
sI15
F15.888889
sI16
F-5.4444447
sI17
F12.888889
sI18
F0.7721516
sI19
F-2.2657473
ssbsg15
g0
(g16
g2
Ntp2506
Rp2507
(dp2508
g20
I0
sbsba(iclasses
Instance
p2509
(dp2510
g10
(iclasses
FeatureVector
p2511
(dp2512
g13
(dp2513
I1
F129.0
sI2
F91.0
sI3
F9.0
sI5
F0.11111111
sI6
F27.277779
sI7
F752.24066
sI8
F25.277779
sI9
F377.9295
sI10
F44.296295
sI11
F38.444443
sI12
F52.666668
sI13
F41.77778
sI14
F-17.555555
sI15
F25.11111
sI16
F-7.5555553
sI17
F52.666668
sI18
F0.34888473
sI19
F-2.3202722
ssbsg15
g0
(g16
g2
Ntp2514
Rp2515
(dp2516
g20
I0
sbsba(iclasses
Instance
p2517
(dp2518
g10
(iclasses
FeatureVector
p2519
(dp2520
g13
(dp2521
I1
F34.0
sI2
F164.0
sI3
F9.0
sI6
F0.888889
sI7
F0.40368673
sI8
F1.2777778
sI9
F0.49065349
sI10
F11.333333
sI11
F9.222222
sI12
F10.333334
sI13
F14.444445
sI14
F-6.3333335
sI15
F-3.0
sI16
F9.333333
sI17
F14.444445
sI18
F0.367923
sI19
F2.291118
ssbsg15
g0
(g16
g2
Ntp2522
Rp2523
(dp2524
g20
I1
sbsba(iclasses
Instance
p2525
(dp2526
g10
(iclasses
FeatureVector
p2527
(dp2528
g13
(dp2529
I1
F196.0
sI2
F93.0
sI3
F9.0
sI6
F1.7777777
sI7
F2.562963
sI8
F1.5
sI9
F0.92222214
sI10
F5.0
sI11
F2.0
sI12
F9.333334
sI13
F3.6666667
sI14
F-9.0
sI15
F13.0
sI16
F-4.0
sI17
F9.333334
sI18
F0.8086198
sI19
F-2.3294232
ssbsg15
g0
(g16
g2
Ntp2530
Rp2531
(dp2532
g20
I0
sbsba(iclasses
Instance
p2533
(dp2534
g10
(iclasses
FeatureVector
p2535
(dp2536
g13
(dp2537
I1
F226.0
sI2
F69.0
sI3
F9.0
sI5
F0.11111111
sI6
F19.111113
sI7
F991.7184
sI8
F20.444445
sI9
F1039.5408
sI10
F23.814816
sI11
F19.222221
sI12
F29.333334
sI13
F22.88889
sI14
F-13.777778
sI15
F16.555555
sI16
F-2.7777777
sI17
F29.333334
sI18
F0.5089938
sI19
F-2.488979
ssbsg15
g0
(g16
g2
Ntp2538
Rp2539
(dp2540
g20
I0
sbsba(iclasses
Instance
p2541
(dp2542
g10
(iclasses
FeatureVector
p2543
(dp2544
g13
(dp2545
I1
F214.0
sI2
F236.0
sI3
F9.0
sI6
F0.5
sI7
F0.25555578
sI8
F3.7777774
sI9
F1.3629639
sI10
F16.592592
sI11
F12.888889
sI12
F14.666667
sI13
F22.222221
sI14
F-11.111111
sI15
F-5.7777777
sI16
F16.88889
sI17
F22.222221
sI18
F0.41959706
sI19
F2.3066785
ssbsg15
g0
(g16
g2
Ntp2546
Rp2547
(dp2548
g20
I1
sbsba(iclasses
Instance
p2549
(dp2550
g10
(iclasses
FeatureVector
p2551
(dp2552
g13
(dp2553
I1
F222.0
sI2
F244.0
sI3
F9.0
sI4
F0.11111111
sI6
F2.9444444
sI7
F0.640741
sI8
F2.2777777
sI9
F2.151852
sI10
F10.37037
sI11
F9.666667
sI12
F9.777778
sI13
F11.666667
sI14
F-2.1111112
sI15
F-1.7777778
sI16
F3.8888888
sI17
F11.888889
sI18
F0.22648169
sI19
F2.32339
ssbsg15
g0
(g16
g2
Ntp2554
Rp2555
(dp2556
g20
I1
sbsba(iclasses
Instance
p2557
(dp2558
g10
(iclasses
FeatureVector
p2559
(dp2560
g13
(dp2561
I1
F161.0
sI2
F176.0
sI3
F9.0
sI6
F0.38888898
sI7
F0.15185188
sI8
F1.1666666
sI9
F0.3888888
sI10
F13.0
sI11
F10.111111
sI12
F11.777778
sI13
F17.11111
sI14
F-8.666667
sI15
F-3.6666667
sI16
F12.333333
sI17
F17.11111
sI18
F0.40773422
sI19
F2.3406181
ssbsg15
g0
(g16
g2
Ntp2562
Rp2563
(dp2564
g20
I1
sbsba(iclasses
Instance
p2565
(dp2566
g10
(iclasses
FeatureVector
p2567
(dp2568
g13
(dp2569
I1
F238.0
sI2
F180.0
sI3
F9.0
sI4
F0.11111111
sI6
F0.55555564
sI7
F0.34074086
sI8
F1.7222222
sI9
F1.6629628
sI10
F13.592592
sI11
F11.111111
sI12
F11.888889
sI13
F17.777779
sI14
F-7.4444447
sI15
F-5.111111
sI16
F12.555555
sI17
F17.777779
sI18
F0.3762527
sI19
F2.2128983
ssbsg15
g0
(g16
g2
Ntp2570
Rp2571
(dp2572
g20
I1
sbsba(iclasses
Instance
p2573
(dp2574
g10
(iclasses
FeatureVector
p2575
(dp2576
g13
(dp2577
I1
F206.0
sI2
F80.0
sI3
F9.0
sI6
F4.888889
sI7
F14.829629
sI8
F3.8333333
sI9
F36.12222
sI10
F10.037037
sI11
F6.5555553
sI12
F15.111111
sI13
F8.444445
sI14
F-10.444445
sI15
F15.222222
sI16
F-4.7777777
sI17
F15.111111
sI18
F0.59776545
sI19
F-2.3262568
ssbsg15
g0
(g16
g2
Ntp2578
Rp2579
(dp2580
g20
I0
sbsba(iclasses
Instance
p2581
(dp2582
g10
(iclasses
FeatureVector
p2583
(dp2584
g13
(dp2585
I1
F3.0
sI2
F106.0
sI3
F9.0
sI6
F0.22222222
sI7
F0.17213261
sI8
F0.11111111
sI9
F0.17213261
sI10
F0.5555556
sI12
F1.6666666
sI14
F-1.6666666
sI15
F3.3333333
sI16
F-1.6666666
sI17
F1.6666666
sI18
F1.0
sI19
F-2.0943952
ssbsg15
g0
(g16
g2
Ntp2586
Rp2587
(dp2588
g20
I0
sbsba(iclasses
Instance
p2589
(dp2590
g10
(iclasses
FeatureVector
p2591
(dp2592
g13
(dp2593
I1
F197.0
sI2
F105.0
sI3
F9.0
sI6
F3.7222223
sI7
F15.662961
sI8
F3.6666663
sI9
F14.400001
sI10
F4.148148
sI11
F1.6666666
sI12
F8.333334
sI13
F2.4444444
sI14
F-7.4444447
sI15
F12.555555
sI16
F-5.111111
sI17
F8.333334
sI18
F0.88604844
sI19
F-2.2054374
ssbsg15
g0
(g16
g2
Ntp2594
Rp2595
(dp2596
g20
I0
sbsba(iclasses
Instance
p2597
(dp2598
g10
(iclasses
FeatureVector
p2599
(dp2600
g13
(dp2601
I1
F73.0
sI2
F164.0
sI3
F9.0
sI6
F0.94444436
sI7
F0.5741329
sI8
F1.888889
sI9
F1.0470407
sI10
F23.148148
sI11
F21.777779
sI12
F19.11111
sI13
F28.555555
sI14
F-4.111111
sI15
F-12.111111
sI16
F16.222221
sI17
F28.555555
sI18
F0.330345
sI19
F1.7983025
ssbsg15
g0
(g16
g2
Ntp2602
Rp2603
(dp2604
g20
I1
sbsba(iclasses
Instance
p2605
(dp2606
g10
(iclasses
FeatureVector
p2607
(dp2608
g13
(dp2609
I1
F115.0
sI2
F202.0
sI3
F9.0
sI4
F0.11111111
sI6
F1.611111
sI7
F0.24074046
sI8
F2.388889
sI9
F2.596295
sI10
F15.148149
sI11
F11.666667
sI12
F14.0
sI13
F19.777779
sI14
F-10.444445
sI15
F-3.4444444
sI16
F13.888889
sI17
F19.777779
sI18
F0.40993193
sI19
F2.401137
ssbsg15
g0
(g16
g2
Ntp2610
Rp2611
(dp2612
g20
I1
sbsba(iclasses
Instance
p2613
(dp2614
g10
(iclasses
FeatureVector
p2615
(dp2616
g13
(dp2617
I1
F126.0
sI2
F80.0
sI3
F9.0
sI6
F21.055555
sI7
F530.5518
sI8
F34.61111
sI9
F409.39636
sI10
F68.77778
sI11
F60.333332
sI12
F79.55556
sI13
F66.44444
sI14
F-25.333334
sI15
F32.333332
sI16
F-7.0
sI17
F79.55556
sI18
F0.28962377
sI19
F-2.4341934
ssbsg15
g0
(g16
g2
Ntp2618
Rp2619
(dp2620
g20
I0
sbsba(iclasses
Instance
p2621
(dp2622
g10
(iclasses
FeatureVector
p2623
(dp2624
g13
(dp2625
I1
F57.0
sI2
F177.0
sI3
F9.0
sI6
F0.94444495
sI7
F0.55185163
sI8
F1.4444443
sI9
F1.71852
sI10
F19.592592
sI11
F15.777778
sI12
F18.444445
sI13
F24.555555
sI14
F-11.444445
sI15
F-3.4444444
sI16
F14.888889
sI17
F24.555555
sI18
F0.3589904
sI19
F2.413262
ssbsg15
g0
(g16
g2
Ntp2626
Rp2627
(dp2628
g20
I1
sbsba(iclasses
Instance
p2629
(dp2630
g10
(iclasses
FeatureVector
p2631
(dp2632
g13
(dp2633
I1
F21.0
sI2
F122.0
sI3
F9.0
sI6
F0.44444445
sI7
F0.4036867
sI8
F0.44444445
sI9
F0.4036867
sI10
F0.5555556
sI12
F1.2222222
sI13
F0.44444445
sI14
F-1.6666666
sI15
F2.0
sI16
F-0.33333334
sI17
F1.2222222
sI18
F0.5555556
sI19
F-2.4445627
ssbsg15
g0
(g16
g2
Ntp2634
Rp2635
(dp2636
g20
I0
sbsba(iclasses
Instance
p2637
(dp2638
g10
(iclasses
FeatureVector
p2639
(dp2640
g13
(dp2641
I1
F9.0
sI2
F80.0
sI3
F9.0
sI6
F2.9444444
sI7
F13.751853
sI8
F16.666666
sI9
F71.5111
sI10
F23.62963
sI11
F17.333334
sI12
F31.666666
sI13
F21.88889
sI14
F-18.88889
sI15
F24.11111
sI16
F-5.2222223
sI17
F31.666666
sI18
F0.5142537
sI19
F-2.4315135
ssbsg15
g0
(g16
g2
Ntp2642
Rp2643
(dp2644
g20
I0
sbsba(iclasses
Instance
p2645
(dp2646
g10
(iclasses
FeatureVector
p2647
(dp2648
g13
(dp2649
I1
F96.0
sI2
F119.0
sI3
F9.0
sI6
F0.3333333
sI7
F0.08888888
sI8
F0.5555555
sI9
F0.20740744
sI10
F1.4444444
sI12
F4.2222223
sI13
F0.11111111
sI14
F-4.3333335
sI15
F8.333333
sI16
F-4.0
sI17
F4.2222223
sI18
F1.0
sI19
F-2.1137195
ssbsg15
g0
(g16
g2
Ntp2650
Rp2651
(dp2652
g20
I0
sbsba(iclasses
Instance
p2653
(dp2654
g10
(iclasses
FeatureVector
p2655
(dp2656
g13
(dp2657
I1
F29.0
sI2
F184.0
sI3
F9.0
sI6
F1.6111107
sI7
F1.0628402
sI8
F2.6666667
sI9
F1.8973663
sI10
F13.62963
sI11
F11.444445
sI12
F11.333333
sI13
F18.11111
sI14
F-6.5555553
sI15
F-6.888889
sI16
F13.444445
sI17
F18.11111
sI18
F0.3876632
sI19
F2.080445
ssbsg15
g0
(g16
g2
Ntp2658
Rp2659
(dp2660
g20
I1
sbsba(iclasses
Instance
p2661
(dp2662
g10
(iclasses
FeatureVector
p2663
(dp2664
g13
(dp2665
I1
F17.0
sI2
F85.0
sI3
F9.0
sI4
F0.11111111
sI6
F0.8888889
sI7
F0.72008216
sI8
F1.111111
sI9
F0.7200825
sI10
F1.7777778
sI11
F0.44444445
sI12
F3.4444444
sI13
F1.4444444
sI14
F-4.0
sI15
F5.0
sI16
F-1.0
sI17
F3.4444444
sI18
F0.912963
sI19
F-2.3776238
ssbsg15
g0
(g16
g2
Ntp2666
Rp2667
(dp2668
g20
I0
sbsba(iclasses
Instance
p2669
(dp2670
g10
(iclasses
FeatureVector
p2671
(dp2672
g13
(dp2673
I1
F244.0
sI2
F193.0
sI3
F9.0
sI6
F2.0555556
sI7
F2.225275
sI8
F3.8888886
sI9
F3.631141
sI10
F16.185184
sI11
F13.333333
sI12
F14.222222
sI13
F21.0
sI14
F-8.555555
sI15
F-5.888889
sI16
F14.444445
sI17
F21.0
sI18
F0.37887058
sI19
F2.2221026
ssbsg15
g0
(g16
g2
Ntp2674
Rp2675
(dp2676
g20
I1
sbsba(iclasses
Instance
p2677
(dp2678
g10
(iclasses
FeatureVector
p2679
(dp2680
g13
(dp2681
I1
F75.0
sI2
F226.0
sI3
F9.0
sI6
F2.2222226
sI7
F0.6554613
sI8
F1.611111
sI9
F1.0201668
sI10
F16.703703
sI11
F15.333333
sI12
F13.0
sI13
F21.777779
sI14
F-4.111111
sI15
F-11.111111
sI16
F15.222222
sI17
F21.777779
sI18
F0.40474883
sI19
F1.8223403
ssbsg15
g0
(g16
g2
Ntp2682
Rp2683
(dp2684
g20
I1
sbsba(iclasses
Instance
p2685
(dp2686
g10
(iclasses
FeatureVector
p2687
(dp2688
g13
(dp2689
I1
F19.0
sI2
F145.0
sI3
F9.0
sI6
F0.88888884
sI7
F1.674074
sI8
F2.111111
sI9
F4.3851857
sI10
F2.074074
sI11
F0.6666667
sI12
F3.5555556
sI13
F2.0
sI14
F-4.2222223
sI15
F4.4444447
sI16
F-0.22222222
sI17
F3.5555556
sI18
F0.45767197
sI19
F-2.5697682
ssbsg15
g0
(g16
g2
Ntp2690
Rp2691
(dp2692
g20
I0
sbsba(iclasses
Instance
p2693
(dp2694
g10
(iclasses
FeatureVector
p2695
(dp2696
g13
(dp2697
I1
F47.0
sI2
F127.0
sI3
F9.0
sI6
F1.166667
sI7
F0.9603239
sI8
F1.0555559
sI9
F0.49065298
sI10
F17.592592
sI11
F9.0
sI12
F30.11111
sI13
F13.666667
sI14
F-25.777779
sI15
F37.555557
sI16
F-11.777778
sI17
F30.11111
sI18
F0.70147634
sI19
F-2.326275
ssbsg15
g0
(g16
g2
Ntp2698
Rp2699
(dp2700
g20
I0
sbsba(iclasses
Instance
p2701
(dp2702
g10
(iclasses
FeatureVector
p2703
(dp2704
g13
(dp2705
I1
F18.0
sI2
F142.0
sI3
F9.0
sI6
F0.77777773
sI7
F0.65185183
sI8
F0.2777778
sI9
F0.15185186
sI10
F0.5555556
sI11
F0.11111111
sI12
F1.3333334
sI13
F0.22222222
sI14
F-1.3333334
sI15
F2.3333333
sI16
F-1.0
sI17
F1.3333334
sI18
F0.41666666
sI19
F-2.1595633
ssbsg15
g0
(g16
g2
Ntp2706
Rp2707
(dp2708
g20
I0
sbsba(iclasses
Instance
p2709
(dp2710
g10
(iclasses
FeatureVector
p2711
(dp2712
g13
(dp2713
I1
F156.0
sI2
F181.0
sI3
F9.0
sI6
F0.49999985
sI7
F0.34960297
sI8
F1.4999999
sI9
F0.50552523
sI10
F11.666667
sI11
F9.0
sI12
F9.777778
sI13
F16.222223
sI14
F-8.0
sI15
F-5.6666665
sI16
F13.666667
sI17
F16.222223
sI18
F0.44597858
sI19
F2.2066422
ssbsg15
g0
(g16
g2
Ntp2714
Rp2715
(dp2716
g20
I1
sbsba(iclasses
Instance
p2717
(dp2718
g10
(iclasses
FeatureVector
p2719
(dp2720
g13
(dp2721
I1
F7.0
sI2
F134.0
sI3
F9.0
sI6
F0.055555563
sI7
F0.018518524
sI8
F0.055555556
sI9
F0.01851852
sI10
F0.037037037
sI12
F0.11111111
sI14
F-0.11111111
sI15
F0.22222222
sI16
F-0.11111111
sI17
F0.11111111
sI18
F0.11111111
sI19
F-2.0943952
ssbsg15
g0
(g16
g2
Ntp2722
Rp2723
(dp2724
g20
I0
sbsba(iclasses
Instance
p2725
(dp2726
g10
(iclasses
FeatureVector
p2727
(dp2728
g13
(dp2729
I1
F68.0
sI2
F127.0
sI3
F9.0
sI6
F1.0555553
sI7
F0.97562903
sI8
F1.2777777
sI9
F0.8277589
sI10
F16.37037
sI11
F10.888889
sI12
F26.444445
sI13
F11.777778
sI14
F-16.444445
sI15
F30.222221
sI16
F-13.777778
sI17
F26.444445
sI18
F0.6014436
sI19
F-2.0358076
ssbsg15
g0
(g16
g2
Ntp2730
Rp2731
(dp2732
g20
I0
sbsba(iclasses
Instance
p2733
(dp2734
g10
(iclasses
FeatureVector
p2735
(dp2736
g13
(dp2737
I1
F20.0
sI2
F137.0
sI3
F9.0
sI6
F0.11111113
sI7
F0.029629631
sI8
F0.27777782
sI9
F0.018518519
sI10
F0.22222222
sI12
F0.6666667
sI14
F-0.6666667
sI15
F1.3333334
sI16
F-0.6666667
sI17
F0.6666667
sI18
F0.6666667
sI19
F-2.0943952
ssbsg15
g0
(g16
g2
Ntp2738
Rp2739
(dp2740
g20
I0
sbsba(iclasses
Instance
p2741
(dp2742
g10
(iclasses
FeatureVector
p2743
(dp2744
g13
(dp2745
I1
F197.0
sI2
F236.0
sI3
F9.0
sI6
F2.4444444
sI7
F6.829628
sI8
F3.3333333
sI9
F7.599998
sI10
F16.074074
sI11
F13.111111
sI12
F16.666668
sI13
F18.444445
sI14
F-8.888889
sI15
F1.7777778
sI16
F7.111111
sI17
F18.555555
sI18
F0.29272884
sI19
F2.7898002
ssbsg15
g0
(g16
g2
Ntp2746
Rp2747
(dp2748
g20
I1
sbsba(iclasses
Instance
p2749
(dp2750
g10
(iclasses
FeatureVector
p2751
(dp2752
g13
(dp2753
I1
F163.0
sI2
F166.0
sI3
F9.0
sI6
F1.7777776
sI7
F1.0962971
sI8
F2.444445
sI9
F1.0518519
sI10
F16.962963
sI11
F12.333333
sI12
F16.333334
sI13
F22.222221
sI14
F-13.888889
sI15
F-1.8888888
sI16
F15.777778
sI17
F22.222221
sI18
F0.4462137
sI19
F2.5158255
ssbsg15
g0
(g16
g2
Ntp2754
Rp2755
(dp2756
g20
I1
sbsba(iclasses
Instance
p2757
(dp2758
g10
(iclasses
FeatureVector
p2759
(dp2760
g13
(dp2761
I1
F129.0
sI2
F176.0
sI3
F9.0
sI6
F1.4444443
sI7
F0.65546167
sI8
F2.722222
sI9
F1.5408025
sI10
F22.74074
sI11
F19.444445
sI12
F19.777779
sI13
F29.0
sI14
F-9.888889
sI15
F-8.888889
sI16
F18.777779
sI17
F29.0
sI18
F0.33502117
sI19
F2.1269014
ssbsg15
g0
(g16
g2
Ntp2762
Rp2763
(dp2764
g20
I1
sbsba(iclasses
Instance
p2765
(dp2766
g10
(iclasses
FeatureVector
p2767
(dp2768
g13
(dp2769
I1
F44.0
sI2
F233.0
sI3
F9.0
sI6
F2.2222219
sI7
F2.1464872
sI8
F2.111111
sI9
F1.3277657
sI10
F14.481482
sI11
F12.555555
sI12
F11.333333
sI13
F19.555555
sI14
F-5.7777777
sI15
F-9.444445
sI16
F15.222222
sI17
F19.555555
sI18
F0.42217422
sI19
F1.9504046
ssbsg15
g0
(g16
g2
Ntp2770
Rp2771
(dp2772
g20
I1
sbsba(iclasses
Instance
p2773
(dp2774
g10
(iclasses
FeatureVector
p2775
(dp2776
g13
(dp2777
I1
F112.0
sI2
F201.0
sI3
F9.0
sI6
F2.833333
sI7
F1.2952907
sI8
F3.111111
sI9
F1.7847089
sI10
F21.296297
sI11
F16.666668
sI12
F20.333334
sI13
F26.88889
sI14
F-13.888889
sI15
F-2.8888888
sI16
F16.777779
sI17
F26.88889
sI18
F0.3819119
sI19
F2.4679377
ssbsg15
g0
(g16
g2
Ntp2778
Rp2779
(dp2780
g20
I1
sbsba(iclasses
Instance
p2781
(dp2782
g10
(iclasses
FeatureVector
p2783
(dp2784
g13
(dp2785
I1
F58.0
sI2
F232.0
sI3
F9.0
sI6
F2.5000005
sI7
F1.4555542
sI8
F2.5555556
sI9
F0.829629
sI10
F14.703704
sI11
F11.222222
sI12
F13.555555
sI13
F19.333334
sI14
F-10.444445
sI15
F-3.4444444
sI16
F13.888889
sI17
F19.333334
sI18
F0.42348316
sI19
F2.402851
ssbsg15
g0
(g16
g2
Ntp2786
Rp2787
(dp2788
g20
I1
sbsba(iclasses
Instance
p2789
(dp2790
g10
(iclasses
FeatureVector
p2791
(dp2792
g13
(dp2793
I1
F204.0
sI2
F116.0
sI3
F9.0
sI6
F1.0555555
sI7
F1.262963
sI8
F1.0555556
sI9
F1.4407407
sI10
F2.1851852
sI11
F0.33333334
sI12
F5.111111
sI13
F1.1111112
sI14
F-5.5555553
sI15
F8.777778
sI16
F-3.2222223
sI17
F5.111111
sI18
F0.96141976
sI19
F-2.2490795
ssbsg15
g0
(g16
g2
Ntp2794
Rp2795
(dp2796
g20
I0
sbsba(iclasses
Instance
p2797
(dp2798
g10
(iclasses
FeatureVector
p2799
(dp2800
g13
(dp2801
I1
F6.0
sI2
F118.0
sI3
F9.0
sI6
F0.055555563
sI7
F0.13608278
sI8
F0.055555563
sI9
F0.13608278
sI10
F0.037037037
sI12
F0.11111111
sI14
F-0.11111111
sI15
F0.22222222
sI16
F-0.11111111
sI17
F0.11111111
sI18
F0.11111111
sI19
F-2.0943952
ssbsg15
g0
(g16
g2
Ntp2802
Rp2803
(dp2804
g20
I0
sbsba(iclasses
Instance
p2805
(dp2806
g10
(iclasses
FeatureVector
p2807
(dp2808
g13
(dp2809
I1
F99.0
sI2
F130.0
sI3
F9.0
sI6
F0.5555555
sI7
F0.45542014
sI8
F0.5555555
sI9
F0.5443311
sI10
F1.3703704
sI11
F0.11111111
sI12
F3.3333333
sI13
F0.6666667
sI14
F-3.7777777
sI15
F5.888889
sI16
F-2.1111112
sI17
F3.3333333
sI18
F0.9777778
sI19
F-2.2390292
ssbsg15
g0
(g16
g2
Ntp2810
Rp2811
(dp2812
g20
I0
sbsba(iclasses
Instance
p2813
(dp2814
g10
(iclasses
FeatureVector
p2815
(dp2816
g13
(dp2817
I1
F87.0
sI2
F135.0
sI3
F9.0
sI6
F0.38888887
sI7
F0.24074073
sI8
F0.33333334
sI9
F0.17777777
sI10
F0.962963
sI12
F2.7777777
sI13
F0.11111111
sI14
F-2.8888888
sI15
F5.4444447
sI16
F-2.5555556
sI17
F2.7777777
sI18
F1.0
sI19
F-2.1175485
ssbsg15
g0
(g16
g2
Ntp2818
Rp2819
(dp2820
g20
I0
sbsba(iclasses
Instance
p2821
(dp2822
g10
(iclasses
FeatureVector
p2823
(dp2824
g13
(dp2825
I1
F6.0
sI2
F217.0
sI3
F9.0
sI6
F2.111111
sI7
F5.0962963
sI8
F3.944444
sI9
F12.50741
sI10
F14.555555
sI11
F11.444445
sI12
F13.333333
sI13
F18.88889
sI14
F-9.333333
sI15
F-3.6666667
sI16
F13.0
sI17
F18.88889
sI18
F0.39533988
sI19
F2.3638706
ssbsg15
g0
(g16
g2
Ntp2826
Rp2827
(dp2828
g20
I1
sbsba(iclasses
Instance
p2829
(dp2830
g10
(iclasses
FeatureVector
p2831
(dp2832
g13
(dp2833
I1
F195.0
sI2
F99.0
sI3
F9.0
sI6
F3.0555553
sI7
F4.462964
sI8
F2.7777777
sI9
F4.651851
sI10
F6.740741
sI11
F3.4444444
sI12
F11.555555
sI13
F5.2222223
sI14
F-9.888889
sI15
F14.444445
sI16
F-4.5555553
sI17
F11.555555
sI18
F0.71189785
sI19
F-2.318885
ssbsg15
g0
(g16
g2
Ntp2834
Rp2835
(dp2836
g20
I0
sbsba(iclasses
Instance
p2837
(dp2838
g10
(iclasses
FeatureVector
p2839
(dp2840
g13
(dp2841
I1
F101.0
sI2
F121.0
sI3
F9.0
sI4
F0.11111111
sI6
F0.6666667
sI7
F0.843274
sI8
F1.5
sI9
F0.88819396
sI10
F3.4074075
sI11
F1.1111112
sI12
F6.0
sI13
F3.1111112
sI14
F-6.888889
sI15
F7.7777777
sI16
F-0.8888889
sI17
F6.0
sI18
F0.8435185
sI19
F-2.5191648
ssbsg15
g0
(g16
g2
Ntp2842
Rp2843
(dp2844
g20
I0
sbsba(iclasses
Instance
p2845
(dp2846
g10
(iclasses
FeatureVector
p2847
(dp2848
g13
(dp2849
I1
F115.0
sI2
F111.0
sI3
F9.0
sI6
F0.55555564
sI7
F0.40368685
sI8
F1.9444437
sI9
F1.0417223
sI10
F18.037037
sI11
F9.666667
sI12
F30.11111
sI13
F14.333333
sI14
F-25.11111
sI15
F36.22222
sI16
F-11.111111
sI17
F30.11111
sI18
F0.67951304
sI19
F-2.3333182
ssbsg15
g0
(g16
g2
Ntp2850
Rp2851
(dp2852
g20
I0
sbsba(iclasses
Instance
p2853
(dp2854
g10
(iclasses
FeatureVector
p2855
(dp2856
g13
(dp2857
I1
F111.0
sI2
F246.0
sI3
F9.0
sI6
F3.166667
sI7
F2.0949678
sI8
F5.833334
sI9
F4.113663
sI10
F25.88889
sI11
F21.11111
sI12
F22.444445
sI13
F34.11111
sI14
F-14.333333
sI15
F-10.333333
sI16
F24.666666
sI17
F34.11111
sI18
F0.38897294
sI19
F2.2140112
ssbsg15
g0
(g16
g2
Ntp2858
Rp2859
(dp2860
g20
I1
sbsba(iclasses
Instance
p2861
(dp2862
g10
(iclasses
FeatureVector
p2863
(dp2864
g13
(dp2865
I1
F228.0
sI2
F182.0
sI3
F9.0
sI4
F0.11111111
sI6
F0.88888854
sI7
F0.68853056
sI8
F0.7777775
sI9
F0.6554615
sI10
F16.777779
sI11
F14.555555
sI12
F12.777778
sI13
F23.0
sI14
F-6.6666665
sI15
F-12.0
sI16
F18.666666
sI17
F23.0
sI18
F0.44435817
sI19
F1.9164191
ssbsg15
g0
(g16
g2
Ntp2866
Rp2867
(dp2868
g20
I1
sbsba(iclasses
Instance
p2869
(dp2870
g10
(iclasses
FeatureVector
p2871
(dp2872
g13
(dp2873
I1
F196.0
sI2
F244.0
sI3
F9.0
sI6
F1.277778
sI7
F0.5518518
sI8
F3.6111114
sI9
F6.9518504
sI10
F7.740741
sI11
F6.6666665
sI12
F7.0
sI13
F9.555555
sI14
F-3.2222223
sI15
F-2.2222223
sI16
F5.4444447
sI17
F9.555555
sI18
F0.3833719
sI19
F2.340587
ssbsg15
g0
(g16
g2
Ntp2874
Rp2875
(dp2876
g20
I1
sbsba(iclasses
Instance
p2877
(dp2878
g10
(iclasses
FeatureVector
p2879
(dp2880
g13
(dp2881
I1
F103.0
sI2
F125.0
sI3
F9.0
sI6
F0.9444445
sI7
F0.82775915
sI8
F0.83333343
sI9
F0.6912146
sI10
F1.7777778
sI11
F0.44444445
sI12
F3.8888888
sI13
F1.0
sI14
F-4.0
sI15
F6.3333335
sI16
F-2.3333333
sI17
F3.8888888
sI18
F0.9238095
sI19
F-2.2375617
ssbsg15
g0
(g16
g2
Ntp2882
Rp2883
(dp2884
g20
I0
sbsba(iclasses
Instance
p2885
(dp2886
g10
(iclasses
FeatureVector
p2887
(dp2888
g13
(dp2889
I1
F45.0
sI2
F108.0
sI3
F9.0
sI5
F0.11111111
sI6
F25.5
sI7
F12.795401
sI8
F27.277779
sI9
F15.930981
sI10
F49.814816
sI11
F41.77778
sI12
F61.11111
sI13
F46.555557
sI14
F-24.11111
sI15
F33.88889
sI16
F-9.777778
sI17
F61.11111
sI18
F0.35897508
sI19
F-2.3604913
ssbsg15
g0
(g16
g2
Ntp2890
Rp2891
(dp2892
g20
I0
sbsba(iclasses
Instance
p2893
(dp2894
g10
(iclasses
FeatureVector
p2895
(dp2896
g13
(dp2897
I1
F101.0
sI2
F121.0
sI3
F9.0
sI4
F0.11111111
sI6
F0.6666667
sI7
F0.843274
sI8
F1.5
sI9
F0.88819396
sI10
F3.4074075
sI11
F1.1111112
sI12
F6.0
sI13
F3.1111112
sI14
F-6.888889
sI15
F7.7777777
sI16
F-0.8888889
sI17
F6.0
sI18
F0.8435185
sI19
F-2.5191648
ssbsg15
g0
(g16
g2
Ntp2898
Rp2899
(dp2900
g20
I0
sbsba(iclasses
Instance
p2901
(dp2902
g10
(iclasses
FeatureVector
p2903
(dp2904
g13
(dp2905
I1
F49.0
sI2
F95.0
sI3
F9.0
sI6
F1.6666665
sI7
F5.911111
sI8
F3.0
sI9
F3.2888885
sI10
F5.185185
sI11
F2.2222223
sI12
F9.444445
sI13
F3.8888888
sI14
F-8.888889
sI15
F12.777778
sI16
F-3.8888888
sI17
F9.444445
sI18
F0.79410774
sI19
F-2.3264554
ssbsg15
g0
(g16
g2
Ntp2906
Rp2907
(dp2908
g20
I0
sbsba(iclasses
Instance
p2909
(dp2910
g10
(iclasses
FeatureVector
p2911
(dp2912
g13
(dp2913
I1
F242.0
sI2
F183.0
sI3
F9.0
sI6
F1.4999999
sI7
F0.9368979
sI8
F2.1666667
sI9
F1.798147
sI10
F15.37037
sI11
F12.666667
sI12
F12.444445
sI13
F21.0
sI14
F-8.111111
sI15
F-8.777778
sI16
F16.88889
sI17
F21.0
sI18
F0.42024404
sI19
F2.0758736
ssbsg15
g0
(g16
g2
Ntp2914
Rp2915
(dp2916
g20
I1
sbsba(iclasses
Instance
p2917
(dp2918
g10
(iclasses
FeatureVector
p2919
(dp2920
g13
(dp2921
I1
F118.0
sI2
F133.0
sI3
F9.0
sI6
F0.22222221
sI7
F0.029629631
sI8
F0.22222221
sI9
F0.029629631
sI10
F0.7407407
sI12
F2.2222223
sI14
F-2.2222223
sI15
F4.4444447
sI16
F-2.2222223
sI17
F2.2222223
sI18
F1.0
sI19
F-2.0943952
ssbsg15
g0
(g16
g2
Ntp2922
Rp2923
(dp2924
g20
I0
sbsba(iclasses
Instance
p2925
(dp2926
g10
(iclasses
FeatureVector
p2927
(dp2928
g13
(dp2929
I1
F192.0
sI2
F157.0
sI3
F9.0
sI6
F1.0555559
sI7
F0.5074076
sI8
F0.77777797
sI9
F0.16296285
sI10
F18.333334
sI11
F13.888889
sI12
F17.222223
sI13
F23.88889
sI14
F-13.333333
sI15
F-3.3333333
sI16
F16.666666
sI17
F23.88889
sI18
F0.41818407
sI19
F2.4386153
ssbsg15
g0
(g16
g2
Ntp2930
Rp2931
(dp2932
g20
I1
sbsba(iclasses
Instance
p2933
(dp2934
g10
(iclasses
FeatureVector
p2935
(dp2936
g13
(dp2937
I1
F96.0
sI2
F138.0
sI3
F9.0
sI6
F0.72222227
sI7
F0.6469301
sI8
F0.94444436
sI9
F0.7123256
sI10
F1.1481482
sI11
F0.11111111
sI12
F2.7777777
sI13
F0.5555556
sI14
F-3.1111112
sI15
F4.888889
sI16
F-1.7777778
sI17
F2.7777777
sI18
F0.9777778
sI19
F-2.219242
ssbsg15
g0
(g16
g2
Ntp2938
Rp2939
(dp2940
g20
I0
sbsba(iclasses
Instance
p2941
(dp2942
g10
(iclasses
FeatureVector
p2943
(dp2944
g13
(dp2945
I1
F103.0
sI2
F125.0
sI3
F9.0
sI6
F0.9444445
sI7
F0.82775915
sI8
F0.83333343
sI9
F0.6912146
sI10
F1.7777778
sI11
F0.44444445
sI12
F3.8888888
sI13
F1.0
sI14
F-4.0
sI15
F6.3333335
sI16
F-2.3333333
sI17
F3.8888888
sI18
F0.9238095
sI19
F-2.2375617
ssbsg15
g0
(g16
g2
Ntp2946
Rp2947
(dp2948
g20
I0
sbsba(iclasses
Instance
p2949
(dp2950
g10
(iclasses
FeatureVector
p2951
(dp2952
g13
(dp2953
I1
F111.0
sI2
F235.0
sI3
F9.0
sI6
F1.6111107
sI7
F1.3074071
sI8
F2.7222216
sI9
F2.5518525
sI10
F15.62963
sI11
F11.777778
sI12
F15.888889
sI13
F19.222221
sI14
F-11.555555
sI15
F0.7777778
sI16
F10.777778
sI17
F19.222221
sI18
F0.3880957
sI19
F2.6707714
ssbsg15
g0
(g16
g2
Ntp2954
Rp2955
(dp2956
g20
I1
sbsba(iclasses
Instance
p2957
(dp2958
g10
(iclasses
FeatureVector
p2959
(dp2960
g13
(dp2961
I1
F114.0
sI2
F238.0
sI3
F9.0
sI6
F1.666667
sI7
F1.1352924
sI8
F1.4444445
sI9
F1.0680548
sI10
F13.62963
sI11
F11.111111
sI12
F10.666667
sI13
F19.11111
sI14
F-7.5555553
sI15
F-8.888889
sI16
F16.444445
sI17
F19.11111
sI18
F0.46145898
sI19
F2.0466826
ssbsg15
g0
(g16
g2
Ntp2962
Rp2963
(dp2964
g20
I1
sbsba(iclasses
Instance
p2965
(dp2966
g10
(iclasses
FeatureVector
p2967
(dp2968
g13
(dp2969
I1
F208.0
sI2
F240.0
sI3
F9.0
sI4
F0.11111111
sI6
F1.0555557
sI7
F0.86296326
sI8
F2.4444444
sI9
F5.007407
sI10
F14.148149
sI11
F10.888889
sI12
F13.0
sI13
F18.555555
sI14
F-9.777778
sI15
F-3.4444444
sI16
F13.222222
sI17
F18.555555
sI18
F0.42162097
sI19
F2.3924873
ssbsg15
g0
(g16
g2
Ntp2970
Rp2971
(dp2972
g20
I1
sbsba(iclasses
Instance
p2973
(dp2974
g10
(iclasses
FeatureVector
p2975
(dp2976
g13
(dp2977
I1
F56.0
sI2
F243.0
sI3
F9.0
sI6
F2.2222223
sI7
F5.274073
sI8
F2.5555556
sI9
F0.829629
sI10
F6.4814816
sI11
F5.111111
sI12
F4.888889
sI13
F9.444445
sI14
F-4.111111
sI15
F-4.7777777
sI16
F8.888889
sI17
F9.444445
sI18
F0.52543694
sI19
F2.0336287
ssbsg15
g0
(g16
g2
Ntp2978
Rp2979
(dp2980
g20
I1
sbsba(iclasses
Instance
p2981
(dp2982
g10
(iclasses
FeatureVector
p2983
(dp2984
g13
(dp2985
I1
F126.0
sI2
F141.0
sI3
F9.0
sI6
F1.3888887
sI7
F1.3518527
sI8
F0.88888884
sI9
F0.8296295
sI10
F3.2592592
sI11
F0.44444445
sI12
F7.6666665
sI13
F1.6666666
sI14
F-8.444445
sI15
F13.222222
sI16
F-4.7777777
sI17
F7.6666665
sI18
F0.95308644
sI19
F-2.2571225
ssbsg15
g0
(g16
g2
Ntp2986
Rp2987
(dp2988
g20
I0
sbsba(iclasses
Instance
p2989
(dp2990
g10
(iclasses
FeatureVector
p2991
(dp2992
g13
(dp2993
I1
F211.0
sI2
F206.0
sI3
F9.0
sI6
F0.94444466
sI7
F1.1296302
sI8
F2.166667
sI9
F1.1000005
sI10
F16.074074
sI11
F13.555555
sI12
F14.555555
sI13
F20.11111
sI14
F-7.5555553
sI15
F-4.5555553
sI16
F12.111111
sI17
F20.11111
sI18
F0.3273603
sI19
F2.252368
ssbsg15
g0
(g16
g2
Ntp2994
Rp2995
(dp2996
g20
I1
sbsba(iclasses
Instance
p2997
(dp2998
g10
(iclasses
FeatureVector
p2999
(dp3000
g13
(dp3001
I1
F173.0
sI2
F219.0
sI3
F9.0
sI6
F2.7777777
sI7
F3.4962971
sI8
F2.8333333
sI9
F6.6111126
sI10
F5.5925927
sI11
F4.111111
sI12
F4.3333335
sI13
F8.333334
sI14
F-4.4444447
sI15
F-3.7777777
sI16
F8.222222
sI17
F8.333334
sI18
F0.56125355
sI19
F2.1483634
ssbsg15
g0
(g16
g2
Ntp3002
Rp3003
(dp3004
g20
I1
sbsba(iclasses
Instance
p3005
(dp3006
g10
(iclasses
FeatureVector
p3007
(dp3008
g13
(dp3009
I1
F75.0
sI2
F113.0
sI3
F9.0
sI5
F0.11111111
sI6
F2.944445
sI7
F4.1226563
sI8
F6.1666665
sI9
F6.2245026
sI10
F27.88889
sI11
F17.11111
sI12
F44.22222
sI13
F22.333334
sI14
F-32.333332
sI15
F49.0
sI16
F-16.666666
sI17
F44.22222
sI18
F0.62207055
sI19
F-2.2966495
ssbsg15
g0
(g16
g2
Ntp3010
Rp3011
(dp3012
g20
I0
sbsba(iclasses
Instance
p3013
(dp3014
g10
(iclasses
FeatureVector
p3015
(dp3016
g13
(dp3017
I1
F23.0
sI2
F129.0
sI3
F9.0
sI6
F0.5
sI7
F0.077777795
sI8
F0.38888887
sI9
F0.15185186
sI10
F0.5185185
sI12
F1.5555556
sI14
F-1.5555556
sI15
F3.1111112
sI16
F-1.5555556
sI17
F1.5555556
sI18
F0.7777778
sI19
F-2.0943952
ssbsg15
g0
(g16
g2
Ntp3018
Rp3019
(dp3020
g20
I0
sbsba(iclasses
Instance
p3021
(dp3022
g10
(iclasses
FeatureVector
p3023
(dp3024
g13
(dp3025
I1
F235.0
sI2
F81.0
sI3
F9.0
sI6
F1.388889
sI7
F0.41851807
sI8
F0.77777773
sI9
F0.2962964
sI10
F3.4814816
sI11
F1.0
sI12
F7.4444447
sI13
F2.0
sI14
F-7.4444447
sI15
F11.888889
sI16
F-4.4444447
sI17
F7.4444447
sI18
F0.88121694
sI19
F-2.2481337
ssbsg15
g0
(g16
g2
Ntp3026
Rp3027
(dp3028
g20
I0
sbsba(iclasses
Instance
p3029
(dp3030
g10
(iclasses
FeatureVector
p3031
(dp3032
g13
(dp3033
I1
F168.0
sI2
F209.0
sI3
F9.0
sI6
F1.3333334
sI7
F0.6666665
sI8
F0.7222217
sI9
F0.7123257
sI10
F22.518518
sI11
F17.666668
sI12
F20.88889
sI13
F29.0
sI14
F-14.555555
sI15
F-4.888889
sI16
F19.444445
sI17
F29.0
sI18
F0.39033788
sI19
F2.3893912
ssbsg15
g0
(g16
g2
Ntp3034
Rp3035
(dp3036
g20
I1
sbsba(iclasses
Instance
p3037
(dp3038
g10
(iclasses
FeatureVector
p3039
(dp3040
g13
(dp3041
I1
F63.0
sI2
F220.0
sI3
F9.0
sI6
F3.055556
sI7
F15.2629595
sI8
F3.6666667
sI9
F6.0888896
sI10
F8.185185
sI11
F6.5555553
sI12
F6.4444447
sI13
F11.555555
sI14
F-4.888889
sI15
F-5.2222223
sI16
F10.111111
sI17
F11.555555
sI18
F0.48671728
sI19
F2.0931497
ssbsg15
g0
(g16
g2
Ntp3042
Rp3043
(dp3044
g20
I1
sbsba(iclasses
Instance
p3045
(dp3046
g10
(iclasses
FeatureVector
p3047
(dp3048
g13
(dp3049
I1
F72.0
sI2
F191.0
sI3
F9.0
sI4
F0.11111111
sI6
F1.2777777
sI7
F0.5074075
sI8
F3.1111114
sI9
F4.6074066
sI10
F15.185185
sI11
F12.111111
sI12
F14.888889
sI13
F18.555555
sI14
F-9.222222
sI15
F-0.8888889
sI16
F10.111111
sI17
F18.555555
sI18
F0.3503698
sI19
F2.545329
ssbsg15
g0
(g16
g2
Ntp3050
Rp3051
(dp3052
g20
I1
sbsba(iclasses
Instance
p3053
(dp3054
g10
(iclasses
FeatureVector
p3055
(dp3056
g13
(dp3057
I1
F20.0
sI2
F248.0
sI3
F9.0
sI6
F1.8333335
sI7
F0.8333331
sI8
F1.6666669
sI9
F1.5999992
sI10
F13.444445
sI11
F10.555555
sI12
F12.111111
sI13
F17.666668
sI14
F-8.666667
sI15
F-4.0
sI16
F12.666667
sI17
F17.666668
sI18
F0.40343738
sI19
F2.3416765
ssbsg15
g0
(g16
g2
Ntp3058
Rp3059
(dp3060
g20
I1
sbsba(iclasses
Instance
p3061
(dp3062
g10
(iclasses
FeatureVector
p3063
(dp3064
g13
(dp3065
I1
F59.0
sI2
F87.0
sI3
F9.0
sI5
F0.11111111
sI6
F11.166667
sI7
F84.87777
sI8
F13.222221
sI9
F70.02964
sI10
F17.11111
sI11
F12.222222
sI12
F23.444445
sI13
F15.666667
sI14
F-14.666667
sI15
F19.0
sI16
F-4.3333335
sI17
F23.444445
sI18
F0.65204316
sI19
F-2.4180744
ssbsg15
g0
(g16
g2
Ntp3066
Rp3067
(dp3068
g20
I0
sbsba(iclasses
Instance
p3069
(dp3070
g10
(iclasses
FeatureVector
p3071
(dp3072
g13
(dp3073
I1
F2.0
sI2
F198.0
sI3
F9.0
sI4
F0.11111111
sI6
F0.888889
sI7
F0.6206327
sI8
F1.9444448
sI9
F1.3567389
sI10
F12.185185
sI11
F9.666667
sI12
F10.555555
sI13
F16.333334
sI14
F-7.5555553
sI15
F-4.888889
sI16
F12.444445
sI17
F16.333334
sI18
F0.4157716
sI19
F2.2212758
ssbsg15
g0
(g16
g2
Ntp3074
Rp3075
(dp3076
g20
I1
sbsba(iclasses
Instance
p3077
(dp3078
g10
(iclasses
FeatureVector
p3079
(dp3080
g13
(dp3081
I1
F131.0
sI2
F214.0
sI3
F9.0
sI6
F0.77777773
sI7
F0.6518515
sI8
F1.2777777
sI9
F0.24074058
sI10
F6.814815
sI11
F5.0
sI12
F4.7777777
sI13
F10.666667
sI14
F-5.4444447
sI15
F-6.111111
sI16
F11.555555
sI17
F10.666667
sI18
F0.5681624
sI19
F2.0583289
ssbsg15
g0
(g16
g2
Ntp3082
Rp3083
(dp3084
g20
I1
sbsba(iclasses
Instance
p3085
(dp3086
g10
(iclasses
FeatureVector
p3087
(dp3088
g13
(dp3089
I1
F22.0
sI2
F133.0
sI3
F9.0
ssbsg15
g0
(g16
g2
Ntp3090
Rp3091
(dp3092
g20
I0
sbsba(iclasses
Instance
p3093
(dp3094
g10
(iclasses
FeatureVector
p3095
(dp3096
g13
(dp3097
I1
F200.0
sI2
F250.0
sI3
F9.0
sI6
F2.2777777
sI7
F1.420746
sI8
F1.4444445
sI9
F1.0255988
sI10
F9.222222
sI11
F6.5555553
sI12
F7.3333335
sI13
F13.777778
sI14
F-8.0
sI15
F-5.6666665
sI16
F13.666667
sI17
F13.777778
sI18
F0.5633903
sI19
F2.1929355
ssbsg15
g0
(g16
g2
Ntp3098
Rp3099
(dp3100
g20
I1
sbsba(iclasses
Instance
p3101
(dp3102
g10
(iclasses
FeatureVector
p3103
(dp3104
g13
(dp3105
I1
F75.0
sI2
F122.0
sI3
F9.0
sI6
F0.72222227
sI7
F0.24074064
sI8
F0.8333333
sI9
F0.38888904
sI10
F1.5925926
sI12
F4.4444447
sI13
F0.33333334
sI14
F-4.7777777
sI15
F8.555555
sI16
F-3.7777777
sI17
F4.4444447
sI18
F1.0
sI19
F-2.1535993
ssbsg15
g0
(g16
g2
Ntp3106
Rp3107
(dp3108
g20
I0
sbsba(iclasses
Instance
p3109
(dp3110
g10
(iclasses
FeatureVector
p3111
(dp3112
g13
(dp3113
I1
F80.0
sI2
F203.0
sI3
F9.0
sI6
F1.3888887
sI7
F0.74286735
sI8
F1.9444443
sI9
F1.5263122
sI10
F12.407408
sI11
F10.0
sI12
F9.0
sI13
F18.222221
sI14
F-7.2222223
sI15
F-10.222222
sI16
F17.444445
sI17
F18.222221
sI18
F0.5144446
sI19
F1.9867483
ssbsg15
g0
(g16
g2
Ntp3114
Rp3115
(dp3116
g20
I1
sbsba(iclasses
Instance
p3117
(dp3118
g10
(iclasses
FeatureVector
p3119
(dp3120
g13
(dp3121
I1
F238.0
sI2
F162.0
sI3
F9.0
sI4
F0.22222222
sI6
F0.94444466
sI7
F0.7123257
sI8
F2.666667
sI9
F0.73029745
sI10
F19.0
sI11
F15.777778
sI12
F17.333334
sI13
F23.88889
sI14
F-9.666667
sI15
F-5.0
sI16
F14.666667
sI17
F23.88889
sI18
F0.34003016
sI19
F2.2914152
ssbsg15
g0
(g16
g2
Ntp3122
Rp3123
(dp3124
g20
I1
sbsba(iclasses
Instance
p3125
(dp3126
g10
(iclasses
FeatureVector
p3127
(dp3128
g13
(dp3129
I1
F153.0
sI2
F204.0
sI3
F9.0
sI4
F0.11111111
sI6
F2.388889
sI7
F1.6920295
sI8
F3.3333333
sI9
F1.3824291
sI10
F19.407408
sI11
F15.333333
sI12
F16.88889
sI13
F26.0
sI14
F-12.222222
sI15
F-7.5555553
sI16
F19.777779
sI17
F26.0
sI18
F0.4203661
sI19
F2.2444103
ssbsg15
g0
(g16
g2
Ntp3130
Rp3131
(dp3132
g20
I1
sbsba(iclasses
Instance
p3133
(dp3134
g10
(iclasses
FeatureVector
p3135
(dp3136
g13
(dp3137
I1
F194.0
sI2
F124.0
sI3
F9.0
sI6
F1.4999999
sI7
F0.43333384
sI8
F1.388889
sI9
F0.90740687
sI10
F2.8148148
sI11
F1.0
sI12
F5.5555553
sI13
F1.8888888
sI14
F-5.4444447
sI15
F8.222222
sI16
F-2.7777777
sI17
F5.5555553
sI18
F0.8367725
sI19
F-2.2846084
ssbsg15
g0
(g16
g2
Ntp3138
Rp3139
(dp3140
g20
I0
sbsba(iclasses
Instance
p3141
(dp3142
g10
(iclasses
FeatureVector
p3143
(dp3144
g13
(dp3145
I1
F114.0
sI2
F242.0
sI3
F9.0
sI6
F2.7222223
sI7
F2.4532676
sI8
F4.6666675
sI9
F1.9206476
sI10
F24.074074
sI11
F19.222221
sI12
F22.444445
sI13
F30.555555
sI14
F-14.555555
sI15
F-4.888889
sI16
F19.444445
sI17
F30.555555
sI18
F0.3716949
sI19
F2.395778
ssbsg15
g0
(g16
g2
Ntp3146
Rp3147
(dp3148
g20
I1
sbsba(iclasses
Instance
p3149
(dp3150
g10
(iclasses
FeatureVector
p3151
(dp3152
g13
(dp3153
I1
F10.0
sI2
F196.0
sI3
F9.0
sI6
F1.2222217
sI7
F1.0470414
sI8
F0.9999997
sI9
F0.8432735
sI10
F15.333333
sI11
F14.111111
sI12
F11.444445
sI13
F20.444445
sI14
F-3.6666667
sI15
F-11.666667
sI16
F15.333333
sI17
F20.444445
sI18
F0.4405804
sI19
F1.789167
ssbsg15
g0
(g16
g2
Ntp3154
Rp3155
(dp3156
g20
I1
sbsba(iclasses
Instance
p3157
(dp3158
g10
(iclasses
FeatureVector
p3159
(dp3160
g13
(dp3161
I1
F68.0
sI2
F109.0
sI3
F9.0
sI6
F1.5
sI7
F3.2333333
sI8
F1.111111
sI9
F1.8962961
sI10
F1.962963
sI11
F0.33333334
sI12
F4.7777777
sI13
F0.7777778
sI14
F-4.888889
sI15
F8.444445
sI16
F-3.5555556
sI17
F4.7777777
sI18
F0.9691358
sI19
F-2.146531
ssbsg15
g0
(g16
g2
Ntp3162
Rp3163
(dp3164
g20
I0
sbsba(iclasses
Instance
p3165
(dp3166
g10
(iclasses
FeatureVector
p3167
(dp3168
g13
(dp3169
I1
F63.0
sI2
F158.0
sI3
F9.0
sI4
F0.11111111
sI6
F0.99999934
sI7
F1.0540929
sI8
F1.888889
sI9
F1.29386
sI10
F22.185184
sI11
F16.444445
sI12
F22.222221
sI13
F27.88889
sI14
F-17.222221
sI15
F0.11111111
sI16
F17.11111
sI17
F27.88889
sI18
F0.41181073
sI19
F2.6247067
ssbsg15
g0
(g16
g2
Ntp3170
Rp3171
(dp3172
g20
I1
sbsba(iclasses
Instance
p3173
(dp3174
g10
(iclasses
FeatureVector
p3175
(dp3176
g13
(dp3177
I1
F115.0
sI2
F183.0
sI3
F9.0
sI6
F1.055555
sI7
F0.7722019
sI8
F4.722222
sI9
F1.0201681
sI10
F19.851852
sI11
F14.555555
sI12
F19.0
sI13
F26.0
sI14
F-15.888889
sI15
F-2.5555556
sI16
F18.444445
sI17
F26.0
sI18
F0.44994184
sI19
F2.5068066
ssbsg15
g0
(g16
g2
Ntp3178
Rp3179
(dp3180
g20
I1
sbsba(iclasses
Instance
p3181
(dp3182
g10
(iclasses
FeatureVector
p3183
(dp3184
g13
(dp3185
I1
F247.0
sI2
F197.0
sI3
F9.0
sI6
F0.33333316
sI7
F0.044444434
sI8
F0.611111
sI9
F0.06296301
sI10
F6.0
sI11
F4.111111
sI12
F4.0
sI13
F9.888889
sI14
F-5.6666665
sI15
F-6.0
sI16
F11.666667
sI17
F9.888889
sI18
F0.61705947
sI19
F2.0749567
ssbsg15
g0
(g16
g2
Ntp3186
Rp3187
(dp3188
g20
I1
sbsba(iclasses
Instance
p3189
(dp3190
g10
(iclasses
FeatureVector
p3191
(dp3192
g13
(dp3193
I1
F80.0
sI2
F184.0
sI3
F9.0
sI6
F3.444444
sI7
F11.851854
sI8
F4.166667
sI9
F5.8555503
sI10
F17.62963
sI11
F13.555555
sI12
F17.11111
sI13
F22.222221
sI14
F-12.222222
sI15
F-1.5555556
sI16
F13.777778
sI17
F22.222221
sI18
F0.39835298
sI19
F2.524273
ssbsg15
g0
(g16
g2
Ntp3194
Rp3195
(dp3196
g20
I1
sbsba(iclasses
Instance
p3197
(dp3198
g10
(iclasses
FeatureVector
p3199
(dp3200
g13
(dp3201
I1
F57.0
sI2
F177.0
sI3
F9.0
sI6
F0.94444495
sI7
F0.55185163
sI8
F1.4444443
sI9
F1.71852
sI10
F19.592592
sI11
F15.777778
sI12
F18.444445
sI13
F24.555555
sI14
F-11.444445
sI15
F-3.4444444
sI16
F14.888889
sI17
F24.555555
sI18
F0.3589904
sI19
F2.413262
ssbsg15
g0
(g16
g2
Ntp3202
Rp3203
(dp3204
g20
I1
sbsba(iclasses
Instance
p3205
(dp3206
g10
(iclasses
FeatureVector
p3207
(dp3208
g13
(dp3209
I1
F51.0
sI2
F115.0
sI3
F9.0
sI6
F0.6666667
sI7
F0.48888892
sI8
F1.388889
sI9
F0.6851847
sI10
F2.7037036
sI11
F0.5555556
sI12
F5.6666665
sI13
F1.8888888
sI14
F-6.4444447
sI15
F8.888889
sI16
F-2.4444444
sI17
F5.6666665
sI18
F0.91798943
sI19
F-2.3583865
ssbsg15
g0
(g16
g2
Ntp3210
Rp3211
(dp3212
g20
I0
sbsba(iclasses
Instance
p3213
(dp3214
g10
(iclasses
FeatureVector
p3215
(dp3216
g13
(dp3217
I1
F184.0
sI2
F197.0
sI3
F9.0
sI6
F3.0555553
sI7
F3.2551951
sI8
F4.5555553
sI9
F2.7460418
sI10
F11.962963
sI11
F8.888889
sI12
F9.555555
sI13
F17.444445
sI14
F-9.222222
sI15
F-7.2222223
sI16
F16.444445
sI17
F17.444445
sI18
F0.51518697
sI19
F2.164262
ssbsg15
g0
(g16
g2
Ntp3218
Rp3219
(dp3220
g20
I1
sbsba(iclasses
Instance
p3221
(dp3222
g10
(iclasses
FeatureVector
p3223
(dp3224
g13
(dp3225
I1
F52.0
sI2
F102.0
sI3
F9.0
sI6
F0.72222227
sI7
F0.50740725
sI8
F0.8333333
sI9
F0.5666668
sI10
F2.8888888
sI11
F0.6666667
sI12
F6.3333335
sI13
F1.6666666
sI14
F-6.6666665
sI15
F10.333333
sI16
F-3.6666667
sI17
F6.3333335
sI18
F0.89973545
sI19
F-2.2617195
ssbsg15
g0
(g16
g2
Ntp3226
Rp3227
(dp3228
g20
I0
sbsba(iclasses
Instance
p3229
(dp3230
g10
(iclasses
FeatureVector
p3231
(dp3232
g13
(dp3233
I1
F242.0
sI2
F81.0
sI3
F9.0
sI6
F22.388887
sI7
F189.44075
sI8
F15.166667
sI9
F110.8778
sI10
F41.925926
sI11
F33.11111
sI12
F55.555557
sI13
F37.11111
sI14
F-26.444445
sI15
F40.88889
sI16
F-14.444445
sI17
F55.555557
sI18
F0.42017567
sI19
F-2.2744606
ssbsg15
g0
(g16
g2
Ntp3234
Rp3235
(dp3236
g20
I0
sbsba(iclasses
Instance
p3237
(dp3238
g10
(iclasses
FeatureVector
p3239
(dp3240
g13
(dp3241
I1
F14.0
sI2
F136.0
sI3
F9.0
ssbsg15
g0
(g16
g2
Ntp3242
Rp3243
(dp3244
g20
I0
sbsba(iclasses
Instance
p3245
(dp3246
g10
(iclasses
FeatureVector
p3247
(dp3248
g13
(dp3249
I1
F63.0
sI2
F179.0
sI3
F9.0
sI6
F0.6666668
sI7
F0.22222233
sI8
F1.5555557
sI9
F0.5629631
sI10
F11.814815
sI11
F9.777778
sI12
F9.444445
sI13
F16.222223
sI14
F-6.111111
sI15
F-7.111111
sI16
F13.222222
sI17
F16.222223
sI18
F0.41976216
sI19
F2.04457
ssbsg15
g0
(g16
g2
Ntp3250
Rp3251
(dp3252
g20
I1
sbsba(iclasses
Instance
p3253
(dp3254
g10
(iclasses
FeatureVector
p3255
(dp3256
g13
(dp3257
I1
F17.0
sI2
F229.0
sI3
F9.0
sI6
F2.1111114
sI7
F1.9851303
sI8
F2.4444447
sI9
F1.6147469
sI10
F13.703704
sI11
F11.222222
sI12
F11.111111
sI13
F18.777779
sI14
F-7.4444447
sI15
F-7.7777777
sI16
F15.222222
sI17
F18.777779
sI18
F0.4398524
sI19
F2.0999045
ssbsg15
g0
(g16
g2
Ntp3258
Rp3259
(dp3260
g20
I1
sbsba(iclasses
Instance
p3261
(dp3262
g10
(iclasses
FeatureVector
p3263
(dp3264
g13
(dp3265
I1
F126.0
sI2
F237.0
sI3
F9.0
sI6
F0.94444436
sI7
F0.24074084
sI8
F1.0000001
sI9
F0.48888868
sI10
F5.7777777
sI11
F4.2222223
sI12
F4.2222223
sI13
F8.888889
sI14
F-4.6666665
sI15
F-4.6666665
sI16
F9.333333
sI17
F8.888889
sI18
F0.5538119
sI19
F2.0972314
ssbsg15
g0
(g16
g2
Ntp3266
Rp3267
(dp3268
g20
I1
sbsba(iclasses
Instance
p3269
(dp3270
g10
(iclasses
FeatureVector
p3271
(dp3272
g13
(dp3273
I1
F128.0
sI2
F196.0
sI3
F9.0
sI6
F1.666667
sI7
F1.2444435
sI8
F1.8888887
sI9
F3.851853
sI10
F19.62963
sI11
F15.666667
sI12
F18.555555
sI13
F24.666666
sI14
F-11.888889
sI15
F-3.2222223
sI16
F15.111111
sI17
F24.666666
sI18
F0.36529657
sI19
F2.4373393
ssbsg15
g0
(g16
g2
Ntp3274
Rp3275
(dp3276
g20
I1
sbsba(iclasses
Instance
p3277
(dp3278
g10
(iclasses
FeatureVector
p3279
(dp3280
g13
(dp3281
I1
F230.0
sI2
F124.0
sI3
F9.0
sI6
F0.2777778
sI7
F0.10740743
sI8
F0.2777778
sI9
F0.15185183
sI10
F0.6666667
sI12
F2.0
sI14
F-2.0
sI15
F4.0
sI16
F-2.0
sI17
F2.0
sI18
F1.0
sI19
F-2.0943952
ssbsg15
g0
(g16
g2
Ntp3282
Rp3283
(dp3284
g20
I0
sbsba(iclasses
Instance
p3285
(dp3286
g10
(iclasses
FeatureVector
p3287
(dp3288
g13
(dp3289
I1
F140.0
sI2
F125.0
sI3
F9.0
sI6
F0.66666657
sI7
F0.22222227
sI8
F2.6666667
sI9
F3.7777781
sI10
F3.925926
sI11
F1.5555556
sI12
F7.7777777
sI13
F2.4444444
sI14
F-7.111111
sI15
F11.555555
sI16
F-4.4444447
sI17
F7.7777777
sI18
F0.85319865
sI19
F-2.2342408
ssbsg15
g0
(g16
g2
Ntp3290
Rp3291
(dp3292
g20
I0
sbsba(iclasses
Instance
p3293
(dp3294
g10
(iclasses
FeatureVector
p3295
(dp3296
g13
(dp3297
I1
F112.0
sI2
F102.0
sI3
F9.0
sI6
F0.5555555
sI7
F0.20740739
sI8
F1.5555555
sI9
F0.4740743
sI10
F3.3703704
sI11
F0.5555556
sI12
F7.6666665
sI13
F1.8888888
sI14
F-8.444445
sI15
F12.888889
sI16
F-4.4444447
sI17
F7.6666665
sI18
F0.94074076
sI19
F-2.2751586
ssbsg15
g0
(g16
g2
Ntp3298
Rp3299
(dp3300
g20
I0
sbsba(iclasses
Instance
p3301
(dp3302
g10
(iclasses
FeatureVector
p3303
(dp3304
g13
(dp3305
I1
F73.0
sI2
F117.0
sI3
F9.0
sI6
F1.5555553
sI7
F0.96296364
sI8
F0.6111111
sI9
F0.7740742
sI10
F1.3333334
sI11
F0.22222222
sI12
F3.5555556
sI13
F0.22222222
sI14
F-3.3333333
sI15
F6.6666665
sI16
F-3.3333333
sI17
F3.5555556
sI18
F0.96825397
sI19
F-2.0943952
ssbsg15
g0
(g16
g2
Ntp3306
Rp3307
(dp3308
g20
I0
sbsba(iclasses
Instance
p3309
(dp3310
g10
(iclasses
FeatureVector
p3311
(dp3312
g13
(dp3313
I1
F207.0
sI2
F215.0
sI3
F9.0
sI6
F3.222222
sI7
F2.0403335
sI8
F2.4999998
sI9
F1.6158936
sI10
F23.814816
sI11
F18.11111
sI12
F22.666666
sI13
F30.666666
sI14
F-17.11111
sI15
F-3.4444444
sI16
F20.555555
sI17
F30.666666
sI18
F0.40983668
sI19
F2.4717567
ssbsg15
g0
(g16
g2
Ntp3314
Rp3315
(dp3316
g20
I1
sbsba(iclasses
Instance
p3317
(dp3318
g10
(iclasses
FeatureVector
p3319
(dp3320
g13
(dp3321
I1
F231.0
sI2
F233.0
sI3
F9.0
sI6
F1.4444442
sI7
F0.74074095
sI8
F1.1666664
sI9
F0.3444444
sI10
F12.592592
sI11
F8.888889
sI12
F11.888889
sI13
F17.0
sI14
F-11.111111
sI15
F-2.1111112
sI16
F13.222222
sI17
F17.0
sI18
F0.47822163
sI19
F2.4915802
ssbsg15
g0
(g16
g2
Ntp3322
Rp3323
(dp3324
g20
I1
sbsba(iclasses
Instance
p3325
(dp3326
g10
(iclasses
FeatureVector
p3327
(dp3328
g13
(dp3329
I1
F186.0
sI2
F218.0
sI3
F9.0
sI6
F1.1666666
sI7
F0.74444425
sI8
F1.1666665
sI9
F0.65555507
sI10
F13.703704
sI11
F10.666667
sI12
F12.666667
sI13
F17.777779
sI14
F-9.111111
sI15
F-3.1111112
sI16
F12.222222
sI17
F17.777779
sI18
F0.40134683
sI19
F2.3826835
ssbsg15
g0
(g16
g2
Ntp3330
Rp3331
(dp3332
g20
I1
sbsba(iclasses
Instance
p3333
(dp3334
g10
(iclasses
FeatureVector
p3335
(dp3336
g13
(dp3337
I1
F7.0
sI2
F90.0
sI3
F9.0
sI6
F1.2777777
sI7
F0.8541836
sI8
F2.4444444
sI9
F2.0184336
sI10
F4.6666665
sI11
F2.5555556
sI12
F5.7777777
sI13
F5.6666665
sI14
F-6.3333335
sI15
F3.3333333
sI16
F3.0
sI17
F6.2222223
sI18
F0.66534394
sI19
F-3.0441751
ssbsg15
g0
(g16
g2
Ntp3338
Rp3339
(dp3340
g20
I0
sbsba(iclasses
Instance
p3341
(dp3342
g10
(iclasses
FeatureVector
p3343
(dp3344
g13
(dp3345
I1
F196.0
sI2
F182.0
sI3
F9.0
sI6
F1.1666664
sI7
F0.43333244
sI8
F0.6111107
sI9
F0.37407404
sI10
F19.88889
sI11
F16.88889
sI12
F18.11111
sI13
F24.666666
sI14
F-9.0
sI15
F-5.3333335
sI16
F14.333333
sI17
F24.666666
sI18
F0.31489658
sI19
F2.2716928
ssbsg15
g0
(g16
g2
Ntp3346
Rp3347
(dp3348
g20
I1
sbsba(iclasses
Instance
p3349
(dp3350
g10
(iclasses
FeatureVector
p3351
(dp3352
g13
(dp3353
I1
F104.0
sI2
F134.0
sI3
F9.0
sI6
F0.5
sI7
F0.18257418
sI8
F0.8333333
sI9
F0.27888662
sI10
F1.7777778
sI11
F0.11111111
sI12
F3.8888888
sI13
F1.3333334
sI14
F-5.0
sI15
F6.3333335
sI16
F-1.3333334
sI17
F3.8888888
sI18
F0.9777778
sI19
F-2.4225056
ssbsg15
g0
(g16
g2
Ntp3354
Rp3355
(dp3356
g20
I0
sbsba(iclasses
Instance
p3357
(dp3358
g10
(iclasses
FeatureVector
p3359
(dp3360
g13
(dp3361
I1
F48.0
sI2
F85.0
sI3
F9.0
sI6
F3.111111
sI7
F13.451853
sI8
F2.0555556
sI9
F6.862964
sI10
F4.296296
sI11
F1.3333334
sI12
F8.888889
sI13
F2.6666667
sI14
F-8.888889
sI15
F13.777778
sI16
F-4.888889
sI17
F8.888889
sI18
F0.8858245
sI19
F-2.2715442
ssbsg15
g0
(g16
g2
Ntp3362
Rp3363
(dp3364
g20
I0
sbsba(iclasses
Instance
p3365
(dp3366
g10
(iclasses
FeatureVector
p3367
(dp3368
g13
(dp3369
I1
F80.0
sI2
F87.0
sI3
F9.0
sI5
F0.11111111
sI6
F24.388891
sI7
F572.9964
sI8
F44.722225
sI9
F1386.3292
sI10
F67.44444
sI11
F58.77778
sI12
F79.0
sI13
F64.55556
sI14
F-26.0
sI15
F34.666668
sI16
F-8.666667
sI17
F79.0
sI18
F0.30628127
sI19
F-2.4221272
ssbsg15
g0
(g16
g2
Ntp3370
Rp3371
(dp3372
g20
I0
sbsba(iclasses
Instance
p3373
(dp3374
g10
(iclasses
FeatureVector
p3375
(dp3376
g13
(dp3377
I1
F96.0
sI2
F115.0
sI3
F9.0
sI6
F1.9999999
sI7
F0.9660915
sI8
F3.3333333
sI9
F1.4142128
sI10
F14.777778
sI11
F8.444445
sI12
F22.88889
sI13
F13.0
sI14
F-19.0
sI15
F24.333334
sI16
F-5.3333335
sI17
F22.88889
sI18
F0.6183277
sI19
F-2.4590404
ssbsg15
g0
(g16
g2
Ntp3378
Rp3379
(dp3380
g20
I0
sbsba(iclasses
Instance
p3381
(dp3382
g10
(iclasses
FeatureVector
p3383
(dp3384
g13
(dp3385
I1
F46.0
sI2
F238.0
sI3
F9.0
sI6
F1.0555557
sI7
F0.8277594
sI8
F2.166667
sI9
F1.8226967
sI10
F13.259259
sI11
F9.666667
sI12
F12.666667
sI13
F17.444445
sI14
F-10.777778
sI15
F-1.7777778
sI16
F12.555555
sI17
F17.444445
sI18
F0.44550914
sI19
F2.5082257
ssbsg15
g0
(g16
g2
Ntp3386
Rp3387
(dp3388
g20
I1
sbsba(iclasses
Instance
p3389
(dp3390
g10
(iclasses
FeatureVector
p3391
(dp3392
g13
(dp3393
I1
F108.0
sI2
F144.0
sI3
F9.0
sI6
F0.38888893
sI7
F0.15185183
sI8
F0.22222222
sI9
F0.07407406
sI10
F0.962963
sI12
F2.8888888
sI14
F-2.8888888
sI15
F5.7777777
sI16
F-2.8888888
sI17
F2.8888888
sI18
F1.0
sI19
F-2.0943952
ssbsg15
g0
(g16
g2
Ntp3394
Rp3395
(dp3396
g20
I0
sbsba(iclasses
Instance
p3397
(dp3398
g10
(iclasses
FeatureVector
p3399
(dp3400
g13
(dp3401
I1
F75.0
sI2
F98.0
sI3
F9.0
sI6
F3.9444444
sI7
F45.84074
sI8
F4.6666665
sI9
F39.288876
sI10
F5.5185184
sI11
F2.3333335
sI12
F10.444445
sI13
F3.7777777
sI14
F-9.555555
sI15
F14.777778
sI16
F-5.2222223
sI17
F10.444445
sI18
F0.8721458
sI19
F-2.2729733
ssbsg15
g0
(g16
g2
Ntp3402
Rp3403
(dp3404
g20
I0
sbsba(iclasses
Instance
p3405
(dp3406
g10
(iclasses
FeatureVector
p3407
(dp3408
g13
(dp3409
I1
F36.0
sI2
F145.0
sI3
F9.0
sI6
F0.2777778
sI7
F0.19629629
sI8
F1.2777778
sI9
F2.0629628
sI10
F0.8518519
sI11
F0.33333334
sI12
F1.4444444
sI13
F0.7777778
sI14
F-1.5555556
sI15
F1.7777778
sI16
F-0.22222222
sI17
F1.4444444
sI18
F0.25185186
sI19
F-2.5309503
ssbsg15
g0
(g16
g2
Ntp3410
Rp3411
(dp3412
g20
I0
sbsba(iclasses
Instance
p3413
(dp3414
g10
(iclasses
FeatureVector
p3415
(dp3416
g13
(dp3417
I1
F76.0
sI2
F106.0
sI3
F9.0
sI6
F1.8333334
sI7
F3.5444427
sI8
F2.2222223
sI9
F3.718517
sI10
F3.6666667
sI11
F1.0
sI12
F7.888889
sI13
F2.1111112
sI14
F-8.0
sI15
F12.666667
sI16
F-4.6666665
sI17
F7.888889
sI18
F0.9035714
sI19
F-2.2555406
ssbsg15
g0
(g16
g2
Ntp3418
Rp3419
(dp3420
g20
I0
sbsba(iclasses
Instance
p3421
(dp3422
g10
(iclasses
FeatureVector
p3423
(dp3424
g13
(dp3425
I1
F205.0
sI2
F83.0
sI3
F9.0
sI6
F24.555555
sI7
F688.0741
sI8
F8.333333
sI9
F121.24443
sI10
F23.296297
sI11
F19.777779
sI12
F28.555555
sI13
F21.555555
sI14
F-10.555555
sI15
F15.777778
sI16
F-5.2222223
sI17
F28.555555
sI18
F0.5041609
sI19
F-2.3213427
ssbsg15
g0
(g16
g2
Ntp3426
Rp3427
(dp3428
g20
I0
sbsba(iclasses
Instance
p3429
(dp3430
g10
(iclasses
FeatureVector
p3431
(dp3432
g13
(dp3433
I1
F59.0
sI2
F120.0
sI3
F9.0
sI6
F2.1666667
sI7
F1.9860634
sI8
F1.4444441
sI9
F1.8698385
sI10
F19.074074
sI11
F10.555555
sI12
F33.11111
sI13
F13.555555
sI14
F-25.555555
sI15
F42.11111
sI16
F-16.555555
sI17
F33.11111
sI18
F0.6812664
sI19
F-2.2312608
ssbsg15
g0
(g16
g2
Ntp3434
Rp3435
(dp3436
g20
I0
sbsba(iclasses
Instance
p3437
(dp3438
g10
(iclasses
FeatureVector
p3439
(dp3440
g13
(dp3441
I1
F224.0
sI2
F242.0
sI3
F9.0
sI6
F1.8888888
sI7
F0.829629
sI8
F2.222222
sI9
F3.2740743
sI10
F11.740741
sI11
F8.666667
sI12
F10.777778
sI13
F15.777778
sI14
F-9.222222
sI15
F-2.8888888
sI16
F12.111111
sI17
F15.777778
sI18
F0.45454717
sI19
F2.386597
ssbsg15
g0
(g16
g2
Ntp3442
Rp3443
(dp3444
g20
I1
sbsba(iclasses
Instance
p3445
(dp3446
g10
(iclasses
FeatureVector
p3447
(dp3448
g13
(dp3449
I1
F116.0
sI2
F245.0
sI3
F9.0
sI4
F0.11111111
sI6
F1.3888888
sI7
F0.5518514
sI8
F2.222222
sI9
F3.940739
sI10
F14.222222
sI11
F11.111111
sI12
F13.111111
sI13
F18.444445
sI14
F-9.333333
sI15
F-3.3333333
sI16
F12.666667
sI17
F18.444445
sI18
F0.38969478
sI19
F2.3954313
ssbsg15
g0
(g16
g2
Ntp3450
Rp3451
(dp3452
g20
I1
sbsba(iclasses
Instance
p3453
(dp3454
g10
(iclasses
FeatureVector
p3455
(dp3456
g13
(dp3457
I1
F244.0
sI2
F211.0
sI3
F9.0
sI6
F1.6666666
sI7
F1.3333334
sI8
F2.0000002
sI9
F2.311112
sI10
F13.62963
sI11
F10.777778
sI12
F12.888889
sI13
F17.222223
sI14
F-8.555555
sI15
F-2.2222223
sI16
F10.777778
sI17
F17.222223
sI18
F0.3748065
sI19
F2.441017
ssbsg15
g0
(g16
g2
Ntp3458
Rp3459
(dp3460
g20
I1
sbsba(iclasses
Instance
p3461
(dp3462
g10
(iclasses
FeatureVector
p3463
(dp3464
g13
(dp3465
I1
F210.0
sI2
F232.0
sI3
F9.0
sI6
F1.8333335
sI7
F1.2064636
sI8
F1.4999999
sI9
F1.7224014
sI10
F8.814815
sI11
F6.5555553
sI12
F7.2222223
sI13
F12.666667
sI14
F-6.7777777
sI15
F-4.7777777
sI16
F11.555555
sI17
F12.666667
sI18
F0.49138823
sI19
F2.2013178
ssbsg15
g0
(g16
g2
Ntp3466
Rp3467
(dp3468
g20
I1
sbsba(iclasses
Instance
p3469
(dp3470
g10
(iclasses
FeatureVector
p3471
(dp3472
g13
(dp3473
I1
F115.0
sI2
F156.0
sI3
F9.0
sI6
F0.3888887
sI7
F0.38968167
sI8
F1.0555553
sI9
F0.6469302
sI10
F24.25926
sI11
F17.222223
sI12
F26.0
sI13
F29.555555
sI14
F-21.11111
sI15
F5.2222223
sI16
F15.888889
sI17
F29.555555
sI18
F0.41732758
sI19
F2.8434196
ssbsg15
g0
(g16
g2
Ntp3474
Rp3475
(dp3476
g20
I1
sbsba(iclasses
Instance
p3477
(dp3478
g10
(iclasses
FeatureVector
p3479
(dp3480
g13
(dp3481
I1
F71.0
sI2
F180.0
sI3
F9.0
sI4
F0.11111111
sI6
F1.222222
sI7
F0.5629625
sI8
F3.0
sI9
F1.8666646
sI10
F22.333334
sI11
F18.333334
sI12
F21.444445
sI13
F27.222221
sI14
F-12.0
sI15
F-2.6666667
sI16
F14.666667
sI17
F27.222221
sI18
F0.3273826
sI19
F2.4538307
ssbsg15
g0
(g16
g2
Ntp3482
Rp3483
(dp3484
g20
I1
sbsba(iclasses
Instance
p3485
(dp3486
g10
(iclasses
FeatureVector
p3487
(dp3488
g13
(dp3489
I1
F223.0
sI2
F185.0
sI3
F9.0
sI6
F0.5
sI7
F0.34960312
sI8
F2.3888886
sI9
F2.0807757
sI10
F12.962963
sI11
F11.555555
sI12
F9.777778
sI13
F17.555555
sI14
F-4.2222223
sI15
F-9.555555
sI16
F13.777778
sI17
F17.555555
sI18
F0.44541803
sI19
F1.8388497
ssbsg15
g0
(g16
g2
Ntp3490
Rp3491
(dp3492
g20
I1
sbsba(iclasses
Instance
p3493
(dp3494
g10
(iclasses
FeatureVector
p3495
(dp3496
g13
(dp3497
I1
F2.0
sI2
F96.0
sI3
F9.0
sI6
F3.833333
sI7
F13.2777815
sI8
F2.3333333
sI9
F7.5111103
sI10
F5.2222223
sI11
F2.1111112
sI12
F9.777778
sI13
F3.7777777
sI14
F-9.333333
sI15
F13.666667
sI16
F-4.3333335
sI17
F9.777778
sI18
F0.82478386
sI19
F-2.3306925
ssbsg15
g0
(g16
g2
Ntp3498
Rp3499
(dp3500
g20
I0
sbsba(iclasses
Instance
p3501
(dp3502
g10
(iclasses
FeatureVector
p3503
(dp3504
g13
(dp3505
I1
F27.0
sI2
F248.0
sI3
F9.0
sI4
F0.11111111
sI6
F1.611111
sI7
F0.6469295
sI8
F3.1666667
sI9
F1.7224005
sI10
F15.296296
sI11
F14.777778
sI12
F12.888889
sI13
F18.222221
sI14
F-1.5555556
sI15
F-7.2222223
sI16
F8.777778
sI17
F18.222221
sI18
F0.31222734
sI19
F1.7835119
ssbsg15
g0
(g16
g2
Ntp3506
Rp3507
(dp3508
g20
I1
sbsba(iclasses
Instance
p3509
(dp3510
g10
(iclasses
FeatureVector
p3511
(dp3512
g13
(dp3513
I1
F58.0
sI2
F95.0
sI3
F9.0
sI6
F2.166667
sI7
F1.6333324
sI8
F1.9444445
sI9
F0.68518573
sI10
F4.4444447
sI11
F1.2222222
sI12
F9.0
sI13
F3.1111112
sI14
F-9.666667
sI15
F13.666667
sI16
F-4.0
sI17
F9.0
sI18
F0.8749174
sI19
F-2.3338044
ssbsg15
g0
(g16
g2
Ntp3514
Rp3515
(dp3516
g20
I0
sbsba(iclasses
Instance
p3517
(dp3518
g10
(iclasses
FeatureVector
p3519
(dp3520
g13
(dp3521
I1
F117.0
sI2
F110.0
sI3
F9.0
sI6
F2.3333333
sI7
F2.9059324
sI8
F2.277777
sI9
F1.9022408
sI10
F17.222221
sI11
F9.222222
sI12
F29.0
sI13
F13.444445
sI14
F-24.0
sI15
F35.333332
sI16
F-11.333333
sI17
F29.0
sI18
F0.6807869
sI19
F-2.321226
ssbsg15
g0
(g16
g2
Ntp3522
Rp3523
(dp3524
g20
I0
sbsba(iclasses
Instance
p3525
(dp3526
g10
(iclasses
FeatureVector
p3527
(dp3528
g13
(dp3529
I1
F89.0
sI2
F221.0
sI3
F9.0
sI6
F1.3888888
sI7
F1.4851848
sI8
F1.4444445
sI9
F1.5851862
sI10
F14.074074
sI11
F10.666667
sI12
F12.444445
sI13
F19.11111
sI14
F-10.222222
sI15
F-4.888889
sI16
F15.111111
sI17
F19.11111
sI18
F0.44601154
sI19
F2.3172119
ssbsg15
g0
(g16
g2
Ntp3530
Rp3531
(dp3532
g20
I1
sbsba(iclasses
Instance
p3533
(dp3534
g10
(iclasses
FeatureVector
p3535
(dp3536
g13
(dp3537
I1
F186.0
sI2
F173.0
sI3
F9.0
sI6
F1.4444445
sI7
F0.82963055
sI8
F2.1111114
sI9
F1.9851853
sI10
F17.148148
sI11
F13.555555
sI12
F15.555555
sI13
F22.333334
sI14
F-10.777778
sI15
F-4.7777777
sI16
F15.555555
sI17
F22.333334
sI18
F0.39643326
sI19
F2.332739
ssbsg15
g0
(g16
g2
Ntp3538
Rp3539
(dp3540
g20
I1
sbsba(iclasses
Instance
p3541
(dp3542
g10
(iclasses
FeatureVector
p3543
(dp3544
g13
(dp3545
I1
F153.0
sI2
F208.0
sI3
F9.0
sI6
F2.4444444
sI7
F2.429628
sI8
F1.9444442
sI9
F3.0851858
sI10
F16.851852
sI11
F13.0
sI12
F16.0
sI13
F21.555555
sI14
F-11.555555
sI15
F-2.5555556
sI16
F14.111111
sI17
F21.555555
sI18
F0.3969092
sI19
F2.4832914
ssbsg15
g0
(g16
g2
Ntp3546
Rp3547
(dp3548
g20
I1
sbsba(iclasses
Instance
p3549
(dp3550
g10
(iclasses
FeatureVector
p3551
(dp3552
g13
(dp3553
I1
F3.0
sI2
F91.0
sI3
F9.0
sI5
F0.11111111
sI6
F2.2222223
sI7
F5.051852
sI8
F1.0
sI9
F1.9555557
sI10
F5.6296296
sI11
F1.8888888
sI12
F10.666667
sI13
F4.3333335
sI14
F-11.222222
sI15
F15.111111
sI16
F-3.8888888
sI17
F10.666667
sI18
F0.82974845
sI19
F-2.3839493
ssbsg15
g0
(g16
g2
Ntp3554
Rp3555
(dp3556
g20
I0
sbsba(iclasses
Instance
p3557
(dp3558
g10
(iclasses
FeatureVector
p3559
(dp3560
g13
(dp3561
I1
F215.0
sI2
F235.0
sI3
F9.0
sI6
F1.388889
sI7
F1.06284
sI8
F1.0555557
sI9
F0.49065349
sI10
F9.185185
sI11
F6.7777777
sI12
F8.0
sI13
F12.777778
sI14
F-7.2222223
sI15
F-3.5555556
sI16
F10.777778
sI17
F12.777778
sI18
F0.48219234
sI19
F2.3107576
ssbsg15
g0
(g16
g2
Ntp3562
Rp3563
(dp3564
g20
I1
sbsba(iclasses
Instance
p3565
(dp3566
g10
(iclasses
FeatureVector
p3567
(dp3568
g13
(dp3569
I1
F52.0
sI2
F102.0
sI3
F9.0
sI6
F0.72222227
sI7
F0.50740725
sI8
F0.8333333
sI9
F0.5666668
sI10
F2.8888888
sI11
F0.6666667
sI12
F6.3333335
sI13
F1.6666666
sI14
F-6.6666665
sI15
F10.333333
sI16
F-3.6666667
sI17
F6.3333335
sI18
F0.89973545
sI19
F-2.2617195
ssbsg15
g0
(g16
g2
Ntp3570
Rp3571
(dp3572
g20
I0
sbsba(iclasses
Instance
p3573
(dp3574
g10
(iclasses
FeatureVector
p3575
(dp3576
g13
(dp3577
I1
F54.0
sI2
F138.0
sI3
F9.0
sI6
F0.22222221
sI7
F0.29629624
sI8
F0.38888893
sI9
F0.4185185
sI10
F0.25925925
sI12
F0.6666667
sI13
F0.11111111
sI14
F-0.7777778
sI15
F1.2222222
sI16
F-0.44444445
sI17
F0.6666667
sI18
F0.33333334
sI19
F-2.1814387
ssbsg15
g0
(g16
g2
Ntp3578
Rp3579
(dp3580
g20
I0
sbsba(iclasses
Instance
p3581
(dp3582
g10
(iclasses
FeatureVector
p3583
(dp3584
g13
(dp3585
I1
F127.0
sI2
F81.0
sI3
F9.0
sI6
F24.33333
sI7
F442.17786
sI8
F22.111109
sI9
F263.09634
sI10
F42.555557
sI11
F34.88889
sI12
F51.77778
sI13
F41.0
sI14
F-23.0
sI15
F27.666666
sI16
F-4.6666665
sI17
F51.77778
sI18
F0.3669463
sI19
F-2.476481
ssbsg15
g0
(g16
g2
Ntp3586
Rp3587
(dp3588
g20
I0
sbsba(iclasses
Instance
p3589
(dp3590
g10
(iclasses
FeatureVector
p3591
(dp3592
g13
(dp3593
I1
F26.0
sI2
F137.0
sI3
F9.0
sI6
F0.055555563
sI7
F0.018518524
sI8
F0.11111113
sI9
F0.029629637
sI10
F0.25925925
sI12
F0.7777778
sI14
F-0.7777778
sI15
F1.5555556
sI16
F-0.7777778
sI17
F0.7777778
sI18
F0.7777778
sI19
F-2.0943952
ssbsg15
g0
(g16
g2
Ntp3594
Rp3595
(dp3596
g20
I0
sbsba(iclasses
Instance
p3597
(dp3598
g10
(iclasses
FeatureVector
p3599
(dp3600
g13
(dp3601
I1
F118.0
sI2
F125.0
sI3
F9.0
sI6
F0.33333334
sI7
F0.29814234
sI8
F0.88888884
sI9
F0.34426528
sI10
F1.1481482
sI12
F3.1111112
sI13
F0.33333334
sI14
F-3.4444444
sI15
F5.888889
sI16
F-2.4444444
sI17
F3.1111112
sI18
F1.0
sI19
F-2.1756468
ssbsg15
g0
(g16
g2
Ntp3602
Rp3603
(dp3604
g20
I0
sbsba(iclasses
Instance
p3605
(dp3606
g10
(iclasses
FeatureVector
p3607
(dp3608
g13
(dp3609
I1
F204.0
sI2
F156.0
sI3
F9.0
sI6
F0.5000003
sI7
F0.27888626
sI8
F1.9999996
sI9
F0.55777323
sI10
F23.703703
sI11
F17.333334
sI12
F25.444445
sI13
F28.333334
sI14
F-19.11111
sI15
F5.2222223
sI16
F13.888889
sI17
F28.333334
sI18
F0.38903406
sI19
F2.8649306
ssbsg15
g0
(g16
g2
Ntp3610
Rp3611
(dp3612
g20
I1
sbsba(iclasses
Instance
p3613
(dp3614
g10
(iclasses
FeatureVector
p3615
(dp3616
g13
(dp3617
I1
F36.0
sI2
F243.0
sI3
F9.0
sI4
F0.11111111
sI6
F1.888889
sI7
F1.8518513
sI8
F2.0
sI9
F0.7111104
sI10
F13.333333
sI11
F9.888889
sI12
F12.111111
sI13
F18.0
sI14
F-10.333333
sI15
F-3.6666667
sI16
F14.0
sI17
F18.0
sI18
F0.4522286
sI19
F2.3683105
ssbsg15
g0
(g16
g2
Ntp3618
Rp3619
(dp3620
g20
I1
sbsba(iclasses
Instance
p3621
(dp3622
g10
(iclasses
FeatureVector
p3623
(dp3624
g13
(dp3625
I1
F241.0
sI2
F137.0
sI3
F9.0
sI5
F0.11111111
sI6
F4.277778
sI7
F18.685184
sI8
F3.8333333
sI9
F37.500004
sI10
F5.0
sI11
F2.5555556
sI12
F9.0
sI13
F3.4444444
sI14
F-7.3333335
sI15
F12.0
sI16
F-4.6666665
sI17
F9.0
sI18
F0.837478
sI19
F-2.1939669
ssbsg15
g0
(g16
g2
Ntp3626
Rp3627
(dp3628
g20
I0
sbsba(iclasses
Instance
p3629
(dp3630
g10
(iclasses
FeatureVector
p3631
(dp3632
g13
(dp3633
I1
F249.0
sI2
F207.0
sI3
F9.0
sI4
F0.22222222
sI6
F2.7222226
sI7
F0.9289574
sI8
F0.888889
sI9
F0.27216536
sI10
F12.148149
sI11
F9.555555
sI12
F10.333334
sI13
F16.555555
sI14
F-7.7777777
sI15
F-5.4444447
sI16
F13.222222
sI17
F16.555555
sI18
F0.43238926
sI19
F2.2172632
ssbsg15
g0
(g16
g2
Ntp3634
Rp3635
(dp3636
g20
I1
sbsba(iclasses
Instance
p3637
(dp3638
g10
(iclasses
FeatureVector
p3639
(dp3640
g13
(dp3641
I1
F57.0
sI2
F119.0
sI3
F9.0
sI6
F2.2777774
sI7
F2.0266733
sI8
F1.7777777
sI9
F1.721326
sI10
F20.592592
sI11
F12.222222
sI12
F33.666668
sI13
F15.888889
sI14
F-25.11111
sI15
F39.22222
sI16
F-14.111111
sI17
F33.666668
sI18
F0.6356236
sI19
F-2.2681484
ssbsg15
g0
(g16
g2
Ntp3642
Rp3643
(dp3644
g20
I0
sbsba(iclasses
Instance
p3645
(dp3646
g10
(iclasses
FeatureVector
p3647
(dp3648
g13
(dp3649
I1
F135.0
sI2
F211.0
sI3
F9.0
sI6
F1.8888885
sI7
F1.3277655
sI8
F2.1666663
sI9
F1.1498789
sI10
F17.962963
sI11
F14.444445
sI12
F16.333334
sI13
F23.11111
sI14
F-10.555555
sI15
F-4.888889
sI16
F15.444445
sI17
F23.11111
sI18
F0.37555233
sI19
F2.3275452
ssbsg15
g0
(g16
g2
Ntp3650
Rp3651
(dp3652
g20
I1
sbsba(iclasses
Instance
p3653
(dp3654
g10
(iclasses
FeatureVector
p3655
(dp3656
g13
(dp3657
I1
F2.0
sI2
F245.0
sI3
F9.0
sI6
F1.8888888
sI7
F2.162963
sI8
F3.1666667
sI9
F3.2777781
sI10
F6.4074073
sI11
F6.2222223
sI12
F6.0
sI13
F7.0
sI14
F-0.5555556
sI15
F-1.2222222
sI16
F1.7777778
sI17
F7.2222223
sI18
F0.19104938
sI19
F1.7566451
ssbsg15
g0
(g16
g2
Ntp3658
Rp3659
(dp3660
g20
I1
sbsba(iclasses
Instance
p3661
(dp3662
g10
(iclasses
FeatureVector
p3663
(dp3664
g13
(dp3665
I1
F70.0
sI2
F98.0
sI3
F9.0
sI4
F0.11111111
sI6
F1.2222221
sI7
F1.7185185
sI8
F1.7777777
sI9
F1.3185183
sI10
F4.6666665
sI11
F1.2222222
sI12
F9.222222
sI13
F3.5555556
sI14
F-10.333333
sI15
F13.666667
sI16
F-3.3333333
sI17
F9.222222
sI18
F0.89084005
sI19
F-2.3954217
ssbsg15
g0
(g16
g2
Ntp3666
Rp3667
(dp3668
g20
I0
sbsba(iclasses
Instance
p3669
(dp3670
g10
(iclasses
FeatureVector
p3671
(dp3672
g13
(dp3673
I1
F27.0
sI2
F112.0
sI3
F9.0
sI6
F0.22222222
sI7
F0.34426522
sI8
F0.11111113
sI9
F0.27216557
sI10
F0.14814815
sI12
F0.44444445
sI14
F-0.44444445
sI15
F0.8888889
sI16
F-0.44444445
sI17
F0.44444445
sI18
F0.22222222
sI19
F-2.0943952
ssbsg15
g0
(g16
g2
Ntp3674
Rp3675
(dp3676
g20
I0
sbsba(iclasses
Instance
p3677
(dp3678
g10
(iclasses
FeatureVector
p3679
(dp3680
g13
(dp3681
I1
F214.0
sI2
F79.0
sI3
F9.0
sI6
F1.2777778
sI7
F0.86296296
sI8
F1.3333334
sI9
F0.53333336
sI10
F4.851852
sI11
F2.0
sI12
F9.222222
sI13
F3.3333333
sI14
F-8.555555
sI15
F13.111111
sI16
F-4.5555553
sI17
F9.222222
sI18
F0.7916667
sI19
F-2.2889814
ssbsg15
g0
(g16
g2
Ntp3682
Rp3683
(dp3684
g20
I0
sbsba(iclasses
Instance
p3685
(dp3686
g10
(iclasses
FeatureVector
p3687
(dp3688
g13
(dp3689
I1
F103.0
sI2
F216.0
sI3
F9.0
sI6
F1.4999999
sI7
F0.56666666
sI8
F0.8333332
sI9
F1.1888888
sI10
F7.0740743
sI11
F5.111111
sI12
F5.0
sI13
F11.111111
sI14
F-5.888889
sI15
F-6.2222223
sI16
F12.111111
sI17
F11.111111
sI18
F0.59312356
sI19
F2.0792952
ssbsg15
g0
(g16
g2
Ntp3690
Rp3691
(dp3692
g20
I1
sbsba(iclasses
Instance
p3693
(dp3694
g10
(iclasses
FeatureVector
p3695
(dp3696
g13
(dp3697
I1
F137.0
sI2
F105.0
sI3
F9.0
sI5
F0.11111111
sI6
F10.722224
sI7
F16.507421
sI8
F31.222223
sI9
F650.42957
sI10
F42.851852
sI11
F35.77778
sI12
F52.666668
sI13
F40.11111
sI14
F-21.222221
sI15
F29.444445
sI16
F-8.222222
sI17
F52.666668
sI18
F0.37578005
sI19
F-2.380238
ssbsg15
g0
(g16
g2
Ntp3698
Rp3699
(dp3700
g20
I0
sbsba(iclasses
Instance
p3701
(dp3702
g10
(iclasses
FeatureVector
p3703
(dp3704
g13
(dp3705
I1
F139.0
sI2
F128.0
sI3
F9.0
sI6
F2.9444444
sI7
F7.8851867
sI8
F3.166667
sI9
F12.433335
sI10
F5.296296
sI11
F2.4444444
sI12
F9.555555
sI13
F3.8888888
sI14
F-8.555555
sI15
F12.777778
sI16
F-4.2222223
sI17
F9.555555
sI18
F0.8047243
sI19
F-2.3003678
ssbsg15
g0
(g16
g2
Ntp3706
Rp3707
(dp3708
g20
I0
sbsba(iclasses
Instance
p3709
(dp3710
g10
(iclasses
FeatureVector
p3711
(dp3712
g13
(dp3713
I1
F58.0
sI2
F217.0
sI3
F9.0
sI6
F1.3888888
sI7
F1.06284
sI8
F1.6666665
sI9
F1.3498971
sI10
F11.925926
sI11
F9.777778
sI12
F9.0
sI13
F17.0
sI14
F-6.4444447
sI15
F-8.777778
sI16
F15.222222
sI17
F17.0
sI18
F0.48659843
sI19
F2.0066419
ssbsg15
g0
(g16
g2
Ntp3714
Rp3715
(dp3716
g20
I1
sbsba(iclasses
Instance
p3717
(dp3718
g10
(iclasses
FeatureVector
p3719
(dp3720
g13
(dp3721
I1
F41.0
sI2
F77.0
sI3
F9.0
sI4
F0.11111111
sI6
F1.777778
sI7
F0.6518514
sI8
F1.611111
sI9
F1.5740745
sI10
F5.0
sI11
F1.2222222
sI12
F10.222222
sI13
F3.5555556
sI14
F-11.333333
sI15
F15.666667
sI16
F-4.3333335
sI17
F10.222222
sI18
F0.8916084
sI19
F-2.3548815
ssbsg15
g0
(g16
g2
Ntp3722
Rp3723
(dp3724
g20
I0
sbsba(iclasses
Instance
p3725
(dp3726
g10
(iclasses
FeatureVector
p3727
(dp3728
g13
(dp3729
I1
F114.0
sI2
F102.0
sI3
F9.0
sI6
F1.1111112
sI7
F1.2296298
sI8
F1.1666665
sI9
F0.877778
sI10
F4.037037
sI11
F1.0
sI12
F8.444445
sI13
F2.6666667
sI14
F-9.111111
sI15
F13.222222
sI16
F-4.111111
sI17
F8.444445
sI18
F0.8912177
sI19
F-2.3161116
ssbsg15
g0
(g16
g2
Ntp3730
Rp3731
(dp3732
g20
I0
sbsba(iclasses
Instance
p3733
(dp3734
g10
(iclasses
FeatureVector
p3735
(dp3736
g13
(dp3737
I1
F52.0
sI2
F170.0
sI3
F9.0
sI6
F0.55555564
sI7
F0.4554201
sI8
F0.94444436
sI9
F0.38968262
sI10
F25.444445
sI11
F20.11111
sI12
F25.333334
sI13
F30.88889
sI14
F-16.0
sI15
F-0.33333334
sI16
F16.333334
sI17
F30.88889
sI18
F0.34911168
sI19
F2.6040132
ssbsg15
g0
(g16
g2
Ntp3738
Rp3739
(dp3740
g20
I1
sbsba(iclasses
Instance
p3741
(dp3742
g10
(iclasses
FeatureVector
p3743
(dp3744
g13
(dp3745
I1
F82.0
sI2
F138.0
sI3
F9.0
sI6
F0.8888889
sI7
F0.51851845
sI8
F0.88888884
sI9
F0.3851853
sI10
F1.4074074
sI12
F3.7777777
sI13
F0.44444445
sI14
F-4.2222223
sI15
F7.111111
sI16
F-2.8888888
sI17
F3.7777777
sI18
F1.0
sI19
F-2.1739607
ssbsg15
g0
(g16
g2
Ntp3746
Rp3747
(dp3748
g20
I0
sbsba(iclasses
Instance
p3749
(dp3750
g10
(iclasses
FeatureVector
p3751
(dp3752
g13
(dp3753
I1
F67.0
sI2
F136.0
sI3
F9.0
sI6
F6.722223
sI7
F3.7083488
sI8
F2.6666667
sI9
F3.1972213
sI10
F15.518518
sI11
F9.0
sI12
F25.333334
sI13
F12.222222
sI14
F-19.555555
sI15
F29.444445
sI16
F-9.888889
sI17
F25.333334
sI18
F0.66081303
sI19
F-2.3075109
ssbsg15
g0
(g16
g2
Ntp3754
Rp3755
(dp3756
g20
I0
sbsba(iclasses
Instance
p3757
(dp3758
g10
(iclasses
FeatureVector
p3759
(dp3760
g13
(dp3761
I1
F101.0
sI2
F137.0
sI3
F9.0
sI6
F0.44444445
sI7
F0.50184834
sI8
F0.8333333
sI9
F0.8096638
sI10
F1.1481482
sI11
F0.22222222
sI12
F2.6666667
sI13
F0.5555556
sI14
F-2.7777777
sI15
F4.5555553
sI16
F-1.7777778
sI17
F2.6666667
sI18
F0.95
sI19
F-2.2005885
ssbsg15
g0
(g16
g2
Ntp3762
Rp3763
(dp3764
g20
I0
sbsba(iclasses
Instance
p3765
(dp3766
g10
(iclasses
FeatureVector
p3767
(dp3768
g13
(dp3769
I1
F30.0
sI2
F91.0
sI3
F9.0
sI6
F3.3888886
sI7
F6.4629617
sI8
F3.277778
sI9
F9.040739
sI10
F6.259259
sI11
F2.4444444
sI12
F12.111111
sI13
F4.2222223
sI14
F-11.444445
sI15
F17.555555
sI16
F-6.111111
sI17
F12.111111
sI18
F0.82302064
sI19
F-2.2827444
ssbsg15
g0
(g16
g2
Ntp3770
Rp3771
(dp3772
g20
I0
sbsba(iclasses
Instance
p3773
(dp3774
g10
(iclasses
FeatureVector
p3775
(dp3776
g13
(dp3777
I1
F54.0
sI2
F91.0
sI3
F9.0
sI6
F1.4444443
sI7
F1.540741
sI8
F0.8333333
sI9
F0.25555572
sI10
F3.2592592
sI11
F0.5555556
sI12
F8.0
sI13
F1.2222222
sI14
F-8.111111
sI15
F14.222222
sI16
F-6.111111
sI17
F8.0
sI18
F0.94481075
sI19
F-2.186723
ssbsg15
g0
(g16
g2
Ntp3778
Rp3779
(dp3780
g20
I0
sbsba(iclasses
Instance
p3781
(dp3782
g10
(iclasses
FeatureVector
p3783
(dp3784
g13
(dp3785
I1
F122.0
sI2
F123.0
sI3
F9.0
sI6
F0.6111111
sI7
F0.374074
sI8
F0.49999997
sI9
F0.21111104
sI10
F1.1851852
sI12
F3.3333333
sI13
F0.22222222
sI14
F-3.5555556
sI15
F6.4444447
sI16
F-2.8888888
sI17
F3.3333333
sI18
F1.0
sI19
F-2.142674
ssbsg15
g0
(g16
g2
Ntp3786
Rp3787
(dp3788
g20
I0
sbsba(iclasses
Instance
p3789
(dp3790
g10
(iclasses
FeatureVector
p3791
(dp3792
g13
(dp3793
I1
F69.0
sI2
F136.0
sI3
F9.0
sI6
F3.1111114
sI7
F2.8100348
sI8
F2.777778
sI9
F3.1669588
sI10
F19.444445
sI11
F16.88889
sI12
F25.777779
sI13
F15.666667
sI14
F-7.6666665
sI15
F19.0
sI16
F-11.333333
sI17
F26.666666
sI18
F0.42529303
sI19
F-1.6157203
ssbsg15
g0
(g16
g2
Ntp3794
Rp3795
(dp3796
g20
I0
sbsba(iclasses
Instance
p3797
(dp3798
g10
(iclasses
FeatureVector
p3799
(dp3800
g13
(dp3801
I1
F97.0
sI2
F176.0
sI3
F9.0
sI6
F0.77777797
sI7
F0.6554612
sI8
F2.3888893
sI9
F1.3066785
sI10
F22.185184
sI11
F19.0
sI12
F19.777779
sI13
F27.777779
sI14
F-9.555555
sI15
F-7.2222223
sI16
F16.777779
sI17
F27.777779
sI18
F0.31604066
sI19
F2.1798449
ssbsg15
g0
(g16
g2
Ntp3802
Rp3803
(dp3804
g20
I1
sbsba(iclasses
Instance
p3805
(dp3806
g10
(iclasses
FeatureVector
p3807
(dp3808
g13
(dp3809
I1
F94.0
sI2
F144.0
sI3
F9.0
sI6
F0.44444442
sI7
F0.118518494
sI8
F0.49999997
sI9
F0.1666667
sI10
F1.1481482
sI12
F3.4444444
sI14
F-3.4444444
sI15
F6.888889
sI16
F-3.4444444
sI17
F3.4444444
sI18
F1.0
sI19
F-2.0943952
ssbsg15
g0
(g16
g2
Ntp3810
Rp3811
(dp3812
g20
I0
sbsba(iclasses
Instance
p3813
(dp3814
g10
(iclasses
FeatureVector
p3815
(dp3816
g13
(dp3817
I1
F108.0
sI2
F212.0
sI3
F9.0
sI6
F1.9999999
sI7
F1.4222214
sI8
F1.5555555
sI9
F1.985185
sI10
F8.037037
sI11
F6.0
sI12
F6.7777777
sI13
F11.333333
sI14
F-6.111111
sI15
F-3.7777777
sI16
F9.888889
sI17
F11.333333
sI18
F0.51339465
sI19
F2.2426493
ssbsg15
g0
(g16
g2
Ntp3818
Rp3819
(dp3820
g20
I1
sbsba(iclasses
Instance
p3821
(dp3822
g10
(iclasses
FeatureVector
p3823
(dp3824
g13
(dp3825
I1
F117.0
sI2
F246.0
sI3
F9.0
sI6
F2.277778
sI7
F5.6185174
sI8
F2.6666665
sI9
F5.866666
sI10
F15.444445
sI11
F12.0
sI12
F14.333333
sI13
F20.0
sI14
F-10.333333
sI15
F-3.3333333
sI16
F13.666667
sI17
F20.0
sI18
F0.3959547
sI19
F2.395692
ssbsg15
g0
(g16
g2
Ntp3826
Rp3827
(dp3828
g20
I1
sbsba(iclasses
Instance
p3829
(dp3830
g10
(iclasses
FeatureVector
p3831
(dp3832
g13
(dp3833
I1
F107.0
sI2
F226.0
sI3
F9.0
sI6
F1.5555557
sI7
F3.0962965
sI8
F3.5555556
sI9
F2.5629618
sI10
F7.851852
sI11
F5.7777777
sI12
F6.5555553
sI13
F11.222222
sI14
F-6.2222223
sI15
F-3.8888888
sI16
F10.111111
sI17
F11.222222
sI18
F0.5268813
sI19
F2.2593977
ssbsg15
g0
(g16
g2
Ntp3834
Rp3835
(dp3836
g20
I1
sbsba(iclasses
Instance
p3837
(dp3838
g10
(iclasses
FeatureVector
p3839
(dp3840
g13
(dp3841
I1
F103.0
sI2
F130.0
sI3
F9.0
sI6
F0.33333334
sI8
F0.27777776
sI9
F0.38968173
sI10
F0.7777778
sI12
F2.3333335
sI14
F-2.3333333
sI15
F4.6666665
sI16
F-2.3333333
sI17
F2.3333335
sI18
F1.0
sI19
F-2.0943952
ssbsg15
g0
(g16
g2
Ntp3842
Rp3843
(dp3844
g20
I0
sbsba(iclasses
Instance
p3845
(dp3846
g10
(iclasses
FeatureVector
p3847
(dp3848
g13
(dp3849
I1
F58.0
sI2
F124.0
sI3
F9.0
sI4
F0.11111111
sI6
F1.111111
sI7
F1.140741
sI8
F0.5555556
sI9
F0.47407404
sI10
F1.1481482
sI11
F0.11111111
sI12
F2.7777777
sI13
F0.5555556
sI14
F-3.1111112
sI15
F4.888889
sI16
F-1.7777778
sI17
F2.7777777
sI18
F0.984127
sI19
F-2.1812904
ssbsg15
g0
(g16
g2
Ntp3850
Rp3851
(dp3852
g20
I0
sbsba(iclasses
Instance
p3853
(dp3854
g10
(iclasses
FeatureVector
p3855
(dp3856
g13
(dp3857
I1
F230.0
sI2
F180.0
sI3
F9.0
sI4
F0.11111111
sI6
F1.1111112
sI7
F0.5185183
sI8
F1.9444443
sI9
F1.2629623
sI10
F13.851851
sI11
F9.666667
sI12
F13.111111
sI13
F18.777779
sI14
F-12.555555
sI15
F-2.2222223
sI16
F14.777778
sI17
F18.777779
sI18
F0.48688295
sI19
F2.4879174
ssbsg15
g0
(g16
g2
Ntp3858
Rp3859
(dp3860
g20
I1
sbsba(iclasses
Instance
p3861
(dp3862
g10
(iclasses
FeatureVector
p3863
(dp3864
g13
(dp3865
I1
F68.0
sI2
F107.0
sI3
F9.0
sI4
F0.11111111
sI6
F1.111111
sI7
F3.1407404
sI8
F1.111111
sI9
F2.5629632
sI10
F1.7777778
sI11
F0.22222222
sI12
F4.5555553
sI13
F0.5555556
sI14
F-4.6666665
sI15
F8.333333
sI16
F-3.6666667
sI17
F4.5555553
sI18
F0.9814815
sI19
F-2.146531
ssbsg15
g0
(g16
g2
Ntp3866
Rp3867
(dp3868
g20
I0
sbsba(iclasses
Instance
p3869
(dp3870
g10
(iclasses
FeatureVector
p3871
(dp3872
g13
(dp3873
I1
F90.0
sI2
F116.0
sI3
F9.0
sI6
F1.277778
sI7
F0.85418403
sI8
F1.3333336
sI9
F1.1352925
sI10
F18.74074
sI11
F11.777778
sI12
F29.555555
sI13
F14.888889
sI14
F-20.88889
sI15
F32.444443
sI16
F-11.555555
sI17
F29.555555
sI18
F0.5961039
sI19
F-2.2599666
ssbsg15
g0
(g16
g2
Ntp3874
Rp3875
(dp3876
g20
I0
sbsba(iclasses
Instance
p3877
(dp3878
g10
(iclasses
FeatureVector
p3879
(dp3880
g13
(dp3881
I1
F17.0
sI2
F124.0
sI3
F9.0
sI6
F1.1666666
sI7
F0.6111112
sI8
F1.4444445
sI9
F0.7851852
sI10
F1.1481482
sI11
F0.22222222
sI12
F2.6666667
sI13
F0.5555556
sI14
F-2.7777777
sI15
F4.5555553
sI16
F-1.7777778
sI17
F2.6666667
sI18
F0.9537037
sI19
F-2.1692097
ssbsg15
g0
(g16
g2
Ntp3882
Rp3883
(dp3884
g20
I0
sbsba(iclasses
Instance
p3885
(dp3886
g10
(iclasses
FeatureVector
p3887
(dp3888
g13
(dp3889
I1
F42.0
sI2
F200.0
sI3
F9.0
sI6
F0.5555555
sI7
F0.4296296
sI8
F0.44444433
sI9
F0.25185174
sI10
F7.703704
sI11
F5.7777777
sI12
F5.888889
sI13
F11.444445
sI14
F-5.7777777
sI15
F-5.4444447
sI16
F11.222222
sI17
F11.444445
sI18
F0.5153199
sI19
F2.10726
ssbsg15
g0
(g16
g2
Ntp3890
Rp3891
(dp3892
g20
I1
sbsba(iclasses
Instance
p3893
(dp3894
g10
(iclasses
FeatureVector
p3895
(dp3896
g13
(dp3897
I1
F75.0
sI2
F131.0
sI3
F9.0
sI6
F0.22222222
sI7
F0.029629637
sI8
F0.33333334
sI9
F0.04444442
sI10
F0.5185185
sI12
F1.5555556
sI14
F-1.5555556
sI15
F3.1111112
sI16
F-1.5555556
sI17
F1.5555556
sI18
F1.0
sI19
F-2.0943952
ssbsg15
g0
(g16
g2
Ntp3898
Rp3899
(dp3900
g20
I0
sbsba(iclasses
Instance
p3901
(dp3902
g10
(iclasses
FeatureVector
p3903
(dp3904
g13
(dp3905
I1
F145.0
sI2
F152.0
sI3
F9.0
sI6
F0.72222203
sI7
F1.1434193
sI8
F2.7777774
sI9
F1.1088861
sI10
F25.037037
sI11
F19.666668
sI12
F25.777779
sI13
F29.666666
sI14
F-16.11111
sI15
F2.2222223
sI16
F13.888889
sI17
F29.666666
sI18
F0.337989
sI19
F2.7311342
ssbsg15
g0
(g16
g2
Ntp3906
Rp3907
(dp3908
g20
I1
sbsba(iclasses
Instance
p3909
(dp3910
g10
(iclasses
FeatureVector
p3911
(dp3912
g13
(dp3913
I1
F99.0
sI2
F132.0
sI3
F9.0
sI6
F0.44444442
sI7
F0.3851853
sI8
F0.5555555
sI9
F0.7851854
sI10
F0.7407407
sI11
F0.11111111
sI12
F2.0
sI13
F0.11111111
sI14
F-1.8888888
sI15
F3.7777777
sI16
F-1.8888888
sI17
F2.0
sI18
F0.9814815
sI19
F-2.0943952
ssbsg15
g0
(g16
g2
Ntp3914
Rp3915
(dp3916
g20
I0
sbsba(iclasses
Instance
p3917
(dp3918
g10
(iclasses
FeatureVector
p3919
(dp3920
g13
(dp3921
I1
F206.0
sI2
F233.0
sI3
F9.0
sI6
F1.388889
sI7
F1.5408032
sI8
F1.7222227
sI9
F0.82775885
sI10
F26.814816
sI11
F21.88889
sI12
F25.11111
sI13
F33.444447
sI14
F-14.777778
sI15
F-5.111111
sI16
F19.88889
sI17
F33.444447
sI18
F0.34575516
sI19
F2.3893497
ssbsg15
g0
(g16
g2
Ntp3922
Rp3923
(dp3924
g20
I1
sbsba(iclasses
Instance
p3925
(dp3926
g10
(iclasses
FeatureVector
p3927
(dp3928
g13
(dp3929
I1
F23.0
sI2
F219.0
sI3
F9.0
sI6
F1.4999999
sI7
F1.0055401
sI8
F1.7222223
sI9
F0.9289575
sI10
F13.37037
sI11
F10.888889
sI12
F12.0
sI13
F17.222223
sI14
F-7.4444447
sI15
F-4.111111
sI16
F11.555555
sI17
F17.222223
sI18
F0.37191358
sI19
F2.2553325
ssbsg15
g0
(g16
g2
Ntp3930
Rp3931
(dp3932
g20
I1
sbsba(iclasses
Instance
p3933
(dp3934
g10
(iclasses
FeatureVector
p3935
(dp3936
g13
(dp3937
I1
F40.0
sI2
F95.0
sI3
F9.0
sI5
F0.11111111
sI6
F1.2777778
sI7
F1.5740741
sI8
F1.6111112
sI9
F1.2185184
sI10
F4.6296296
sI11
F1.0
sI12
F9.222222
sI13
F3.6666667
sI14
F-10.888889
sI15
F13.777778
sI16
F-2.8888888
sI17
F9.222222
sI18
F0.90709877
sI19
F-2.4294486
ssbsg15
g0
(g16
g2
Ntp3938
Rp3939
(dp3940
g20
I0
sbsba(iclasses
Instance
p3941
(dp3942
g10
(iclasses
FeatureVector
p3943
(dp3944
g13
(dp3945
I1
F37.0
sI2
F103.0
sI3
F9.0
sI6
F1.7777777
sI7
F2.1256804
sI8
F2.9444447
sI9
F3.421609
sI10
F3.851852
sI11
F1.8888888
sI12
F6.2222223
sI13
F3.4444444
sI14
F-5.888889
sI15
F7.111111
sI16
F-1.2222222
sI17
F6.2222223
sI18
F0.79907405
sI19
F-2.497929
ssbsg15
g0
(g16
g2
Ntp3946
Rp3947
(dp3948
g20
I0
sbsba(iclasses
Instance
p3949
(dp3950
g10
(iclasses
FeatureVector
p3951
(dp3952
g13
(dp3953
I1
F14.0
sI2
F90.0
sI3
F9.0
sI4
F0.11111111
sI6
F2.9444447
sI7
F2.435083
sI8
F3.3333333
sI9
F3.211092
sI10
F5.0
sI11
F2.5555556
sI12
F7.3333335
sI13
F5.111111
sI14
F-7.3333335
sI15
F7.0
sI16
F0.33333334
sI17
F7.3333335
sI18
F0.7252886
sI19
F-2.6393893
ssbsg15
g0
(g16
g2
Ntp3954
Rp3955
(dp3956
g20
I0
sbsba(iclasses
Instance
p3957
(dp3958
g10
(iclasses
FeatureVector
p3959
(dp3960
g13
(dp3961
I1
F48.0
sI2
F83.0
sI3
F9.0
sI6
F2.277778
sI7
F4.0185175
sI8
F2.3333333
sI9
F1.6888885
sI10
F6.259259
sI11
F2.2222223
sI12
F11.888889
sI13
F4.666667
sI14
F-12.111111
sI15
F16.88889
sI16
F-4.7777777
sI17
F11.888889
sI18
F0.82735026
sI19
F-2.3450046
ssbsg15
g0
(g16
g2
Ntp3962
Rp3963
(dp3964
g20
I0
sbsba(iclasses
Instance
p3965
(dp3966
g10
(iclasses
FeatureVector
p3967
(dp3968
g13
(dp3969
I1
F55.0
sI2
F80.0
sI3
F9.0
sI4
F0.11111111
sI6
F1.833333
sI7
F4.3
sI8
F1.8333334
sI9
F1.0999995
sI10
F7.0740743
sI11
F2.8888888
sI12
F12.444445
sI13
F5.888889
sI14
F-12.555555
sI15
F16.11111
sI16
F-3.5555556
sI17
F12.444445
sI18
F0.77528197
sI19
F-2.4175172
ssbsg15
g0
(g16
g2
Ntp3970
Rp3971
(dp3972
g20
I0
sbsba(iclasses
Instance
p3973
(dp3974
g10
(iclasses
FeatureVector
p3975
(dp3976
g13
(dp3977
I1
F164.0
sI2
F178.0
sI3
F9.0
sI4
F0.22222222
sI6
F1.3888887
sI7
F0.86296487
sI8
F2.5000002
sI9
F1.4555563
sI10
F23.814816
sI11
F20.222221
sI12
F21.11111
sI13
F30.11111
sI14
F-10.777778
sI15
F-8.111111
sI16
F18.88889
sI17
F30.11111
sI18
F0.32921228
sI19
F2.1903052
ssbsg15
g0
(g16
g2
Ntp3978
Rp3979
(dp3980
g20
I1
sbsba(iclasses
Instance
p3981
(dp3982
g10
(iclasses
FeatureVector
p3983
(dp3984
g13
(dp3985
I1
F138.0
sI2
F203.0
sI3
F9.0
sI6
F1.666667
sI7
F1.6465453
sI8
F2.2777781
sI9
F1.8787308
sI10
F11.259259
sI11
F8.777778
sI12
F8.111112
sI13
F16.88889
sI14
F-7.4444447
sI15
F-9.444445
sI16
F16.88889
sI17
F16.88889
sI18
F0.53894526
sI19
F2.019747
ssbsg15
g0
(g16
g2
Ntp3986
Rp3987
(dp3988
g20
I1
sbsba(iclasses
Instance
p3989
(dp3990
g10
(iclasses
FeatureVector
p3991
(dp3992
g13
(dp3993
I1
F47.0
sI2
F215.0
sI3
F9.0
sI6
F3.1111114
sI7
F1.7847089
sI8
F3.3888893
sI9
F2.4075494
sI10
F17.185184
sI11
F14.444445
sI12
F15.666667
sI13
F21.444445
sI14
F-8.222222
sI15
F-4.5555553
sI16
F12.777778
sI17
F21.444445
sI18
F0.34176603
sI19
F2.2660944
ssbsg15
g0
(g16
g2
Ntp3994
Rp3995
(dp3996
g20
I1
sbsba(iclasses
Instance
p3997
(dp3998
g10
(iclasses
FeatureVector
p3999
(dp4000
g13
(dp4001
I1
F33.0
sI2
F132.0
sI3
F9.0
sI4
F0.11111111
sI6
F1.0555555
sI7
F0.99814653
sI8
F1.7222222
sI9
F0.99814636
sI10
F1.962963
sI11
F0.6666667
sI12
F4.2222223
sI13
F1.0
sI14
F-3.8888888
sI15
F6.7777777
sI16
F-2.8888888
sI17
F4.2222223
sI18
F0.6768879
sI19
F-2.1524317
ssbsg15
g0
(g16
g2
Ntp4002
Rp4003
(dp4004
g20
I0
sbsba(iclasses
Instance
p4005
(dp4006
g10
(iclasses
FeatureVector
p4007
(dp4008
g13
(dp4009
I1
F233.0
sI2
F211.0
sI3
F9.0
sI4
F0.11111111
sI6
F2.6666667
sI7
F6.0888896
sI8
F1.6666666
sI9
F1.7333333
sI10
F15.444445
sI11
F12.444445
sI12
F15.222222
sI13
F18.666668
sI14
F-9.0
sI15
F-0.6666667
sI16
F9.666667
sI17
F18.666668
sI18
F0.33542147
sI19
F2.5549645
ssbsg15
g0
(g16
g2
Ntp4010
Rp4011
(dp4012
g20
I1
sbsbasS'labels'
p4013
(lp4014
I0
aI1
asS'high_idx'
p4015
I19
sS'weights'
p4016
(dp4017
I0
cnumpy.core.multiarray
_reconstruct
p4018
(cnumpy
ndarray
p4019
(I0
tp4020
S'b'
p4021
tp4022
Rp4023
(I1
(I19
tp4024
cnumpy
dtype
p4025
(S'f8'
p4026
I0
I1
tp4027
Rp4028
(I3
S'<'
p4029
NNNI-1
I-1
I0
tp4030
bI00
S'\x00\x00\x00\x00\x00\x00\x18\xc0\x00\x00\x00\x00\x00\x00B\xc0\x00\x00\x00\x00\x00\x08\x80@\x00\x00\x00\x00\x00\x00\x80<\xdb\x12\xc1QUU\xe5\xbfgd\x87\x009.Y@\x01\x82\xfa\x15Y\xe1l@4]\xca\xf1q|Q@\xa1}\xd3^6\xfdw@\xeb\\\x18\xe9%\xc4q\xc0p\x8a\x12\x1d\xc7\xa1w\xc0\x05\xb2C\xa1\xaa\x8ad@H6\xdb\x05\x00\xf8\x83\xc0\xbbKN\x92\xe3\x98q\xc0\xd3\xf1\xc9q\x1c\x07\x95@\xb1a\x02\x8e\xe3\xa0\x90\xc0\x02\xe9b\xd3\xaa\xaab\xc0\xee\xd0D3j\x16R@\xecn\x8d\xbe\x18\x95x\xc0'
p4031
tp4032
bsI1
g4018
(g4019
(I0
tp4033
g4021
tp4034
Rp4035
(I1
(I19
tp4036
g4028
I00
S'\x00\x00\x00\x00\x00\x00\x18@\x00\x00\x00\x00\x00\x00B@\x00\x00\x00\x00\x00\x08\x80\xc0\x00\x00\x00\x00\x00\x00\x80\xbc\xdb\x12\xc1QUU\xe5?gd\x87\x009.Y\xc0\x01\x82\xfa\x15Y\xe1l\xc04]\xca\xf1q|Q\xc0\xa1}\xd3^6\xfdw\xc0\xeb\\\x18\xe9%\xc4q@p\x8a\x12\x1d\xc7\xa1w@\x05\xb2C\xa1\xaa\x8ad\xc0H6\xdb\x05\x00\xf8\x83@\xbbKN\x92\xe3\x98q@\xd3\xf1\xc9q\x1c\x07\x95\xc0\xb1a\x02\x8e\xe3\xa0\x90@\x02\xe9b\xd3\xaa\xaab@\xee\xd0D3j\x16R\xc0\xecn\x8d\xbe\x18\x95x@'
p4037
tp4038
bssb.