ccopy_reg
_reconstructor
p0
(cpegasos
Pegasos
p1
c__builtin__
object
p2
Ntp3
Rp4
(dp5
S'instances'
p6
(lp7
(ics475_types
Instance
p8
(dp9
S'_feature_vector'
p10
(ics475_types
FeatureVector
p11
(dp12
S'features'
p13
(dp14
I1
F1.0
sI2
F22.25
sI3
F1.25
sI8
F3.25
sI9
F1.0
sI13
F1.0
sI14
F280.0
sI17
F1.0
sI18
F1.0
sI20
F1.0
sI21
F1.0
sI23
F1.0
sI24
F1.0
ssbsS'_label'
p15
g0
(ccs475_types
ClassificationLabel
p16
g2
Ntp17
Rp18
(dp19
S'label'
p20
I0
sbsba(ics475_types
Instance
p21
(dp22
g10
(ics475_types
FeatureVector
p23
(dp24
g13
(dp25
I33
F1.0
sI2
F16.25
sI3
F0.835
sI4
F1.0
sI5
F1.0
sI7
F1.0
sI8
F0.085
sI14
F200.0
sI16
F1.0
sI35
F1.0
sI20
F1.0
sI21
F1.0
sI22
F1.0
ssbsg15
g0
(g16
g2
Ntp26
Rp27
(dp28
g20
I0
sbsba(ics475_types
Instance
p29
(dp30
g10
(ics475_types
FeatureVector
p31
(dp32
g13
(dp33
I1
F1.0
sI2
F55.75
sI3
F7.08
sI4
F1.0
sI5
F1.0
sI33
F1.0
sI8
F6.75
sI10
F1.0
sI11
F3.0
sI12
F1.0
sI13
F1.0
sI14
F100.0
sI15
F50.0
sI19
F1.0
sI27
F1.0
ssbsg15
g0
(g16
g2
Ntp34
Rp35
(dp36
g20
I0
sbsba(ics475_types
Instance
p37
(dp38
g10
(ics475_types
FeatureVector
p39
(dp40
g13
(dp41
I2
F44.83
sI3
F7.0
sI6
F1.0
sI7
F1.0
sI8
F1.625
sI9
F1.0
sI13
F1.0
sI14
F160.0
sI15
F2.0
sI16
F1.0
sI17
F1.0
sI18
F1.0
sI20
F1.0
sI21
F1.0
ssbsg15
g0
(g16
g2
Ntp42
Rp43
(dp44
g20
I0
sbsba(ics475_types
Instance
p45
(dp46
g10
(ics475_types
FeatureVector
p47
(dp48
g13
(dp49
I1
F1.0
sI2
F24.08
sI3
F0.5
sI4
F1.0
sI5
F1.0
sI33
F1.0
sI8
F1.25
sI10
F1.0
sI11
F1.0
sI13
F1.0
sI15
F678.0
sI21
F1.0
sI27
F1.0
sI30
F1.0
ssbsg15
g0
(g16
g2
Ntp50
Rp51
(dp52
g20
I1
sbsba(ics475_types
Instance
p53
(dp54
g10
(ics475_types
FeatureVector
p55
(dp56
g13
(dp57
I33
F1.0
sI2
F40.58
sI3
F5.0
sI4
F1.0
sI5
F1.0
sI6
F1.0
sI7
F1.0
sI8
F5.0
sI10
F1.0
sI11
F7.0
sI13
F1.0
sI15
F3065.0
sI16
F1.0
sI21
F1.0
ssbsg15
g0
(g16
g2
Ntp58
Rp59
(dp60
g20
I1
sbsba(ics475_types
Instance
p61
(dp62
g10
(ics475_types
FeatureVector
p63
(dp64
g13
(dp65
I33
F1.0
sI2
F25.0
sI3
F12.5
sI4
F1.0
sI5
F1.0
sI7
F1.0
sI8
F3.0
sI12
F1.0
sI14
F20.0
sI16
F1.0
sI20
F1.0
sI22
F1.0
sI37
F1.0
ssbsg15
g0
(g16
g2
Ntp66
Rp67
(dp68
g20
I1
sbsba(ics475_types
Instance
p69
(dp70
g10
(ics475_types
FeatureVector
p71
(dp72
g13
(dp73
I2
F29.83
sI3
F1.25
sI7
F1.0
sI8
F0.25
sI9
F1.0
sI13
F1.0
sI14
F224.0
sI16
F1.0
sI17
F1.0
sI18
F1.0
sI19
F1.0
sI20
F1.0
sI21
F1.0
ssbsg15
g0
(g16
g2
Ntp74
Rp75
(dp76
g20
I0
sbsba(ics475_types
Instance
p77
(dp78
g10
(ics475_types
FeatureVector
p79
(dp80
g13
(dp81
I2
F23.58
sI3
F1.79
sI4
F1.0
sI5
F1.0
sI6
F1.0
sI7
F1.0
sI8
F0.54
sI9
F1.0
sI12
F1.0
sI13
F1.0
sI14
F136.0
sI15
F1.0
sI16
F1.0
sI20
F1.0
ssbsg15
g0
(g16
g2
Ntp82
Rp83
(dp84
g20
I0
sbsba(ics475_types
Instance
p85
(dp86
g10
(ics475_types
FeatureVector
p87
(dp88
g13
(dp89
I33
F1.0
sI2
F27.58
sI3
F2.04
sI37
F1.0
sI7
F1.0
sI8
F2.0
sI10
F1.0
sI11
F3.0
sI12
F1.0
sI13
F1.0
sI14
F370.0
sI15
F560.0
sI16
F1.0
sI17
F1.0
sI18
F1.0
ssbsg15
g0
(g16
g2
Ntp90
Rp91
(dp92
g20
I1
sbsba(ics475_types
Instance
p93
(dp94
g10
(ics475_types
FeatureVector
p95
(dp96
g13
(dp97
I33
F1.0
sI2
F18.42
sI3
F10.415
sI37
F1.0
sI7
F1.0
sI8
F0.125
sI13
F1.0
sI14
F120.0
sI15
F375.0
sI16
F1.0
sI17
F1.0
sI18
F1.0
sI20
F1.0
sI21
F1.0
ssbsg15
g0
(g16
g2
Ntp98
Rp99
(dp100
g20
I0
sbsba(ics475_types
Instance
p101
(dp102
g10
(ics475_types
FeatureVector
p103
(dp104
g13
(dp105
I33
F1.0
sI2
F32.08
sI3
F4.0
sI4
F1.0
sI5
F1.0
sI7
F1.0
sI8
F2.5
sI12
F1.0
sI13
F1.0
sI14
F360.0
sI16
F1.0
sI35
F1.0
sI20
F1.0
ssbsg15
g0
(g16
g2
Ntp106
Rp107
(dp108
g20
I1
sbsba(ics475_types
Instance
p109
(dp110
g10
(ics475_types
FeatureVector
p111
(dp112
g13
(dp113
I33
F1.0
sI2
F44.25
sI3
F11.0
sI7
F1.0
sI8
F1.5
sI34
F1.0
sI16
F1.0
sI17
F1.0
sI18
F1.0
sI20
F1.0
sI21
F1.0
sI22
F1.0
ssbsg15
g0
(g16
g2
Ntp114
Rp115
(dp116
g20
I0
sbsba(ics475_types
Instance
p117
(dp118
g10
(ics475_types
FeatureVector
p119
(dp120
g13
(dp121
I2
F24.5
sI3
F13.335
sI37
F1.0
sI7
F1.0
sI8
F0.04
sI9
F1.0
sI12
F1.0
sI13
F1.0
sI14
F120.0
sI15
F475.0
sI16
F1.0
sI17
F1.0
sI18
F1.0
sI20
F1.0
ssbsg15
g0
(g16
g2
Ntp122
Rp123
(dp124
g20
I0
sbsba(ics475_types
Instance
p125
(dp126
g10
(ics475_types
FeatureVector
p127
(dp128
g13
(dp129
I33
F1.0
sI2
F42.0
sI3
F9.79
sI4
F1.0
sI5
F1.0
sI39
F1.0
sI8
F7.96
sI10
F1.0
sI11
F8.0
sI13
F1.0
sI16
F1.0
sI21
F1.0
sI27
F1.0
ssbsg15
g0
(g16
g2
Ntp130
Rp131
(dp132
g20
I1
sbsba(ics475_types
Instance
p133
(dp134
g10
(ics475_types
FeatureVector
p135
(dp136
g13
(dp137
I32
F1.0
sI33
F1.0
sI2
F36.25
sI3
F5.0
sI4
F1.0
sI5
F1.0
sI6
F1.0
sI8
F2.5
sI10
F1.0
sI11
F6.0
sI13
F1.0
sI15
F367.0
sI16
F1.0
sI21
F1.0
ssbsg15
g0
(g16
g2
Ntp138
Rp139
(dp140
g20
I1
sbsba(ics475_types
Instance
p141
(dp142
g10
(ics475_types
FeatureVector
p143
(dp144
g13
(dp145
I33
F1.0
sI2
F23.17
sI4
F1.0
sI5
F1.0
sI7
F1.0
sI8
F0.085
sI13
F1.0
sI16
F1.0
sI20
F1.0
sI21
F1.0
sI36
F1.0
ssbsg15
g0
(g16
g2
Ntp146
Rp147
(dp148
g20
I1
sbsba(ics475_types
Instance
p149
(dp150
g10
(ics475_types
FeatureVector
p151
(dp152
g13
(dp153
I2
F34.17
sI3
F5.25
sI4
F1.0
sI5
F1.0
sI7
F1.0
sI8
F0.085
sI9
F1.0
sI12
F1.0
sI13
F1.0
sI14
F290.0
sI15
F6.0
sI16
F1.0
sI20
F1.0
sI31
F1.0
ssbsg15
g0
(g16
g2
Ntp154
Rp155
(dp156
g20
I1
sbsba(ics475_types
Instance
p157
(dp158
g10
(ics475_types
FeatureVector
p159
(dp160
g13
(dp161
I33
F1.0
sI2
F26.67
sI3
F2.71
sI36
F1.0
sI7
F1.0
sI8
F5.25
sI10
F1.0
sI11
F1.0
sI13
F1.0
sI14
F211.0
sI16
F1.0
sI17
F1.0
sI18
F1.0
sI21
F1.0
ssbsg15
g0
(g16
g2
Ntp162
Rp163
(dp164
g20
I1
sbsba(ics475_types
Instance
p165
(dp166
g10
(ics475_types
FeatureVector
p167
(dp168
g13
(dp169
I2
F25.42
sI3
F0.54
sI4
F1.0
sI5
F1.0
sI7
F1.0
sI8
F0.165
sI9
F1.0
sI10
F1.0
sI11
F1.0
sI13
F1.0
sI14
F272.0
sI15
F444.0
sI16
F1.0
sI21
F1.0
sI31
F1.0
ssbsg15
g0
(g16
g2
Ntp170
Rp171
(dp172
g20
I0
sbsba(ics475_types
Instance
p173
(dp174
g10
(ics475_types
FeatureVector
p175
(dp176
g13
(dp177
I1
F1.0
sI2
F19.58
sI3
F0.665
sI6
F1.0
sI7
F1.0
sI8
F1.0
sI9
F1.0
sI10
F1.0
sI11
F1.0
sI13
F1.0
sI14
F2000.0
sI15
F2.0
sI17
F1.0
sI18
F1.0
sI21
F1.0
ssbsg15
g0
(g16
g2
Ntp178
Rp179
(dp180
g20
I0
sbsba(ics475_types
Instance
p181
(dp182
g10
(ics475_types
FeatureVector
p183
(dp184
g13
(dp185
I33
F1.0
sI2
F39.0
sI3
F5.0
sI4
F1.0
sI5
F1.0
sI7
F1.0
sI8
F3.5
sI10
F1.0
sI11
F10.0
sI12
F1.0
sI13
F1.0
sI16
F1.0
sI36
F1.0
ssbsg15
g0
(g16
g2
Ntp186
Rp187
(dp188
g20
I1
sbsba(ics475_types
Instance
p189
(dp190
g10
(ics475_types
FeatureVector
p191
(dp192
g13
(dp193
I1
F1.0
sI2
F30.67
sI3
F12.0
sI4
F1.0
sI5
F1.0
sI6
F1.0
sI7
F1.0
sI8
F2.0
sI10
F1.0
sI11
F1.0
sI13
F1.0
sI14
F220.0
sI15
F19.0
sI21
F1.0
sI33
F1.0
ssbsg15
g0
(g16
g2
Ntp194
Rp195
(dp196
g20
I1
sbsba(ics475_types
Instance
p197
(dp198
g10
(ics475_types
FeatureVector
p199
(dp200
g13
(dp201
I1
F1.0
sI2
F19.17
sI3
F5.415
sI4
F1.0
sI5
F1.0
sI8
F0.29
sI9
F1.0
sI13
F1.0
sI14
F80.0
sI15
F484.0
sI20
F1.0
sI21
F1.0
sI25
F1.0
sI27
F1.0
ssbsg15
g0
(g16
g2
Ntp202
Rp203
(dp204
g20
I0
sbsba(ics475_types
Instance
p205
(dp206
g10
(ics475_types
FeatureVector
p207
(dp208
g13
(dp209
I1
F1.0
sI2
F49.83
sI3
F13.585
sI4
F1.0
sI5
F1.0
sI33
F1.0
sI8
F8.5
sI12
F1.0
sI13
F1.0
sI19
F1.0
sI20
F1.0
sI27
F1.0
ssbsg15
g0
(g16
g2
Ntp210
Rp211
(dp212
g20
I1
sbsba(ics475_types
Instance
p213
(dp214
g10
(ics475_types
FeatureVector
p215
(dp216
g13
(dp217
I1
F1.0
sI2
F18.83
sI3
F9.5
sI4
F1.0
sI5
F1.0
sI7
F1.0
sI8
F1.625
sI10
F1.0
sI11
F6.0
sI12
F1.0
sI13
F1.0
sI14
F40.0
sI15
F600.0
sI33
F1.0
sI31
F1.0
ssbsg15
g0
(g16
g2
Ntp218
Rp219
(dp220
g20
I1
sbsba(ics475_types
Instance
p221
(dp222
g10
(ics475_types
FeatureVector
p223
(dp224
g13
(dp225
I2
F38.42
sI3
F0.705
sI4
F1.0
sI5
F1.0
sI6
F1.0
sI7
F1.0
sI8
F0.375
sI9
F1.0
sI10
F1.0
sI11
F2.0
sI13
F1.0
sI14
F225.0
sI15
F500.0
sI16
F1.0
sI21
F1.0
ssbsg15
g0
(g16
g2
Ntp226
Rp227
(dp228
g20
I0
sbsba(ics475_types
Instance
p229
(dp230
g10
(ics475_types
FeatureVector
p231
(dp232
g13
(dp233
I33
F1.0
sI2
F31.92
sI3
F4.46
sI4
F1.0
sI5
F1.0
sI8
F6.04
sI10
F1.0
sI11
F3.0
sI13
F1.0
sI14
F311.0
sI15
F300.0
sI16
F1.0
sI21
F1.0
sI36
F1.0
sI27
F1.0
ssbsg15
g0
(g16
g2
Ntp234
Rp235
(dp236
g20
I1
sbsba(ics475_types
Instance
p237
(dp238
g10
(ics475_types
FeatureVector
p239
(dp240
g13
(dp241
I1
F1.0
sI2
F22.5
sI3
F8.46
sI7
F1.0
sI8
F2.46
sI9
F1.0
sI39
F1.0
sI13
F1.0
sI14
F164.0
sI17
F1.0
sI18
F1.0
sI20
F1.0
sI21
F1.0
ssbsg15
g0
(g16
g2
Ntp242
Rp243
(dp244
g20
I1
sbsba(ics475_types
Instance
p245
(dp246
g10
(ics475_types
FeatureVector
p247
(dp248
g13
(dp249
I1
F1.0
sI2
F17.58
sI3
F9.0
sI4
F1.0
sI5
F1.0
sI7
F1.0
sI8
F1.375
sI12
F1.0
sI13
F1.0
sI20
F1.0
sI33
F1.0
sI37
F1.0
ssbsg15
g0
(g16
g2
Ntp250
Rp251
(dp252
g20
I1
sbsba(ics475_types
Instance
p253
(dp254
g10
(ics475_types
FeatureVector
p255
(dp256
g13
(dp257
I33
F1.0
sI2
F57.83
sI3
F7.04
sI4
F1.0
sI5
F1.0
sI7
F1.0
sI8
F14.0
sI10
F1.0
sI11
F6.0
sI12
F1.0
sI13
F1.0
sI14
F360.0
sI15
F1332.0
sI16
F1.0
sI35
F1.0
ssbsg15
g0
(g16
g2
Ntp258
Rp259
(dp260
g20
I1
sbsba(ics475_types
Instance
p261
(dp262
g10
(ics475_types
FeatureVector
p263
(dp264
g13
(dp265
I1
F1.0
sI2
F25.17
sI3
F2.875
sI4
F1.0
sI5
F1.0
sI33
F1.0
sI8
F0.875
sI39
F1.0
sI13
F1.0
sI14
F360.0
sI20
F1.0
sI21
F1.0
sI27
F1.0
ssbsg15
g0
(g16
g2
Ntp266
Rp267
(dp268
g20
I1
sbsba(ics475_types
Instance
p269
(dp270
g10
(ics475_types
FeatureVector
p271
(dp272
g13
(dp273
I2
F36.08
sI3
F2.54
sI4
F1.0
sI5
F1.0
sI9
F1.0
sI13
F1.0
sI15
F1000.0
sI16
F1.0
sI20
F1.0
sI21
F1.0
sI23
F1.0
sI24
F1.0
ssbsg15
g0
(g16
g2
Ntp274
Rp275
(dp276
g20
I0
sbsba(ics475_types
Instance
p277
(dp278
g10
(ics475_types
FeatureVector
p279
(dp280
g13
(dp281
I2
F26.25
sI3
F1.54
sI4
F1.0
sI5
F1.0
sI7
F1.0
sI8
F0.125
sI9
F1.0
sI13
F1.0
sI14
F100.0
sI16
F1.0
sI20
F1.0
sI21
F1.0
sI31
F1.0
ssbsg15
g0
(g16
g2
Ntp282
Rp283
(dp284
g20
I0
sbsba(ics475_types
Instance
p285
(dp286
g10
(ics475_types
FeatureVector
p287
(dp288
g13
(dp289
I1
F1.0
sI2
F20.83
sI3
F3.0
sI4
F1.0
sI5
F1.0
sI7
F1.0
sI8
F0.04
sI13
F1.0
sI14
F100.0
sI20
F1.0
sI21
F1.0
sI33
F1.0
sI37
F1.0
ssbsg15
g0
(g16
g2
Ntp290
Rp291
(dp292
g20
I1
sbsba(ics475_types
Instance
p293
(dp294
g10
(ics475_types
FeatureVector
p295
(dp296
g13
(dp297
I33
F1.0
sI2
F48.5
sI3
F4.25
sI4
F1.0
sI5
F1.0
sI7
F1.0
sI8
F0.125
sI12
F1.0
sI13
F1.0
sI14
F225.0
sI16
F1.0
sI35
F1.0
sI20
F1.0
ssbsg15
g0
(g16
g2
Ntp298
Rp299
(dp300
g20
I1
sbsba(ics475_types
Instance
p301
(dp302
g10
(ics475_types
FeatureVector
p303
(dp304
g13
(dp305
I1
F1.0
sI2
F32.17
sI3
F1.46
sI4
F1.0
sI5
F1.0
sI7
F1.0
sI8
F1.085
sI10
F1.0
sI11
F16.0
sI13
F1.0
sI14
F120.0
sI15
F2079.0
sI21
F1.0
sI33
F1.0
sI31
F1.0
ssbsg15
g0
(g16
g2
Ntp306
Rp307
(dp308
g20
I1
sbsba(ics475_types
Instance
p309
(dp310
g10
(ics475_types
FeatureVector
p311
(dp312
g13
(dp313
I1
F1.0
sI2
F25.08
sI3
F2.54
sI33
F1.0
sI7
F1.0
sI8
F0.25
sI12
F1.0
sI13
F1.0
sI14
F370.0
sI17
F1.0
sI18
F1.0
sI20
F1.0
sI37
F1.0
ssbsg15
g0
(g16
g2
Ntp314
Rp315
(dp316
g20
I1
sbsba(ics475_types
Instance
p317
(dp318
g10
(ics475_types
FeatureVector
p319
(dp320
g13
(dp321
I33
F1.0
sI2
F33.5
sI3
F1.75
sI4
F1.0
sI5
F1.0
sI39
F1.0
sI8
F4.5
sI10
F1.0
sI11
F4.0
sI12
F1.0
sI13
F1.0
sI14
F253.0
sI15
F857.0
sI16
F1.0
sI27
F1.0
ssbsg15
g0
(g16
g2
Ntp322
Rp323
(dp324
g20
I1
sbsba(ics475_types
Instance
p325
(dp326
g10
(ics475_types
FeatureVector
p327
(dp328
g13
(dp329
I33
F1.0
sI2
F19.17
sI3
F9.5
sI4
F1.0
sI5
F1.0
sI7
F1.0
sI8
F1.5
sI13
F1.0
sI14
F120.0
sI15
F2206.0
sI16
F1.0
sI20
F1.0
sI21
F1.0
sI31
F1.0
ssbsg15
g0
(g16
g2
Ntp330
Rp331
(dp332
g20
I1
sbsba(ics475_types
Instance
p333
(dp334
g10
(ics475_types
FeatureVector
p335
(dp336
g13
(dp337
I33
F1.0
sI2
F26.67
sI3
F1.75
sI6
F1.0
sI7
F1.0
sI8
F1.0
sI10
F1.0
sI11
F5.0
sI12
F1.0
sI13
F1.0
sI14
F160.0
sI15
F5777.0
sI16
F1.0
sI17
F1.0
sI18
F1.0
ssbsg15
g0
(g16
g2
Ntp338
Rp339
(dp340
g20
I1
sbsba(ics475_types
Instance
p341
(dp342
g10
(ics475_types
FeatureVector
p343
(dp344
g13
(dp345
I33
F1.0
sI2
F23.0
sI3
F0.75
sI4
F1.0
sI5
F1.0
sI7
F1.0
sI8
F0.5
sI12
F1.0
sI14
F320.0
sI16
F1.0
sI35
F1.0
sI20
F1.0
sI22
F1.0
ssbsg15
g0
(g16
g2
Ntp346
Rp347
(dp348
g20
I0
sbsba(ics475_types
Instance
p349
(dp350
g10
(ics475_types
FeatureVector
p351
(dp352
g13
(dp353
I33
F1.0
sI2
F57.42
sI3
F8.5
sI4
F1.0
sI5
F1.0
sI8
F7.0
sI41
F1.0
sI10
F1.0
sI11
F3.0
sI13
F1.0
sI16
F1.0
sI21
F1.0
sI27
F1.0
ssbsg15
g0
(g16
g2
Ntp354
Rp355
(dp356
g20
I1
sbsba(ics475_types
Instance
p357
(dp358
g10
(ics475_types
FeatureVector
p359
(dp360
g13
(dp361
I33
F1.0
sI2
F20.67
sI3
F5.29
sI4
F1.0
sI5
F1.0
sI7
F1.0
sI8
F0.375
sI10
F1.0
sI11
F1.0
sI13
F1.0
sI14
F160.0
sI16
F1.0
sI21
F1.0
sI30
F1.0
ssbsg15
g0
(g16
g2
Ntp362
Rp363
(dp364
g20
I0
sbsba(ics475_types
Instance
p365
(dp366
g10
(ics475_types
FeatureVector
p367
(dp368
g13
(dp369
I33
F1.0
sI2
F21.83
sI3
F11.0
sI4
F1.0
sI5
F1.0
sI7
F1.0
sI8
F0.29
sI10
F1.0
sI11
F6.0
sI13
F1.0
sI14
F121.0
sI16
F1.0
sI21
F1.0
sI39
F1.0
ssbsg15
g0
(g16
g2
Ntp370
Rp371
(dp372
g20
I1
sbsba(ics475_types
Instance
p373
(dp374
g10
(ics475_types
FeatureVector
p375
(dp376
g13
(dp377
I2
F15.17
sI3
F7.0
sI4
F1.0
sI5
F1.0
sI7
F1.0
sI8
F1.0
sI9
F1.0
sI13
F1.0
sI14
F600.0
sI16
F1.0
sI20
F1.0
sI21
F1.0
sI41
F1.0
ssbsg15
g0
(g16
g2
Ntp378
Rp379
(dp380
g20
I0
sbsba(ics475_types
Instance
p381
(dp382
g10
(ics475_types
FeatureVector
p383
(dp384
g13
(dp385
I2
F22.25
sI3
F9.0
sI4
F1.0
sI5
F1.0
sI7
F1.0
sI8
F0.085
sI9
F1.0
sI13
F1.0
sI16
F1.0
sI20
F1.0
sI21
F1.0
sI37
F1.0
ssbsg15
g0
(g16
g2
Ntp386
Rp387
(dp388
g20
I0
sbsba(ics475_types
Instance
p389
(dp390
g10
(ics475_types
FeatureVector
p391
(dp392
g13
(dp393
I33
F1.0
sI2
F25.17
sI3
F6.0
sI4
F1.0
sI5
F1.0
sI6
F1.0
sI7
F1.0
sI8
F1.0
sI10
F1.0
sI11
F3.0
sI13
F1.0
sI16
F1.0
sI21
F1.0
ssbsg15
g0
(g16
g2
Ntp394
Rp395
(dp396
g20
I1
sbsba(ics475_types
Instance
p397
(dp398
g10
(ics475_types
FeatureVector
p399
(dp400
g13
(dp401
I2
F38.92
sI3
F1.75
sI4
F1.0
sI5
F1.0
sI7
F1.0
sI8
F0.5
sI9
F1.0
sI12
F1.0
sI13
F1.0
sI14
F300.0
sI15
F2.0
sI16
F1.0
sI19
F1.0
sI20
F1.0
ssbsg15
g0
(g16
g2
Ntp402
Rp403
(dp404
g20
I0
sbsba(ics475_types
Instance
p405
(dp406
g10
(ics475_types
FeatureVector
p407
(dp408
g13
(dp409
I2
F20.08
sI3
F0.25
sI4
F1.0
sI5
F1.0
sI7
F1.0
sI8
F0.125
sI9
F1.0
sI13
F1.0
sI14
F200.0
sI16
F1.0
sI20
F1.0
sI21
F1.0
sI30
F1.0
ssbsg15
g0
(g16
g2
Ntp410
Rp411
(dp412
g20
I0
sbsba(ics475_types
Instance
p413
(dp414
g10
(ics475_types
FeatureVector
p415
(dp416
g13
(dp417
I2
F22.08
sI3
F11.46
sI4
F1.0
sI5
F1.0
sI7
F1.0
sI8
F1.585
sI9
F1.0
sI12
F1.0
sI13
F1.0
sI14
F100.0
sI15
F1212.0
sI16
F1.0
sI19
F1.0
sI20
F1.0
ssbsg15
g0
(g16
g2
Ntp418
Rp419
(dp420
g20
I0
sbsba(ics475_types
Instance
p421
(dp422
g10
(ics475_types
FeatureVector
p423
(dp424
g13
(dp425
I33
F1.0
sI2
F42.0
sI3
F0.205
sI4
F1.0
sI5
F1.0
sI8
F5.125
sI13
F1.0
sI14
F400.0
sI16
F1.0
sI20
F1.0
sI21
F1.0
sI25
F1.0
sI27
F1.0
ssbsg15
g0
(g16
g2
Ntp426
Rp427
(dp428
g20
I1
sbsba(ics475_types
Instance
p429
(dp430
g10
(ics475_types
FeatureVector
p431
(dp432
g13
(dp433
I2
F26.83
sI3
F0.54
sI4
F1.0
sI5
F1.0
sI9
F1.0
sI13
F1.0
sI14
F100.0
sI16
F1.0
sI19
F1.0
sI20
F1.0
sI21
F1.0
sI24
F1.0
ssbsg15
g0
(g16
g2
Ntp434
Rp435
(dp436
g20
I0
sbsba(ics475_types
Instance
p437
(dp438
g10
(ics475_types
FeatureVector
p439
(dp440
g13
(dp441
I32
F1.0
sI2
F27.42
sI3
F12.5
sI4
F1.0
sI5
F1.0
sI8
F0.25
sI9
F1.0
sI12
F1.0
sI13
F1.0
sI14
F720.0
sI16
F1.0
sI20
F1.0
sI37
F1.0
ssbsg15
g0
(g16
g2
Ntp442
Rp443
(dp444
g20
I0
sbsba(ics475_types
Instance
p445
(dp446
g10
(ics475_types
FeatureVector
p447
(dp448
g13
(dp449
I33
F1.0
sI2
F41.58
sI3
F1.75
sI4
F1.0
sI5
F1.0
sI7
F1.0
sI8
F0.21
sI13
F1.0
sI14
F160.0
sI16
F1.0
sI19
F1.0
sI20
F1.0
sI21
F1.0
ssbsg15
g0
(g16
g2
Ntp450
Rp451
(dp452
g20
I0
sbsba(ics475_types
Instance
p453
(dp454
g10
(ics475_types
FeatureVector
p455
(dp456
g13
(dp457
I1
F1.0
sI2
F39.08
sI3
F4.0
sI4
F1.0
sI5
F1.0
sI6
F1.0
sI7
F1.0
sI8
F3.0
sI9
F1.0
sI13
F1.0
sI14
F480.0
sI20
F1.0
sI21
F1.0
ssbsg15
g0
(g16
g2
Ntp458
Rp459
(dp460
g20
I0
sbsba(ics475_types
Instance
p461
(dp462
g10
(ics475_types
FeatureVector
p463
(dp464
g13
(dp465
I1
F1.0
sI2
F33.25
sI3
F2.5
sI6
F1.0
sI7
F1.0
sI8
F2.5
sI9
F1.0
sI12
F1.0
sI13
F1.0
sI15
F2.0
sI17
F1.0
sI18
F1.0
sI20
F1.0
ssbsg15
g0
(g16
g2
Ntp466
Rp467
(dp468
g20
I0
sbsba(ics475_types
Instance
p469
(dp470
g10
(ics475_types
FeatureVector
p471
(dp472
g13
(dp473
I33
F1.0
sI2
F32.0
sI3
F1.75
sI8
F0.04
sI41
F1.0
sI12
F1.0
sI13
F1.0
sI14
F393.0
sI16
F1.0
sI17
F1.0
sI18
F1.0
sI20
F1.0
sI27
F1.0
ssbsg15
g0
(g16
g2
Ntp474
Rp475
(dp476
g20
I1
sbsba(ics475_types
Instance
p477
(dp478
g10
(ics475_types
FeatureVector
p479
(dp480
g13
(dp481
I1
F1.0
sI2
F36.75
sI3
F4.71
sI4
F1.0
sI5
F1.0
sI9
F1.0
sI13
F1.0
sI14
F160.0
sI20
F1.0
sI21
F1.0
sI23
F1.0
sI24
F1.0
ssbsg15
g0
(g16
g2
Ntp482
Rp483
(dp484
g20
I0
sbsba(ics475_types
Instance
p485
(dp486
g10
(ics475_types
FeatureVector
p487
(dp488
g13
(dp489
I1
F1.0
sI2
F35.42
sI3
F12.0
sI4
F1.0
sI5
F1.0
sI33
F1.0
sI8
F14.0
sI10
F1.0
sI11
F8.0
sI13
F1.0
sI15
F6590.0
sI21
F1.0
sI27
F1.0
sI30
F1.0
ssbsg15
g0
(g16
g2
Ntp490
Rp491
(dp492
g20
I1
sbsba(ics475_types
Instance
p493
(dp494
g10
(ics475_types
FeatureVector
p495
(dp496
g13
(dp497
I1
F1.0
sI2
F26.17
sI3
F2.0
sI4
F1.0
sI5
F1.0
sI9
F1.0
sI12
F1.0
sI13
F1.0
sI14
F276.0
sI15
F1.0
sI20
F1.0
sI28
F1.0
sI29
F1.0
ssbsg15
g0
(g16
g2
Ntp498
Rp499
(dp500
g20
I0
sbsba(ics475_types
Instance
p501
(dp502
g10
(ics475_types
FeatureVector
p503
(dp504
g13
(dp505
I2
F25.83
sI3
F12.835
sI4
F1.0
sI5
F1.0
sI7
F1.0
sI8
F0.5
sI9
F1.0
sI13
F1.0
sI15
F2.0
sI16
F1.0
sI20
F1.0
sI21
F1.0
sI36
F1.0
ssbsg15
g0
(g16
g2
Ntp506
Rp507
(dp508
g20
I0
sbsba(ics475_types
Instance
p509
(dp510
g10
(ics475_types
FeatureVector
p511
(dp512
g13
(dp513
I2
F22.58
sI3
F1.5
sI37
F1.0
sI7
F1.0
sI8
F0.54
sI9
F1.0
sI12
F1.0
sI13
F1.0
sI14
F120.0
sI15
F67.0
sI16
F1.0
sI17
F1.0
sI18
F1.0
sI20
F1.0
ssbsg15
g0
(g16
g2
Ntp514
Rp515
(dp516
g20
I0
sbsba(ics475_types
Instance
p517
(dp518
g10
(ics475_types
FeatureVector
p519
(dp520
g13
(dp521
I33
F1.0
sI2
F22.67
sI3
F10.5
sI4
F1.0
sI5
F1.0
sI8
F1.335
sI13
F1.0
sI14
F100.0
sI16
F1.0
sI20
F1.0
sI21
F1.0
sI27
F1.0
sI30
F1.0
ssbsg15
g0
(g16
g2
Ntp522
Rp523
(dp524
g20
I1
sbsba(ics475_types
Instance
p525
(dp526
g10
(ics475_types
FeatureVector
p527
(dp528
g13
(dp529
I32
F1.0
sI2
F34.17
sI3
F2.75
sI4
F1.0
sI5
F1.0
sI8
F2.5
sI9
F1.0
sI12
F1.0
sI13
F1.0
sI14
F232.0
sI15
F200.0
sI16
F1.0
sI20
F1.0
sI25
F1.0
ssbsg15
g0
(g16
g2
Ntp530
Rp531
(dp532
g20
I0
sbsba(ics475_types
Instance
p533
(dp534
g10
(ics475_types
FeatureVector
p535
(dp536
g13
(dp537
I1
F1.0
sI2
F28.08
sI3
F15.0
sI33
F1.0
sI41
F1.0
sI42
F1.0
sI13
F1.0
sI15
F13212.0
sI17
F1.0
sI18
F1.0
sI20
F1.0
sI21
F1.0
ssbsg15
g0
(g16
g2
Ntp538
Rp539
(dp540
g20
I1
sbsba(ics475_types
Instance
p541
(dp542
g10
(ics475_types
FeatureVector
p543
(dp544
g13
(dp545
I33
F1.0
sI2
F25.5
sI3
F0.375
sI4
F1.0
sI5
F1.0
sI7
F1.0
sI8
F0.25
sI10
F1.0
sI11
F3.0
sI13
F1.0
sI14
F260.0
sI15
F15108.0
sI16
F1.0
sI35
F1.0
sI21
F1.0
ssbsg15
g0
(g16
g2
Ntp546
Rp547
(dp548
g20
I1
sbsba(ics475_types
Instance
p549
(dp550
g10
(ics475_types
FeatureVector
p551
(dp552
g13
(dp553
I2
F17.08
sI3
F0.085
sI6
F1.0
sI7
F1.0
sI8
F0.04
sI9
F1.0
sI13
F1.0
sI14
F140.0
sI15
F722.0
sI16
F1.0
sI17
F1.0
sI18
F1.0
sI20
F1.0
sI21
F1.0
ssbsg15
g0
(g16
g2
Ntp554
Rp555
(dp556
g20
I0
sbsba(ics475_types
Instance
p557
(dp558
g10
(ics475_types
FeatureVector
p559
(dp560
g13
(dp561
I32
F1.0
sI33
F1.0
sI2
F41.33
sI4
F1.0
sI5
F1.0
sI6
F1.0
sI8
F15.0
sI13
F1.0
sI16
F1.0
sI20
F1.0
sI21
F1.0
ssbsg15
g0
(g16
g2
Ntp562
Rp563
(dp564
g20
I1
sbsba(ics475_types
Instance
p565
(dp566
g10
(ics475_types
FeatureVector
p567
(dp568
g13
(dp569
I2
F31.25
sI3
F2.835
sI4
F1.0
sI5
F1.0
sI9
F1.0
sI10
F1.0
sI11
F5.0
sI13
F1.0
sI14
F176.0
sI15
F146.0
sI16
F1.0
sI21
F1.0
sI23
F1.0
sI24
F1.0
ssbsg15
g0
(g16
g2
Ntp570
Rp571
(dp572
g20
I0
sbsba(ics475_types
Instance
p573
(dp574
g10
(ics475_types
FeatureVector
p575
(dp576
g13
(dp577
I33
F1.0
sI2
F31.42
sI3
F15.5
sI4
F1.0
sI5
F1.0
sI6
F1.0
sI7
F1.0
sI8
F0.5
sI13
F1.0
sI14
F120.0
sI16
F1.0
sI20
F1.0
sI21
F1.0
ssbsg15
g0
(g16
g2
Ntp578
Rp579
(dp580
g20
I0
sbsba(ics475_types
Instance
p581
(dp582
g10
(ics475_types
FeatureVector
p583
(dp584
g13
(dp585
I1
F1.0
sI2
F32.0
sI3
F6.0
sI4
F1.0
sI5
F1.0
sI7
F1.0
sI8
F1.25
sI9
F1.0
sI13
F1.0
sI14
F272.0
sI34
F1.0
sI20
F1.0
sI21
F1.0
ssbsg15
g0
(g16
g2
Ntp586
Rp587
(dp588
g20
I0
sbsba(ics475_types
Instance
p589
(dp590
g10
(ics475_types
FeatureVector
p591
(dp592
g13
(dp593
I33
F1.0
sI2
F22.83
sI3
F3.0
sI4
F1.0
sI5
F1.0
sI7
F1.0
sI8
F1.29
sI10
F1.0
sI11
F1.0
sI13
F1.0
sI14
F260.0
sI15
F800.0
sI16
F1.0
sI35
F1.0
sI21
F1.0
ssbsg15
g0
(g16
g2
Ntp594
Rp595
(dp596
g20
I1
sbsba(ics475_types
Instance
p597
(dp598
g10
(ics475_types
FeatureVector
p599
(dp600
g13
(dp601
I33
F1.0
sI2
F23.25
sI3
F1.0
sI4
F1.0
sI5
F1.0
sI6
F1.0
sI7
F1.0
sI8
F0.835
sI14
F300.0
sI16
F1.0
sI20
F1.0
sI21
F1.0
sI22
F1.0
ssbsg15
g0
(g16
g2
Ntp602
Rp603
(dp604
g20
I1
sbsba(ics475_types
Instance
p605
(dp606
g10
(ics475_types
FeatureVector
p607
(dp608
g13
(dp609
I1
F1.0
sI2
F31.25
sI3
F3.75
sI4
F1.0
sI5
F1.0
sI33
F1.0
sI8
F0.625
sI10
F1.0
sI11
F9.0
sI12
F1.0
sI13
F1.0
sI14
F181.0
sI36
F1.0
sI27
F1.0
ssbsg15
g0
(g16
g2
Ntp610
Rp611
(dp612
g20
I1
sbsba(ics475_types
Instance
p613
(dp614
g10
(ics475_types
FeatureVector
p615
(dp616
g13
(dp617
I33
F1.0
sI2
F37.42
sI3
F2.04
sI4
F1.0
sI5
F1.0
sI7
F1.0
sI8
F0.04
sI12
F1.0
sI13
F1.0
sI14
F400.0
sI15
F5800.0
sI16
F1.0
sI20
F1.0
sI31
F1.0
ssbsg15
g0
(g16
g2
Ntp618
Rp619
(dp620
g20
I1
sbsba(ics475_types
Instance
p621
(dp622
g10
(ics475_types
FeatureVector
p623
(dp624
g13
(dp625
I33
F1.0
sI2
F36.67
sI3
F3.25
sI4
F1.0
sI5
F1.0
sI8
F9.0
sI12
F1.0
sI13
F1.0
sI14
F102.0
sI15
F639.0
sI16
F1.0
sI20
F1.0
sI27
F1.0
sI30
F1.0
ssbsg15
g0
(g16
g2
Ntp626
Rp627
(dp628
g20
I1
sbsba(ics475_types
Instance
p629
(dp630
g10
(ics475_types
FeatureVector
p631
(dp632
g13
(dp633
I2
F34.67
sI3
F1.08
sI4
F1.0
sI5
F1.0
sI7
F1.0
sI8
F1.165
sI9
F1.0
sI14
F28.0
sI16
F1.0
sI35
F1.0
sI20
F1.0
sI21
F1.0
sI22
F1.0
ssbsg15
g0
(g16
g2
Ntp634
Rp635
(dp636
g20
I0
sbsba(ics475_types
Instance
p637
(dp638
g10
(ics475_types
FeatureVector
p639
(dp640
g13
(dp641
I1
F1.0
sI2
F33.08
sI3
F4.625
sI4
F1.0
sI5
F1.0
sI33
F1.0
sI8
F1.625
sI10
F1.0
sI11
F2.0
sI13
F1.0
sI21
F1.0
sI27
F1.0
sI30
F1.0
ssbsg15
g0
(g16
g2
Ntp642
Rp643
(dp644
g20
I1
sbsba(ics475_types
Instance
p645
(dp646
g10
(ics475_types
FeatureVector
p647
(dp648
g13
(dp649
I1
F1.0
sI2
F53.33
sI3
F0.165
sI4
F1.0
sI5
F1.0
sI9
F1.0
sI12
F1.0
sI14
F62.0
sI15
F27.0
sI20
F1.0
sI22
F1.0
sI23
F1.0
sI24
F1.0
ssbsg15
g0
(g16
g2
Ntp650
Rp651
(dp652
g20
I0
sbsba(ics475_types
Instance
p653
(dp654
g10
(ics475_types
FeatureVector
p655
(dp656
g13
(dp657
I2
F25.67
sI3
F0.29
sI6
F1.0
sI7
F1.0
sI8
F1.5
sI9
F1.0
sI12
F1.0
sI13
F1.0
sI14
F160.0
sI16
F1.0
sI17
F1.0
sI18
F1.0
sI20
F1.0
ssbsg15
g0
(g16
g2
Ntp658
Rp659
(dp660
g20
I0
sbsba(ics475_types
Instance
p661
(dp662
g10
(ics475_types
FeatureVector
p663
(dp664
g13
(dp665
I33
F1.0
sI2
F22.67
sI3
F1.585
sI7
F1.0
sI8
F3.085
sI10
F1.0
sI11
F6.0
sI13
F1.0
sI14
F80.0
sI16
F1.0
sI17
F1.0
sI18
F1.0
sI21
F1.0
sI31
F1.0
ssbsg15
g0
(g16
g2
Ntp666
Rp667
(dp668
g20
I1
sbsba(ics475_types
Instance
p669
(dp670
g10
(ics475_types
FeatureVector
p671
(dp672
g13
(dp673
I33
F1.0
sI2
F28.25
sI3
F0.875
sI4
F1.0
sI5
F1.0
sI7
F1.0
sI8
F0.96
sI10
F1.0
sI11
F3.0
sI12
F1.0
sI13
F1.0
sI14
F396.0
sI16
F1.0
sI35
F1.0
ssbsg15
g0
(g16
g2
Ntp674
Rp675
(dp676
g20
I1
sbsba(ics475_types
Instance
p677
(dp678
g10
(ics475_types
FeatureVector
p679
(dp680
g13
(dp681
I33
F1.0
sI2
F35.25
sI3
F16.5
sI6
F1.0
sI7
F1.0
sI8
F4.0
sI13
F1.0
sI14
F80.0
sI16
F1.0
sI17
F1.0
sI18
F1.0
sI20
F1.0
sI21
F1.0
ssbsg15
g0
(g16
g2
Ntp682
Rp683
(dp684
g20
I0
sbsba(ics475_types
Instance
p685
(dp686
g10
(ics475_types
FeatureVector
p687
(dp688
g13
(dp689
I2
F51.83
sI3
F2.04
sI8
F1.5
sI9
F1.0
sI13
F1.0
sI14
F120.0
sI15
F1.0
sI16
F1.0
sI17
F1.0
sI18
F1.0
sI20
F1.0
sI21
F1.0
sI23
F1.0
sI24
F1.0
ssbsg15
g0
(g16
g2
Ntp690
Rp691
(dp692
g20
I0
sbsba(ics475_types
Instance
p693
(dp694
g10
(ics475_types
FeatureVector
p695
(dp696
g13
(dp697
I1
F1.0
sI2
F22.83
sI3
F2.29
sI4
F1.0
sI5
F1.0
sI33
F1.0
sI8
F2.29
sI10
F1.0
sI11
F7.0
sI12
F1.0
sI13
F1.0
sI14
F140.0
sI15
F2384.0
sI27
F1.0
sI30
F1.0
ssbsg15
g0
(g16
g2
Ntp698
Rp699
(dp700
g20
I1
sbsba(ics475_types
Instance
p701
(dp702
g10
(ics475_types
FeatureVector
p703
(dp704
g13
(dp705
I2
F36.67
sI3
F2.0
sI4
F1.0
sI5
F1.0
sI7
F1.0
sI8
F0.25
sI9
F1.0
sI12
F1.0
sI13
F1.0
sI14
F221.0
sI16
F1.0
sI20
F1.0
sI25
F1.0
ssbsg15
g0
(g16
g2
Ntp706
Rp707
(dp708
g20
I0
sbsba(ics475_types
Instance
p709
(dp710
g10
(ics475_types
FeatureVector
p711
(dp712
g13
(dp713
I33
F1.0
sI2
F18.08
sI3
F5.5
sI4
F1.0
sI5
F1.0
sI7
F1.0
sI8
F0.5
sI13
F1.0
sI14
F80.0
sI16
F1.0
sI19
F1.0
sI20
F1.0
sI21
F1.0
ssbsg15
g0
(g16
g2
Ntp714
Rp715
(dp716
g20
I1
sbsba(ics475_types
Instance
p717
(dp718
g10
(ics475_types
FeatureVector
p719
(dp720
g13
(dp721
I33
F1.0
sI2
F54.42
sI3
F0.5
sI8
F3.96
sI13
F1.0
sI14
F180.0
sI15
F314.0
sI16
F1.0
sI17
F1.0
sI18
F1.0
sI19
F1.0
sI20
F1.0
sI21
F1.0
sI27
F1.0
ssbsg15
g0
(g16
g2
Ntp722
Rp723
(dp724
g20
I1
sbsba(ics475_types
Instance
p725
(dp726
g10
(ics475_types
FeatureVector
p727
(dp728
g13
(dp729
I2
F35.58
sI3
F0.75
sI4
F1.0
sI5
F1.0
sI7
F1.0
sI8
F1.5
sI9
F1.0
sI12
F1.0
sI13
F1.0
sI14
F231.0
sI16
F1.0
sI19
F1.0
sI20
F1.0
ssbsg15
g0
(g16
g2
Ntp730
Rp731
(dp732
g20
I0
sbsba(ics475_types
Instance
p733
(dp734
g10
(ics475_types
FeatureVector
p735
(dp736
g13
(dp737
I1
F1.0
sI2
F20.42
sI3
F0.835
sI4
F1.0
sI5
F1.0
sI7
F1.0
sI8
F1.585
sI10
F1.0
sI11
F1.0
sI13
F1.0
sI21
F1.0
sI33
F1.0
sI30
F1.0
ssbsg15
g0
(g16
g2
Ntp738
Rp739
(dp740
g20
I1
sbsba(ics475_types
Instance
p741
(dp742
g10
(ics475_types
FeatureVector
p743
(dp744
g13
(dp745
I1
F1.0
sI2
F38.75
sI3
F1.5
sI4
F1.0
sI5
F1.0
sI9
F1.0
sI13
F1.0
sI14
F76.0
sI20
F1.0
sI21
F1.0
sI23
F1.0
sI24
F1.0
ssbsg15
g0
(g16
g2
Ntp746
Rp747
(dp748
g20
I0
sbsba(ics475_types
Instance
p749
(dp750
g10
(ics475_types
FeatureVector
p751
(dp752
g13
(dp753
I1
F1.0
sI2
F25.42
sI3
F1.125
sI4
F1.0
sI5
F1.0
sI7
F1.0
sI8
F1.29
sI10
F1.0
sI11
F2.0
sI13
F1.0
sI14
F200.0
sI21
F1.0
sI33
F1.0
sI30
F1.0
ssbsg15
g0
(g16
g2
Ntp754
Rp755
(dp756
g20
I0
sbsba(ics475_types
Instance
p757
(dp758
g10
(ics475_types
FeatureVector
p759
(dp760
g13
(dp761
I32
F1.0
sI1
F1.0
sI2
F47.42
sI3
F8.0
sI4
F1.0
sI5
F1.0
sI33
F1.0
sI8
F6.5
sI41
F1.0
sI10
F1.0
sI11
F6.0
sI13
F1.0
sI14
F375.0
sI15
F51100.0
sI21
F1.0
ssbsg15
g0
(g16
g2
Ntp762
Rp763
(dp764
g20
I1
sbsba(ics475_types
Instance
p765
(dp766
g10
(ics475_types
FeatureVector
p767
(dp768
g13
(dp769
I33
F1.0
sI2
F36.33
sI3
F3.79
sI4
F1.0
sI5
F1.0
sI7
F1.0
sI8
F1.165
sI12
F1.0
sI13
F1.0
sI14
F200.0
sI16
F1.0
sI20
F1.0
sI31
F1.0
ssbsg15
g0
(g16
g2
Ntp770
Rp771
(dp772
g20
I0
sbsba(ics475_types
Instance
p773
(dp774
g10
(ics475_types
FeatureVector
p775
(dp776
g13
(dp777
I2
F20.42
sI3
F1.085
sI4
F1.0
sI5
F1.0
sI7
F1.0
sI8
F1.5
sI9
F1.0
sI13
F1.0
sI14
F108.0
sI15
F7.0
sI16
F1.0
sI20
F1.0
sI21
F1.0
sI30
F1.0
ssbsg15
g0
(g16
g2
Ntp778
Rp779
(dp780
g20
I0
sbsba(ics475_types
Instance
p781
(dp782
g10
(ics475_types
FeatureVector
p783
(dp784
g13
(dp785
I2
F17.92
sI3
F0.205
sI4
F1.0
sI5
F1.0
sI7
F1.0
sI8
F0.04
sI9
F1.0
sI13
F1.0
sI14
F280.0
sI15
F750.0
sI16
F1.0
sI20
F1.0
sI21
F1.0
sI37
F1.0
ssbsg15
g0
(g16
g2
Ntp786
Rp787
(dp788
g20
I0
sbsba(ics475_types
Instance
p789
(dp790
g10
(ics475_types
FeatureVector
p791
(dp792
g13
(dp793
I2
F35.0
sI3
F2.5
sI4
F1.0
sI5
F1.0
sI7
F1.0
sI8
F1.0
sI9
F1.0
sI12
F1.0
sI13
F1.0
sI14
F210.0
sI16
F1.0
sI20
F1.0
sI25
F1.0
ssbsg15
g0
(g16
g2
Ntp794
Rp795
(dp796
g20
I0
sbsba(ics475_types
Instance
p797
(dp798
g10
(ics475_types
FeatureVector
p799
(dp800
g13
(dp801
I33
F1.0
sI2
F34.92
sI3
F5.0
sI4
F1.0
sI5
F1.0
sI39
F1.0
sI8
F7.5
sI10
F1.0
sI11
F6.0
sI12
F1.0
sI13
F1.0
sI15
F1000.0
sI16
F1.0
sI27
F1.0
ssbsg15
g0
(g16
g2
Ntp802
Rp803
(dp804
g20
I1
sbsba(ics475_types
Instance
p805
(dp806
g10
(ics475_types
FeatureVector
p807
(dp808
g13
(dp809
I1
F1.0
sI2
F18.83
sI3
F9.54
sI4
F1.0
sI5
F1.0
sI7
F1.0
sI8
F0.085
sI13
F1.0
sI14
F100.0
sI20
F1.0
sI21
F1.0
sI33
F1.0
sI37
F1.0
ssbsg15
g0
(g16
g2
Ntp810
Rp811
(dp812
g20
I1
sbsba(ics475_types
Instance
p813
(dp814
g10
(ics475_types
FeatureVector
p815
(dp816
g13
(dp817
I2
F22.67
sI3
F0.75
sI4
F1.0
sI5
F1.0
sI7
F1.0
sI8
F1.585
sI9
F1.0
sI10
F1.0
sI11
F1.0
sI12
F1.0
sI13
F1.0
sI14
F400.0
sI15
F9.0
sI16
F1.0
sI25
F1.0
ssbsg15
g0
(g16
g2
Ntp818
Rp819
(dp820
g20
I0
sbsba(ics475_types
Instance
p821
(dp822
g10
(ics475_types
FeatureVector
p823
(dp824
g13
(dp825
I33
F1.0
sI2
F31.83
sI3
F2.5
sI4
F1.0
sI5
F1.0
sI7
F1.0
sI8
F7.5
sI12
F1.0
sI13
F1.0
sI14
F523.0
sI16
F1.0
sI20
F1.0
sI37
F1.0
ssbsg15
g0
(g16
g2
Ntp826
Rp827
(dp828
g20
I0
sbsba(ics475_types
Instance
p829
(dp830
g10
(ics475_types
FeatureVector
p831
(dp832
g13
(dp833
I33
F1.0
sI2
F23.17
sI3
F11.125
sI4
F1.0
sI5
F1.0
sI39
F1.0
sI8
F0.46
sI10
F1.0
sI11
F1.0
sI13
F1.0
sI14
F100.0
sI16
F1.0
sI21
F1.0
sI27
F1.0
ssbsg15
g0
(g16
g2
Ntp834
Rp835
(dp836
g20
I1
sbsba(ics475_types
Instance
p837
(dp838
g10
(ics475_types
FeatureVector
p839
(dp840
g13
(dp841
I33
F1.0
sI2
F41.92
sI3
F0.42
sI4
F1.0
sI5
F1.0
sI6
F1.0
sI8
F0.21
sI10
F1.0
sI11
F6.0
sI13
F1.0
sI14
F220.0
sI15
F948.0
sI16
F1.0
sI21
F1.0
sI27
F1.0
ssbsg15
g0
(g16
g2
Ntp842
Rp843
(dp844
g20
I1
sbsba(ics475_types
Instance
p845
(dp846
g10
(ics475_types
FeatureVector
p847
(dp848
g13
(dp849
I33
F1.0
sI2
F48.75
sI3
F8.5
sI4
F1.0
sI5
F1.0
sI6
F1.0
sI8
F12.5
sI10
F1.0
sI11
F9.0
sI13
F1.0
sI14
F181.0
sI15
F1655.0
sI16
F1.0
sI21
F1.0
sI27
F1.0
ssbsg15
g0
(g16
g2
Ntp850
Rp851
(dp852
g20
I1
sbsba(ics475_types
Instance
p853
(dp854
g10
(ics475_types
FeatureVector
p855
(dp856
g13
(dp857
I1
F1.0
sI2
F47.25
sI3
F0.75
sI4
F1.0
sI5
F1.0
sI33
F1.0
sI8
F2.75
sI10
F1.0
sI11
F1.0
sI13
F1.0
sI14
F333.0
sI15
F892.0
sI21
F1.0
sI27
F1.0
sI30
F1.0
ssbsg15
g0
(g16
g2
Ntp858
Rp859
(dp860
g20
I1
sbsba(ics475_types
Instance
p861
(dp862
g10
(ics475_types
FeatureVector
p863
(dp864
g13
(dp865
I33
F1.0
sI2
F18.67
sI3
F5.0
sI4
F1.0
sI5
F1.0
sI7
F1.0
sI8
F0.375
sI10
F1.0
sI11
F2.0
sI13
F1.0
sI15
F38.0
sI16
F1.0
sI21
F1.0
sI30
F1.0
ssbsg15
g0
(g16
g2
Ntp866
Rp867
(dp868
g20
I0
sbsba(ics475_types
Instance
p869
(dp870
g10
(ics475_types
FeatureVector
p871
(dp872
g13
(dp873
I1
F1.0
sI2
F29.58
sI3
F1.75
sI7
F1.0
sI8
F1.25
sI9
F1.0
sI12
F1.0
sI13
F1.0
sI14
F280.0
sI17
F1.0
sI18
F1.0
sI19
F1.0
sI20
F1.0
ssbsg15
g0
(g16
g2
Ntp874
Rp875
(dp876
g20
I0
sbsba(ics475_types
Instance
p877
(dp878
g10
(ics475_types
FeatureVector
p879
(dp880
g13
(dp881
I33
F1.0
sI2
F35.17
sI3
F25.125
sI4
F1.0
sI5
F1.0
sI39
F1.0
sI8
F1.625
sI10
F1.0
sI11
F1.0
sI12
F1.0
sI13
F1.0
sI14
F515.0
sI15
F500.0
sI16
F1.0
sI27
F1.0
ssbsg15
g0
(g16
g2
Ntp882
Rp883
(dp884
g20
I1
sbsba(ics475_types
Instance
p885
(dp886
g10
(ics475_types
FeatureVector
p887
(dp888
g13
(dp889
I2
F26.17
sI3
F12.5
sI8
F1.25
sI9
F1.0
sI12
F1.0
sI13
F1.0
sI15
F17.0
sI16
F1.0
sI17
F1.0
sI18
F1.0
sI19
F1.0
sI20
F1.0
sI27
F1.0
ssbsg15
g0
(g16
g2
Ntp890
Rp891
(dp892
g20
I0
sbsba(ics475_types
Instance
p893
(dp894
g10
(ics475_types
FeatureVector
p895
(dp896
g13
(dp897
I1
F1.0
sI2
F32.33
sI3
F0.54
sI4
F1.0
sI5
F1.0
sI7
F1.0
sI8
F0.04
sI13
F1.0
sI14
F440.0
sI15
F11177.0
sI20
F1.0
sI21
F1.0
sI36
F1.0
sI33
F1.0
ssbsg15
g0
(g16
g2
Ntp898
Rp899
(dp900
g20
I1
sbsba(ics475_types
Instance
p901
(dp902
g10
(ics475_types
FeatureVector
p903
(dp904
g13
(dp905
I33
F1.0
sI2
F40.92
sI3
F0.835
sI4
F1.0
sI5
F1.0
sI13
F1.0
sI14
F130.0
sI15
F1.0
sI16
F1.0
sI20
F1.0
sI21
F1.0
sI23
F1.0
sI24
F1.0
ssbsg15
g0
(g16
g2
Ntp906
Rp907
(dp908
g20
I0
sbsba(ics475_types
Instance
p909
(dp910
g10
(ics475_types
FeatureVector
p911
(dp912
g13
(dp913
I33
F1.0
sI2
F21.5
sI3
F11.5
sI4
F1.0
sI5
F1.0
sI7
F1.0
sI8
F0.5
sI12
F1.0
sI13
F1.0
sI14
F100.0
sI15
F68.0
sI16
F1.0
sI20
F1.0
sI25
F1.0
ssbsg15
g0
(g16
g2
Ntp914
Rp915
(dp916
g20
I0
sbsba(ics475_types
Instance
p917
(dp918
g10
(ics475_types
FeatureVector
p919
(dp920
g13
(dp921
I32
F1.0
sI33
F1.0
sI2
F34.5
sI3
F4.04
sI8
F8.5
sI10
F1.0
sI11
F7.0
sI12
F1.0
sI13
F1.0
sI14
F195.0
sI16
F1.0
sI17
F1.0
sI18
F1.0
sI25
F1.0
ssbsg15
g0
(g16
g2
Ntp922
Rp923
(dp924
g20
I1
sbsba(ics475_types
Instance
p925
(dp926
g10
(ics475_types
FeatureVector
p927
(dp928
g13
(dp929
I1
F1.0
sI2
F60.92
sI3
F5.0
sI4
F1.0
sI5
F1.0
sI7
F1.0
sI8
F4.0
sI10
F1.0
sI11
F4.0
sI13
F1.0
sI15
F99.0
sI21
F1.0
sI33
F1.0
sI37
F1.0
ssbsg15
g0
(g16
g2
Ntp930
Rp931
(dp932
g20
I1
sbsba(ics475_types
Instance
p933
(dp934
g10
(ics475_types
FeatureVector
p935
(dp936
g13
(dp937
I33
F1.0
sI2
F67.75
sI3
F5.5
sI4
F1.0
sI5
F1.0
sI8
F13.0
sI41
F1.0
sI10
F1.0
sI11
F1.0
sI12
F1.0
sI13
F1.0
sI16
F1.0
sI42
F1.0
ssbsg15
g0
(g16
g2
Ntp938
Rp939
(dp940
g20
I1
sbsba(ics475_types
Instance
p941
(dp942
g10
(ics475_types
FeatureVector
p943
(dp944
g13
(dp945
I1
F1.0
sI2
F41.17
sI3
F6.5
sI4
F1.0
sI5
F1.0
sI7
F1.0
sI8
F0.5
sI10
F1.0
sI11
F3.0
sI12
F1.0
sI13
F1.0
sI14
F145.0
sI33
F1.0
sI30
F1.0
ssbsg15
g0
(g16
g2
Ntp946
Rp947
(dp948
g20
I1
sbsba(ics475_types
Instance
p949
(dp950
g10
(ics475_types
FeatureVector
p951
(dp952
g13
(dp953
I33
F1.0
sI2
F39.92
sI3
F0.54
sI37
F1.0
sI7
F1.0
sI8
F0.5
sI10
F1.0
sI11
F3.0
sI13
F1.0
sI14
F200.0
sI15
F1000.0
sI16
F1.0
sI17
F1.0
sI18
F1.0
sI21
F1.0
ssbsg15
g0
(g16
g2
Ntp954
Rp955
(dp956
g20
I1
sbsba(ics475_types
Instance
p957
(dp958
g10
(ics475_types
FeatureVector
p959
(dp960
g13
(dp961
I33
F1.0
sI2
F48.25
sI3
F25.085
sI4
F1.0
sI5
F1.0
sI7
F1.0
sI8
F1.75
sI10
F1.0
sI11
F3.0
sI13
F1.0
sI14
F120.0
sI15
F14.0
sI16
F1.0
sI21
F1.0
sI31
F1.0
ssbsg15
g0
(g16
g2
Ntp962
Rp963
(dp964
g20
I1
sbsba(ics475_types
Instance
p965
(dp966
g10
(ics475_types
FeatureVector
p967
(dp968
g13
(dp969
I33
F1.0
sI2
F27.0
sI3
F1.5
sI7
F1.0
sI8
F0.375
sI12
F1.0
sI13
F1.0
sI14
F260.0
sI15
F1065.0
sI16
F1.0
sI17
F1.0
sI18
F1.0
sI20
F1.0
sI31
F1.0
ssbsg15
g0
(g16
g2
Ntp970
Rp971
(dp972
g20
I1
sbsba(ics475_types
Instance
p973
(dp974
g10
(ics475_types
FeatureVector
p975
(dp976
g13
(dp977
I2
F31.08
sI3
F1.5
sI7
F1.0
sI8
F0.04
sI9
F1.0
sI14
F160.0
sI16
F1.0
sI17
F1.0
sI18
F1.0
sI20
F1.0
sI21
F1.0
sI22
F1.0
sI31
F1.0
ssbsg15
g0
(g16
g2
Ntp978
Rp979
(dp980
g20
I0
sbsba(ics475_types
Instance
p981
(dp982
g10
(ics475_types
FeatureVector
p983
(dp984
g13
(dp985
I1
F1.0
sI2
F22.58
sI3
F10.75
sI4
F1.0
sI5
F1.0
sI7
F1.0
sI8
F0.415
sI10
F1.0
sI11
F5.0
sI12
F1.0
sI13
F1.0
sI15
F560.0
sI33
F1.0
sI30
F1.0
ssbsg15
g0
(g16
g2
Ntp986
Rp987
(dp988
g20
I1
sbsba(ics475_types
Instance
p989
(dp990
g10
(ics475_types
FeatureVector
p991
(dp992
g13
(dp993
I2
F17.08
sI3
F3.29
sI4
F1.0
sI5
F1.0
sI7
F1.0
sI8
F0.335
sI9
F1.0
sI12
F1.0
sI13
F1.0
sI14
F140.0
sI15
F2.0
sI16
F1.0
sI20
F1.0
sI25
F1.0
ssbsg15
g0
(g16
g2
Ntp994
Rp995
(dp996
g20
I0
sbsba(ics475_types
Instance
p997
(dp998
g10
(ics475_types
FeatureVector
p999
(dp1000
g13
(dp1001
I1
F1.0
sI2
F69.5
sI3
F6.0
sI4
F1.0
sI5
F1.0
sI9
F1.0
sI20
F1.0
sI21
F1.0
sI22
F1.0
sI23
F1.0
sI24
F1.0
ssbsg15
g0
(g16
g2
Ntp1002
Rp1003
(dp1004
g20
I0
sbsba(ics475_types
Instance
p1005
(dp1006
g10
(ics475_types
FeatureVector
p1007
(dp1008
g13
(dp1009
I1
F1.0
sI2
F47.42
sI3
F3.0
sI4
F1.0
sI5
F1.0
sI7
F1.0
sI8
F13.875
sI10
F1.0
sI11
F2.0
sI12
F1.0
sI13
F1.0
sI14
F519.0
sI15
F1704.0
sI39
F1.0
sI33
F1.0
ssbsg15
g0
(g16
g2
Ntp1010
Rp1011
(dp1012
g20
I1
sbsba(ics475_types
Instance
p1013
(dp1014
g10
(ics475_types
FeatureVector
p1015
(dp1016
g13
(dp1017
I2
F22.17
sI3
F0.585
sI9
F1.0
sI13
F1.0
sI14
F100.0
sI16
F1.0
sI17
F1.0
sI18
F1.0
sI20
F1.0
sI21
F1.0
sI23
F1.0
sI24
F1.0
ssbsg15
g0
(g16
g2
Ntp1018
Rp1019
(dp1020
g20
I0
sbsba(ics475_types
Instance
p1021
(dp1022
g10
(ics475_types
FeatureVector
p1023
(dp1024
g13
(dp1025
I32
F1.0
sI2
F26.67
sI3
F14.585
sI4
F1.0
sI5
F1.0
sI9
F1.0
sI12
F1.0
sI13
F1.0
sI14
F178.0
sI16
F1.0
sI20
F1.0
sI25
F1.0
ssbsg15
g0
(g16
g2
Ntp1026
Rp1027
(dp1028
g20
I0
sbsba(ics475_types
Instance
p1029
(dp1030
g10
(ics475_types
FeatureVector
p1031
(dp1032
g13
(dp1033
I33
F1.0
sI2
F25.33
sI3
F0.58
sI4
F1.0
sI5
F1.0
sI6
F1.0
sI7
F1.0
sI8
F0.29
sI10
F1.0
sI11
F7.0
sI12
F1.0
sI13
F1.0
sI14
F96.0
sI15
F5124.0
sI16
F1.0
ssbsg15
g0
(g16
g2
Ntp1034
Rp1035
(dp1036
g20
I1
sbsba(ics475_types
Instance
p1037
(dp1038
g10
(ics475_types
FeatureVector
p1039
(dp1040
g13
(dp1041
I33
F1.0
sI2
F18.5
sI3
F2.0
sI4
F1.0
sI5
F1.0
sI7
F1.0
sI8
F1.5
sI10
F1.0
sI11
F2.0
sI13
F1.0
sI14
F120.0
sI15
F300.0
sI16
F1.0
sI21
F1.0
sI25
F1.0
ssbsg15
g0
(g16
g2
Ntp1042
Rp1043
(dp1044
g20
I1
sbsba(ics475_types
Instance
p1045
(dp1046
g10
(ics475_types
FeatureVector
p1047
(dp1048
g13
(dp1049
I2
F17.42
sI3
F6.5
sI4
F1.0
sI5
F1.0
sI7
F1.0
sI8
F0.125
sI9
F1.0
sI13
F1.0
sI14
F60.0
sI15
F100.0
sI16
F1.0
sI20
F1.0
sI21
F1.0
sI25
F1.0
ssbsg15
g0
(g16
g2
Ntp1050
Rp1051
(dp1052
g20
I0
sbsba(ics475_types
Instance
p1053
(dp1054
g10
(ics475_types
FeatureVector
p1055
(dp1056
g13
(dp1057
I1
F1.0
sI2
F20.83
sI3
F8.5
sI4
F1.0
sI5
F1.0
sI6
F1.0
sI7
F1.0
sI8
F0.165
sI9
F1.0
sI13
F1.0
sI15
F351.0
sI20
F1.0
sI21
F1.0
ssbsg15
g0
(g16
g2
Ntp1058
Rp1059
(dp1060
g20
I0
sbsba(ics475_types
Instance
p1061
(dp1062
g10
(ics475_types
FeatureVector
p1063
(dp1064
g13
(dp1065
I1
F1.0
sI2
F27.42
sI3
F14.5
sI4
F1.0
sI5
F1.0
sI33
F1.0
sI8
F3.085
sI10
F1.0
sI11
F1.0
sI13
F1.0
sI14
F120.0
sI15
F11.0
sI21
F1.0
sI39
F1.0
sI27
F1.0
ssbsg15
g0
(g16
g2
Ntp1066
Rp1067
(dp1068
g20
I1
sbsba(ics475_types
Instance
p1069
(dp1070
g10
(ics475_types
FeatureVector
p1071
(dp1072
g13
(dp1073
I1
F1.0
sI2
F17.83
sI3
F11.0
sI4
F1.0
sI5
F1.0
sI33
F1.0
sI8
F1.0
sI10
F1.0
sI11
F11.0
sI13
F1.0
sI15
F3000.0
sI21
F1.0
sI39
F1.0
sI27
F1.0
ssbsg15
g0
(g16
g2
Ntp1074
Rp1075
(dp1076
g20
I1
sbsba(ics475_types
Instance
p1077
(dp1078
g10
(ics475_types
FeatureVector
p1079
(dp1080
g13
(dp1081
I1
F1.0
sI2
F24.58
sI3
F0.67
sI4
F1.0
sI5
F1.0
sI33
F1.0
sI8
F1.75
sI13
F1.0
sI14
F400.0
sI20
F1.0
sI21
F1.0
sI27
F1.0
sI37
F1.0
ssbsg15
g0
(g16
g2
Ntp1082
Rp1083
(dp1084
g20
I0
sbsba(ics475_types
Instance
p1085
(dp1086
g10
(ics475_types
FeatureVector
p1087
(dp1088
g13
(dp1089
I33
F1.0
sI2
F29.58
sI3
F4.5
sI4
F1.0
sI5
F1.0
sI7
F1.0
sI8
F7.5
sI10
F1.0
sI11
F2.0
sI12
F1.0
sI13
F1.0
sI14
F330.0
sI16
F1.0
sI31
F1.0
ssbsg15
g0
(g16
g2
Ntp1090
Rp1091
(dp1092
g20
I1
sbsba(ics475_types
Instance
p1093
(dp1094
g10
(ics475_types
FeatureVector
p1095
(dp1096
g13
(dp1097
I1
F1.0
sI2
F24.92
sI3
F1.25
sI4
F1.0
sI5
F1.0
sI33
F1.0
sI13
F1.0
sI14
F80.0
sI20
F1.0
sI21
F1.0
sI23
F1.0
sI24
F1.0
ssbsg15
g0
(g16
g2
Ntp1098
Rp1099
(dp1100
g20
I0
sbsba(ics475_types
Instance
p1101
(dp1102
g10
(ics475_types
FeatureVector
p1103
(dp1104
g13
(dp1105
I1
F1.0
sI2
F57.08
sI3
F19.5
sI4
F1.0
sI5
F1.0
sI6
F1.0
sI7
F1.0
sI8
F5.5
sI10
F1.0
sI11
F7.0
sI13
F1.0
sI15
F3000.0
sI21
F1.0
sI33
F1.0
ssbsg15
g0
(g16
g2
Ntp1106
Rp1107
(dp1108
g20
I1
sbsba(ics475_types
Instance
p1109
(dp1110
g10
(ics475_types
FeatureVector
p1111
(dp1112
g13
(dp1113
I33
F1.0
sI2
F34.17
sI3
F1.54
sI4
F1.0
sI5
F1.0
sI7
F1.0
sI8
F1.54
sI10
F1.0
sI11
F1.0
sI12
F1.0
sI13
F1.0
sI14
F520.0
sI15
F50000.0
sI16
F1.0
sI36
F1.0
ssbsg15
g0
(g16
g2
Ntp1114
Rp1115
(dp1116
g20
I1
sbsba(ics475_types
Instance
p1117
(dp1118
g10
(ics475_types
FeatureVector
p1119
(dp1120
g13
(dp1121
I1
F1.0
sI2
F24.5
sI3
F1.04
sI33
F1.0
sI8
F0.5
sI10
F1.0
sI11
F3.0
sI13
F1.0
sI14
F180.0
sI15
F147.0
sI17
F1.0
sI18
F1.0
sI21
F1.0
sI23
F1.0
sI24
F1.0
ssbsg15
g0
(g16
g2
Ntp1122
Rp1123
(dp1124
g20
I0
sbsba(ics475_types
Instance
p1125
(dp1126
g10
(ics475_types
FeatureVector
p1127
(dp1128
g13
(dp1129
I2
F32.08
sI3
F4.0
sI36
F1.0
sI7
F1.0
sI8
F1.5
sI9
F1.0
sI12
F1.0
sI13
F1.0
sI14
F120.0
sI16
F1.0
sI17
F1.0
sI18
F1.0
sI20
F1.0
ssbsg15
g0
(g16
g2
Ntp1130
Rp1131
(dp1132
g20
I0
sbsba(ics475_types
Instance
p1133
(dp1134
g10
(ics475_types
FeatureVector
p1135
(dp1136
g13
(dp1137
I33
F1.0
sI2
F28.0
sI3
F2.0
sI4
F1.0
sI5
F1.0
sI8
F4.165
sI10
F1.0
sI11
F2.0
sI12
F1.0
sI13
F1.0
sI14
F181.0
sI16
F1.0
sI19
F1.0
sI27
F1.0
ssbsg15
g0
(g16
g2
Ntp1138
Rp1139
(dp1140
g20
I1
sbsba(ics475_types
Instance
p1141
(dp1142
g10
(ics475_types
FeatureVector
p1143
(dp1144
g13
(dp1145
I33
F1.0
sI2
F32.67
sI3
F9.0
sI8
F5.25
sI12
F1.0
sI13
F1.0
sI14
F154.0
sI16
F1.0
sI17
F1.0
sI18
F1.0
sI20
F1.0
sI27
F1.0
sI31
F1.0
ssbsg15
g0
(g16
g2
Ntp1146
Rp1147
(dp1148
g20
I1
sbsba(ics475_types
Instance
p1149
(dp1150
g10
(ics475_types
FeatureVector
p1151
(dp1152
g13
(dp1153
I32
F1.0
sI33
F1.0
sI2
F37.5
sI3
F1.75
sI6
F1.0
sI8
F0.25
sI12
F1.0
sI13
F1.0
sI14
F164.0
sI15
F400.0
sI16
F1.0
sI17
F1.0
sI18
F1.0
sI20
F1.0
ssbsg15
g0
(g16
g2
Ntp1154
Rp1155
(dp1156
g20
I0
sbsba(ics475_types
Instance
p1157
(dp1158
g10
(ics475_types
FeatureVector
p1159
(dp1160
g13
(dp1161
I33
F1.0
sI2
F33.58
sI3
F2.75
sI4
F1.0
sI5
F1.0
sI7
F1.0
sI8
F4.25
sI10
F1.0
sI11
F6.0
sI13
F1.0
sI14
F204.0
sI16
F1.0
sI35
F1.0
sI21
F1.0
ssbsg15
g0
(g16
g2
Ntp1162
Rp1163
(dp1164
g20
I1
sbsba(ics475_types
Instance
p1165
(dp1166
g10
(ics475_types
FeatureVector
p1167
(dp1168
g13
(dp1169
I1
F1.0
sI2
F25.0
sI3
F0.875
sI4
F1.0
sI5
F1.0
sI33
F1.0
sI8
F1.04
sI39
F1.0
sI12
F1.0
sI13
F1.0
sI14
F160.0
sI15
F5860.0
sI20
F1.0
sI27
F1.0
ssbsg15
g0
(g16
g2
Ntp1170
Rp1171
(dp1172
g20
I1
sbsba(ics475_types
Instance
p1173
(dp1174
g10
(ics475_types
FeatureVector
p1175
(dp1176
g13
(dp1177
I1
F1.0
sI2
F23.58
sI3
F0.83
sI4
F1.0
sI5
F1.0
sI7
F1.0
sI8
F0.415
sI9
F1.0
sI10
F1.0
sI11
F1.0
sI12
F1.0
sI13
F1.0
sI14
F200.0
sI15
F11.0
sI30
F1.0
ssbsg15
g0
(g16
g2
Ntp1178
Rp1179
(dp1180
g20
I0
sbsba(ics475_types
Instance
p1181
(dp1182
g10
(ics475_types
FeatureVector
p1183
(dp1184
g13
(dp1185
I33
F1.0
sI2
F27.25
sI3
F1.665
sI4
F1.0
sI5
F1.0
sI8
F5.085
sI10
F1.0
sI11
F9.0
sI13
F1.0
sI14
F399.0
sI15
F827.0
sI16
F1.0
sI21
F1.0
sI36
F1.0
sI27
F1.0
ssbsg15
g0
(g16
g2
Ntp1186
Rp1187
(dp1188
g20
I1
sbsba(ics475_types
Instance
p1189
(dp1190
g10
(ics475_types
FeatureVector
p1191
(dp1192
g13
(dp1193
I33
F1.0
sI2
F23.33
sI3
F11.625
sI7
F1.0
sI8
F0.835
sI12
F1.0
sI13
F1.0
sI14
F160.0
sI15
F300.0
sI16
F1.0
sI17
F1.0
sI18
F1.0
sI20
F1.0
sI31
F1.0
ssbsg15
g0
(g16
g2
Ntp1194
Rp1195
(dp1196
g20
I1
sbsba(ics475_types
Instance
p1197
(dp1198
g10
(ics475_types
FeatureVector
p1199
(dp1200
g13
(dp1201
I33
F1.0
sI2
F27.67
sI3
F13.75
sI4
F1.0
sI5
F1.0
sI7
F1.0
sI8
F5.75
sI12
F1.0
sI13
F1.0
sI14
F487.0
sI15
F500.0
sI16
F1.0
sI20
F1.0
sI31
F1.0
ssbsg15
g0
(g16
g2
Ntp1202
Rp1203
(dp1204
g20
I1
sbsba(ics475_types
Instance
p1205
(dp1206
g10
(ics475_types
FeatureVector
p1207
(dp1208
g13
(dp1209
I33
F1.0
sI2
F34.92
sI3
F2.5
sI4
F1.0
sI5
F1.0
sI7
F1.0
sI12
F1.0
sI13
F1.0
sI14
F239.0
sI15
F200.0
sI16
F1.0
sI20
F1.0
sI31
F1.0
ssbsg15
g0
(g16
g2
Ntp1210
Rp1211
(dp1212
g20
I1
sbsba(ics475_types
Instance
p1213
(dp1214
g10
(ics475_types
FeatureVector
p1215
(dp1216
g13
(dp1217
I2
F18.83
sI3
F0.415
sI6
F1.0
sI7
F1.0
sI8
F0.165
sI9
F1.0
sI10
F1.0
sI11
F1.0
sI13
F1.0
sI14
F200.0
sI15
F1.0
sI16
F1.0
sI17
F1.0
sI18
F1.0
sI21
F1.0
ssbsg15
g0
(g16
g2
Ntp1218
Rp1219
(dp1220
g20
I0
sbsba(ics475_types
Instance
p1221
(dp1222
g10
(ics475_types
FeatureVector
p1223
(dp1224
g13
(dp1225
I1
F1.0
sI2
F20.67
sI3
F3.0
sI4
F1.0
sI5
F1.0
sI7
F1.0
sI8
F0.165
sI10
F1.0
sI11
F3.0
sI13
F1.0
sI14
F100.0
sI15
F6.0
sI21
F1.0
sI33
F1.0
sI30
F1.0
ssbsg15
g0
(g16
g2
Ntp1226
Rp1227
(dp1228
g20
I1
sbsba(ics475_types
Instance
p1229
(dp1230
g10
(ics475_types
FeatureVector
p1231
(dp1232
g13
(dp1233
I33
F1.0
sI2
F39.92
sI3
F6.21
sI4
F1.0
sI5
F1.0
sI7
F1.0
sI8
F0.04
sI10
F1.0
sI11
F1.0
sI13
F1.0
sI14
F200.0
sI15
F300.0
sI16
F1.0
sI21
F1.0
sI30
F1.0
ssbsg15
g0
(g16
g2
Ntp1234
Rp1235
(dp1236
g20
I1
sbsba(ics475_types
Instance
p1237
(dp1238
g10
(ics475_types
FeatureVector
p1239
(dp1240
g13
(dp1241
I32
F1.0
sI2
F33.75
sI3
F2.75
sI4
F1.0
sI5
F1.0
sI9
F1.0
sI13
F1.0
sI14
F180.0
sI16
F1.0
sI20
F1.0
sI21
F1.0
sI25
F1.0
ssbsg15
g0
(g16
g2
Ntp1242
Rp1243
(dp1244
g20
I0
sbsba(ics475_types
Instance
p1245
(dp1246
g10
(ics475_types
FeatureVector
p1247
(dp1248
g13
(dp1249
I2
F16.0
sI3
F3.125
sI4
F1.0
sI5
F1.0
sI7
F1.0
sI8
F0.085
sI9
F1.0
sI10
F1.0
sI11
F1.0
sI13
F1.0
sI15
F6.0
sI16
F1.0
sI21
F1.0
sI31
F1.0
ssbsg15
g0
(g16
g2
Ntp1250
Rp1251
(dp1252
g20
I0
sbsba(ics475_types
Instance
p1253
(dp1254
g10
(ics475_types
FeatureVector
p1255
(dp1256
g13
(dp1257
I2
F23.92
sI3
F0.665
sI4
F1.0
sI5
F1.0
sI6
F1.0
sI7
F1.0
sI8
F0.165
sI9
F1.0
sI13
F1.0
sI14
F100.0
sI16
F1.0
sI20
F1.0
sI21
F1.0
ssbsg15
g0
(g16
g2
Ntp1258
Rp1259
(dp1260
g20
I1
sbsba(ics475_types
Instance
p1261
(dp1262
g10
(ics475_types
FeatureVector
p1263
(dp1264
g13
(dp1265
I1
F1.0
sI2
F58.33
sI3
F10.0
sI4
F1.0
sI5
F1.0
sI7
F1.0
sI8
F4.0
sI10
F1.0
sI11
F14.0
sI13
F1.0
sI15
F1602.0
sI21
F1.0
sI33
F1.0
sI30
F1.0
ssbsg15
g0
(g16
g2
Ntp1266
Rp1267
(dp1268
g20
I1
sbsba(ics475_types
Instance
p1269
(dp1270
g10
(ics475_types
FeatureVector
p1271
(dp1272
g13
(dp1273
I33
F1.0
sI2
F28.75
sI3
F1.5
sI6
F1.0
sI7
F1.0
sI8
F1.5
sI12
F1.0
sI13
F1.0
sI15
F225.0
sI16
F1.0
sI17
F1.0
sI18
F1.0
sI20
F1.0
ssbsg15
g0
(g16
g2
Ntp1274
Rp1275
(dp1276
g20
I0
sbsba(ics475_types
Instance
p1277
(dp1278
g10
(ics475_types
FeatureVector
p1279
(dp1280
g13
(dp1281
I33
F1.0
sI2
F40.92
sI3
F2.25
sI39
F1.0
sI8
F10.0
sI12
F1.0
sI13
F1.0
sI14
F176.0
sI16
F1.0
sI17
F1.0
sI18
F1.0
sI20
F1.0
sI27
F1.0
ssbsg15
g0
(g16
g2
Ntp1282
Rp1283
(dp1284
g20
I0
sbsba(ics475_types
Instance
p1285
(dp1286
g10
(ics475_types
FeatureVector
p1287
(dp1288
g13
(dp1289
I1
F1.0
sI2
F22.67
sI3
F0.335
sI4
F1.0
sI5
F1.0
sI7
F1.0
sI8
F0.75
sI9
F1.0
sI14
F160.0
sI20
F1.0
sI21
F1.0
sI22
F1.0
sI30
F1.0
ssbsg15
g0
(g16
g2
Ntp1290
Rp1291
(dp1292
g20
I0
sbsba(ics475_types
Instance
p1293
(dp1294
g10
(ics475_types
FeatureVector
p1295
(dp1296
g13
(dp1297
I33
F1.0
sI2
F43.0
sI3
F0.29
sI36
F1.0
sI8
F1.75
sI10
F1.0
sI11
F8.0
sI13
F1.0
sI14
F100.0
sI15
F375.0
sI16
F1.0
sI17
F1.0
sI18
F1.0
sI21
F1.0
sI27
F1.0
ssbsg15
g0
(g16
g2
Ntp1298
Rp1299
(dp1300
g20
I1
sbsba(ics475_types
Instance
p1301
(dp1302
g10
(ics475_types
FeatureVector
p1303
(dp1304
g13
(dp1305
I33
F1.0
sI2
F22.75
sI3
F11.0
sI4
F1.0
sI5
F1.0
sI7
F1.0
sI8
F2.5
sI10
F1.0
sI11
F7.0
sI12
F1.0
sI13
F1.0
sI14
F100.0
sI15
F809.0
sI16
F1.0
sI30
F1.0
ssbsg15
g0
(g16
g2
Ntp1306
Rp1307
(dp1308
g20
I1
sbsba(ics475_types
Instance
p1309
(dp1310
g10
(ics475_types
FeatureVector
p1311
(dp1312
g13
(dp1313
I1
F1.0
sI2
F18.42
sI3
F9.25
sI4
F1.0
sI5
F1.0
sI7
F1.0
sI8
F1.21
sI10
F1.0
sI11
F4.0
sI13
F1.0
sI14
F60.0
sI15
F540.0
sI21
F1.0
sI33
F1.0
sI30
F1.0
ssbsg15
g0
(g16
g2
Ntp1314
Rp1315
(dp1316
g20
I1
sbsba(ics475_types
Instance
p1317
(dp1318
g10
(ics475_types
FeatureVector
p1319
(dp1320
g13
(dp1321
I1
F1.0
sI2
F15.83
sI3
F0.585
sI4
F1.0
sI5
F1.0
sI6
F1.0
sI33
F1.0
sI8
F1.5
sI10
F1.0
sI11
F2.0
sI13
F1.0
sI14
F100.0
sI21
F1.0
sI27
F1.0
ssbsg15
g0
(g16
g2
Ntp1322
Rp1323
(dp1324
g20
I1
sbsba(ics475_types
Instance
p1325
(dp1326
g10
(ics475_types
FeatureVector
p1327
(dp1328
g13
(dp1329
I33
F1.0
sI2
F54.33
sI3
F6.75
sI4
F1.0
sI5
F1.0
sI6
F1.0
sI8
F2.625
sI10
F1.0
sI11
F11.0
sI12
F1.0
sI13
F1.0
sI15
F284.0
sI16
F1.0
sI27
F1.0
ssbsg15
g0
(g16
g2
Ntp1330
Rp1331
(dp1332
g20
I1
sbsba(ics475_types
Instance
p1333
(dp1334
g10
(ics475_types
FeatureVector
p1335
(dp1336
g13
(dp1337
I33
F1.0
sI2
F22.58
sI3
F10.04
sI4
F1.0
sI5
F1.0
sI7
F1.0
sI8
F0.04
sI10
F1.0
sI11
F9.0
sI13
F1.0
sI14
F60.0
sI15
F396.0
sI16
F1.0
sI21
F1.0
sI39
F1.0
ssbsg15
g0
(g16
g2
Ntp1338
Rp1339
(dp1340
g20
I1
sbsba(ics475_types
Instance
p1341
(dp1342
g10
(ics475_types
FeatureVector
p1343
(dp1344
g13
(dp1345
I1
F1.0
sI2
F52.83
sI3
F15.0
sI4
F1.0
sI5
F1.0
sI6
F1.0
sI7
F1.0
sI8
F5.5
sI10
F1.0
sI11
F14.0
sI13
F1.0
sI15
F2200.0
sI21
F1.0
sI33
F1.0
ssbsg15
g0
(g16
g2
Ntp1346
Rp1347
(dp1348
g20
I1
sbsba(ics475_types
Instance
p1349
(dp1350
g10
(ics475_types
FeatureVector
p1351
(dp1352
g13
(dp1353
I1
F1.0
sI2
F20.75
sI3
F10.335
sI4
F1.0
sI5
F1.0
sI33
F1.0
sI8
F0.335
sI10
F1.0
sI11
F1.0
sI12
F1.0
sI13
F1.0
sI14
F80.0
sI15
F50.0
sI36
F1.0
sI27
F1.0
ssbsg15
g0
(g16
g2
Ntp1354
Rp1355
(dp1356
g20
I1
sbsba(ics475_types
Instance
p1357
(dp1358
g10
(ics475_types
FeatureVector
p1359
(dp1360
g13
(dp1361
I1
F1.0
sI2
F26.08
sI3
F8.665
sI4
F1.0
sI5
F1.0
sI7
F1.0
sI8
F1.415
sI13
F1.0
sI14
F160.0
sI15
F150.0
sI20
F1.0
sI21
F1.0
sI33
F1.0
sI37
F1.0
ssbsg15
g0
(g16
g2
Ntp1362
Rp1363
(dp1364
g20
I1
sbsba(ics475_types
Instance
p1365
(dp1366
g10
(ics475_types
FeatureVector
p1367
(dp1368
g13
(dp1369
I1
F1.0
sI2
F17.33
sI3
F9.5
sI4
F1.0
sI5
F1.0
sI7
F1.0
sI8
F1.75
sI9
F1.0
sI10
F1.0
sI11
F10.0
sI12
F1.0
sI13
F1.0
sI15
F10.0
sI37
F1.0
ssbsg15
g0
(g16
g2
Ntp1370
Rp1371
(dp1372
g20
I0
sbsba(ics475_types
Instance
p1373
(dp1374
g10
(ics475_types
FeatureVector
p1375
(dp1376
g13
(dp1377
I1
F1.0
sI2
F24.5
sI3
F2.415
sI6
F1.0
sI7
F1.0
sI9
F1.0
sI13
F1.0
sI14
F120.0
sI17
F1.0
sI18
F1.0
sI20
F1.0
sI21
F1.0
ssbsg15
g0
(g16
g2
Ntp1378
Rp1379
(dp1380
g20
I0
sbsba(ics475_types
Instance
p1381
(dp1382
g10
(ics475_types
FeatureVector
p1383
(dp1384
g13
(dp1385
I1
F1.0
sI2
F27.25
sI3
F0.29
sI4
F1.0
sI5
F1.0
sI8
F0.125
sI9
F1.0
sI10
F1.0
sI11
F1.0
sI12
F1.0
sI13
F1.0
sI14
F272.0
sI15
F108.0
sI35
F1.0
sI27
F1.0
ssbsg15
g0
(g16
g2
Ntp1386
Rp1387
(dp1388
g20
I0
sbsba(ics475_types
Instance
p1389
(dp1390
g10
(ics475_types
FeatureVector
p1391
(dp1392
g13
(dp1393
I2
F28.58
sI3
F3.625
sI4
F1.0
sI5
F1.0
sI7
F1.0
sI8
F0.25
sI9
F1.0
sI12
F1.0
sI13
F1.0
sI14
F100.0
sI16
F1.0
sI20
F1.0
sI37
F1.0
ssbsg15
g0
(g16
g2
Ntp1394
Rp1395
(dp1396
g20
I0
sbsba(ics475_types
Instance
p1397
(dp1398
g10
(ics475_types
FeatureVector
p1399
(dp1400
g13
(dp1401
I32
F1.0
sI1
F1.0
sI2
F41.33
sI3
F1.0
sI4
F1.0
sI5
F1.0
sI33
F1.0
sI8
F2.25
sI12
F1.0
sI13
F1.0
sI15
F300.0
sI20
F1.0
sI25
F1.0
ssbsg15
g0
(g16
g2
Ntp1402
Rp1403
(dp1404
g20
I1
sbsba(ics475_types
Instance
p1405
(dp1406
g10
(ics475_types
FeatureVector
p1407
(dp1408
g13
(dp1409
I32
F1.0
sI2
F19.33
sI3
F10.915
sI4
F1.0
sI5
F1.0
sI6
F1.0
sI8
F0.585
sI9
F1.0
sI10
F1.0
sI11
F2.0
sI12
F1.0
sI13
F1.0
sI14
F200.0
sI15
F7.0
sI16
F1.0
ssbsg15
g0
(g16
g2
Ntp1410
Rp1411
(dp1412
g20
I0
sbsba(ics475_types
Instance
p1413
(dp1414
g10
(ics475_types
FeatureVector
p1415
(dp1416
g13
(dp1417
I1
F1.0
sI2
F24.83
sI3
F4.5
sI4
F1.0
sI5
F1.0
sI7
F1.0
sI8
F1.0
sI9
F1.0
sI12
F1.0
sI13
F1.0
sI14
F360.0
sI15
F6.0
sI20
F1.0
sI31
F1.0
ssbsg15
g0
(g16
g2
Ntp1418
Rp1419
(dp1420
g20
I0
sbsba(ics475_types
Instance
p1421
(dp1422
g10
(ics475_types
FeatureVector
p1423
(dp1424
g13
(dp1425
I32
F1.0
sI2
F26.92
sI3
F2.25
sI4
F1.0
sI5
F1.0
sI8
F0.5
sI9
F1.0
sI12
F1.0
sI13
F1.0
sI14
F640.0
sI15
F4000.0
sI16
F1.0
sI20
F1.0
sI25
F1.0
ssbsg15
g0
(g16
g2
Ntp1426
Rp1427
(dp1428
g20
I0
sbsba(ics475_types
Instance
p1429
(dp1430
g10
(ics475_types
FeatureVector
p1431
(dp1432
g13
(dp1433
I33
F1.0
sI2
F27.83
sI3
F4.0
sI8
F5.75
sI10
F1.0
sI11
F2.0
sI12
F1.0
sI13
F1.0
sI14
F75.0
sI16
F1.0
sI17
F1.0
sI18
F1.0
sI25
F1.0
sI27
F1.0
ssbsg15
g0
(g16
g2
Ntp1434
Rp1435
(dp1436
g20
I0
sbsba(ics475_types
Instance
p1437
(dp1438
g10
(ics475_types
FeatureVector
p1439
(dp1440
g13
(dp1441
I2
F29.42
sI3
F1.25
sI4
F1.0
sI5
F1.0
sI7
F1.0
sI8
F1.75
sI9
F1.0
sI13
F1.0
sI14
F200.0
sI16
F1.0
sI20
F1.0
sI21
F1.0
sI31
F1.0
ssbsg15
g0
(g16
g2
Ntp1442
Rp1443
(dp1444
g20
I0
sbsba(ics475_types
Instance
p1445
(dp1446
g10
(ics475_types
FeatureVector
p1447
(dp1448
g13
(dp1449
I2
F41.17
sI3
F1.335
sI4
F1.0
sI5
F1.0
sI7
F1.0
sI8
F0.165
sI9
F1.0
sI13
F1.0
sI14
F168.0
sI16
F1.0
sI34
F1.0
sI20
F1.0
sI21
F1.0
ssbsg15
g0
(g16
g2
Ntp1450
Rp1451
(dp1452
g20
I0
sbsba(ics475_types
Instance
p1453
(dp1454
g10
(ics475_types
FeatureVector
p1455
(dp1456
g13
(dp1457
I2
F20.0
sI34
F1.0
sI4
F1.0
sI5
F1.0
sI7
F1.0
sI8
F0.5
sI9
F1.0
sI13
F1.0
sI14
F144.0
sI16
F1.0
sI20
F1.0
sI21
F1.0
ssbsg15
g0
(g16
g2
Ntp1458
Rp1459
(dp1460
g20
I0
sbsba(ics475_types
Instance
p1461
(dp1462
g10
(ics475_types
FeatureVector
p1463
(dp1464
g13
(dp1465
I1
F1.0
sI2
F28.5
sI3
F1.0
sI4
F1.0
sI5
F1.0
sI7
F1.0
sI8
F1.0
sI10
F1.0
sI11
F2.0
sI12
F1.0
sI13
F1.0
sI14
F167.0
sI15
F500.0
sI33
F1.0
sI30
F1.0
ssbsg15
g0
(g16
g2
Ntp1466
Rp1467
(dp1468
g20
I0
sbsba(ics475_types
Instance
p1469
(dp1470
g10
(ics475_types
FeatureVector
p1471
(dp1472
g13
(dp1473
I1
F1.0
sI2
F22.92
sI3
F1.25
sI4
F1.0
sI5
F1.0
sI7
F1.0
sI8
F0.25
sI9
F1.0
sI12
F1.0
sI13
F1.0
sI14
F120.0
sI15
F809.0
sI20
F1.0
sI30
F1.0
ssbsg15
g0
(g16
g2
Ntp1474
Rp1475
(dp1476
g20
I0
sbsba(ics475_types
Instance
p1477
(dp1478
g10
(ics475_types
FeatureVector
p1479
(dp1480
g13
(dp1481
I1
F1.0
sI2
F58.67
sI3
F4.46
sI4
F1.0
sI5
F1.0
sI33
F1.0
sI8
F3.04
sI10
F1.0
sI11
F6.0
sI13
F1.0
sI14
F43.0
sI15
F560.0
sI21
F1.0
sI27
F1.0
sI30
F1.0
ssbsg15
g0
(g16
g2
Ntp1482
Rp1483
(dp1484
g20
I1
sbsba(ics475_types
Instance
p1485
(dp1486
g10
(ics475_types
FeatureVector
p1487
(dp1488
g13
(dp1489
I33
F1.0
sI2
F23.42
sI3
F0.585
sI4
F1.0
sI5
F1.0
sI6
F1.0
sI8
F0.085
sI13
F1.0
sI14
F180.0
sI16
F1.0
sI20
F1.0
sI21
F1.0
sI27
F1.0
ssbsg15
g0
(g16
g2
Ntp1490
Rp1491
(dp1492
g20
I0
sbsba(ics475_types
Instance
p1493
(dp1494
g10
(ics475_types
FeatureVector
p1495
(dp1496
g13
(dp1497
I1
F1.0
sI2
F16.5
sI3
F1.25
sI4
F1.0
sI5
F1.0
sI7
F1.0
sI8
F0.25
sI9
F1.0
sI10
F1.0
sI11
F1.0
sI13
F1.0
sI14
F108.0
sI15
F98.0
sI21
F1.0
sI30
F1.0
ssbsg15
g0
(g16
g2
Ntp1498
Rp1499
(dp1500
g20
I0
sbsba(ics475_types
Instance
p1501
(dp1502
g10
(ics475_types
FeatureVector
p1503
(dp1504
g13
(dp1505
I1
F1.0
sI2
F21.67
sI3
F11.5
sI33
F1.0
sI10
F1.0
sI11
F11.0
sI12
F1.0
sI13
F1.0
sI17
F1.0
sI18
F1.0
sI28
F1.0
sI29
F1.0
ssbsg15
g0
(g16
g2
Ntp1506
Rp1507
(dp1508
g20
I1
sbsba(ics475_types
Instance
p1509
(dp1510
g10
(ics475_types
FeatureVector
p1511
(dp1512
g13
(dp1513
I1
F1.0
sI2
F22.92
sI3
F11.585
sI4
F1.0
sI5
F1.0
sI7
F1.0
sI8
F0.04
sI13
F1.0
sI14
F80.0
sI15
F1349.0
sI20
F1.0
sI21
F1.0
sI36
F1.0
sI33
F1.0
ssbsg15
g0
(g16
g2
Ntp1514
Rp1515
(dp1516
g20
I1
sbsba(ics475_types
Instance
p1517
(dp1518
g10
(ics475_types
FeatureVector
p1519
(dp1520
g13
(dp1521
I33
F1.0
sI2
F42.5
sI3
F4.915
sI7
F1.0
sI8
F3.165
sI12
F1.0
sI13
F1.0
sI14
F52.0
sI15
F1442.0
sI16
F1.0
sI17
F1.0
sI18
F1.0
sI20
F1.0
sI31
F1.0
ssbsg15
g0
(g16
g2
Ntp1522
Rp1523
(dp1524
g20
I1
sbsba(ics475_types
Instance
p1525
(dp1526
g10
(ics475_types
FeatureVector
p1527
(dp1528
g13
(dp1529
I2
F30.58
sI3
F2.71
sI7
F1.0
sI8
F0.125
sI9
F1.0
sI12
F1.0
sI14
F80.0
sI16
F1.0
sI17
F1.0
sI18
F1.0
sI35
F1.0
sI20
F1.0
sI22
F1.0
ssbsg15
g0
(g16
g2
Ntp1530
Rp1531
(dp1532
g20
I0
sbsba(ics475_types
Instance
p1533
(dp1534
g10
(ics475_types
FeatureVector
p1535
(dp1536
g13
(dp1537
I33
F1.0
sI2
F39.83
sI3
F0.5
sI4
F1.0
sI5
F1.0
sI7
F1.0
sI8
F0.25
sI14
F288.0
sI16
F1.0
sI35
F1.0
sI20
F1.0
sI21
F1.0
sI22
F1.0
ssbsg15
g0
(g16
g2
Ntp1538
Rp1539
(dp1540
g20
I0
sbsba(ics475_types
Instance
p1541
(dp1542
g10
(ics475_types
FeatureVector
p1543
(dp1544
g13
(dp1545
I32
F1.0
sI1
F1.0
sI2
F24.33
sI3
F2.5
sI8
F4.5
sI9
F1.0
sI13
F1.0
sI14
F200.0
sI15
F456.0
sI17
F1.0
sI18
F1.0
sI20
F1.0
sI21
F1.0
sI25
F1.0
ssbsg15
g0
(g16
g2
Ntp1546
Rp1547
(dp1548
g20
I0
sbsba(ics475_types
Instance
p1549
(dp1550
g10
(ics475_types
FeatureVector
p1551
(dp1552
g13
(dp1553
I2
F28.17
sI3
F0.125
sI7
F1.0
sI8
F0.085
sI9
F1.0
sI13
F1.0
sI14
F216.0
sI15
F2100.0
sI16
F1.0
sI17
F1.0
sI18
F1.0
sI19
F1.0
sI20
F1.0
sI21
F1.0
ssbsg15
g0
(g16
g2
Ntp1554
Rp1555
(dp1556
g20
I0
sbsba(ics475_types
Instance
p1557
(dp1558
g10
(ics475_types
FeatureVector
p1559
(dp1560
g13
(dp1561
I2
F23.08
sI3
F2.5
sI4
F1.0
sI5
F1.0
sI8
F0.085
sI9
F1.0
sI12
F1.0
sI13
F1.0
sI14
F100.0
sI15
F4208.0
sI16
F1.0
sI20
F1.0
sI23
F1.0
sI24
F1.0
ssbsg15
g0
(g16
g2
Ntp1562
Rp1563
(dp1564
g20
I0
sbsba(ics475_types
Instance
p1565
(dp1566
g10
(ics475_types
FeatureVector
p1567
(dp1568
g13
(dp1569
I1
F1.0
sI2
F19.5
sI3
F0.165
sI4
F1.0
sI5
F1.0
sI7
F1.0
sI8
F0.04
sI9
F1.0
sI12
F1.0
sI13
F1.0
sI14
F380.0
sI20
F1.0
sI30
F1.0
ssbsg15
g0
(g16
g2
Ntp1570
Rp1571
(dp1572
g20
I0
sbsba(ics475_types
Instance
p1573
(dp1574
g10
(ics475_types
FeatureVector
p1575
(dp1576
g13
(dp1577
I1
F1.0
sI2
F52.5
sI3
F7.0
sI4
F1.0
sI5
F1.0
sI8
F3.0
sI9
F1.0
sI13
F1.0
sI20
F1.0
sI21
F1.0
sI27
F1.0
sI37
F1.0
ssbsg15
g0
(g16
g2
Ntp1578
Rp1579
(dp1580
g20
I0
sbsba(ics475_types
Instance
p1581
(dp1582
g10
(ics475_types
FeatureVector
p1583
(dp1584
g13
(dp1585
I33
F1.0
sI2
F29.25
sI3
F14.79
sI4
F1.0
sI5
F1.0
sI7
F1.0
sI8
F5.04
sI10
F1.0
sI11
F5.0
sI12
F1.0
sI13
F1.0
sI14
F168.0
sI16
F1.0
sI37
F1.0
ssbsg15
g0
(g16
g2
Ntp1586
Rp1587
(dp1588
g20
I1
sbsba(ics475_types
Instance
p1589
(dp1590
g10
(ics475_types
FeatureVector
p1591
(dp1592
g13
(dp1593
I2
F26.17
sI3
F0.835
sI4
F1.0
sI5
F1.0
sI7
F1.0
sI8
F1.165
sI9
F1.0
sI13
F1.0
sI14
F100.0
sI16
F1.0
sI20
F1.0
sI21
F1.0
sI36
F1.0
ssbsg15
g0
(g16
g2
Ntp1594
Rp1595
(dp1596
g20
I0
sbsba(ics475_types
Instance
p1597
(dp1598
g10
(ics475_types
FeatureVector
p1599
(dp1600
g13
(dp1601
I33
F1.0
sI2
F38.58
sI3
F3.335
sI4
F1.0
sI5
F1.0
sI7
F1.0
sI8
F4.0
sI10
F1.0
sI11
F14.0
sI13
F1.0
sI14
F383.0
sI15
F1344.0
sI16
F1.0
sI21
F1.0
sI31
F1.0
ssbsg15
g0
(g16
g2
Ntp1602
Rp1603
(dp1604
g20
I1
sbsba(ics475_types
Instance
p1605
(dp1606
g10
(ics475_types
FeatureVector
p1607
(dp1608
g13
(dp1609
I33
F1.0
sI2
F32.25
sI3
F0.165
sI6
F1.0
sI8
F3.25
sI10
F1.0
sI11
F1.0
sI12
F1.0
sI13
F1.0
sI14
F432.0
sI15
F8000.0
sI16
F1.0
sI17
F1.0
sI18
F1.0
sI27
F1.0
ssbsg15
g0
(g16
g2
Ntp1610
Rp1611
(dp1612
g20
I1
sbsba(ics475_types
Instance
p1613
(dp1614
g10
(ics475_types
FeatureVector
p1615
(dp1616
g13
(dp1617
I2
F32.42
sI3
F2.165
sI9
F1.0
sI13
F1.0
sI14
F120.0
sI16
F1.0
sI17
F1.0
sI18
F1.0
sI19
F1.0
sI20
F1.0
sI21
F1.0
sI24
F1.0
ssbsg15
g0
(g16
g2
Ntp1618
Rp1619
(dp1620
g20
I0
sbsba(ics475_types
Instance
p1621
(dp1622
g10
(ics475_types
FeatureVector
p1623
(dp1624
g13
(dp1625
I33
F1.0
sI2
F20.67
sI3
F1.25
sI6
F1.0
sI8
F1.375
sI10
F1.0
sI11
F3.0
sI12
F1.0
sI13
F1.0
sI14
F140.0
sI15
F210.0
sI16
F1.0
sI17
F1.0
sI18
F1.0
sI27
F1.0
ssbsg15
g0
(g16
g2
Ntp1626
Rp1627
(dp1628
g20
I0
sbsba(ics475_types
Instance
p1629
(dp1630
g10
(ics475_types
FeatureVector
p1631
(dp1632
g13
(dp1633
I33
F1.0
sI2
F39.17
sI3
F1.625
sI4
F1.0
sI5
F1.0
sI6
F1.0
sI7
F1.0
sI8
F1.5
sI10
F1.0
sI11
F10.0
sI13
F1.0
sI14
F186.0
sI15
F4700.0
sI16
F1.0
sI21
F1.0
ssbsg15
g0
(g16
g2
Ntp1634
Rp1635
(dp1636
g20
I1
sbsba(ics475_types
Instance
p1637
(dp1638
g10
(ics475_types
FeatureVector
p1639
(dp1640
g13
(dp1641
I2
F21.17
sI3
F0.25
sI6
F1.0
sI8
F0.25
sI9
F1.0
sI13
F1.0
sI14
F280.0
sI15
F204.0
sI16
F1.0
sI17
F1.0
sI18
F1.0
sI20
F1.0
sI21
F1.0
sI27
F1.0
ssbsg15
g0
(g16
g2
Ntp1642
Rp1643
(dp1644
g20
I0
sbsba(ics475_types
Instance
p1645
(dp1646
g10
(ics475_types
FeatureVector
p1647
(dp1648
g13
(dp1649
I2
F17.08
sI3
F0.25
sI4
F1.0
sI5
F1.0
sI7
F1.0
sI8
F0.335
sI9
F1.0
sI10
F1.0
sI11
F4.0
sI13
F1.0
sI14
F160.0
sI15
F8.0
sI16
F1.0
sI21
F1.0
sI30
F1.0
ssbsg15
g0
(g16
g2
Ntp1650
Rp1651
(dp1652
g20
I0
sbsba(ics475_types
Instance
p1653
(dp1654
g10
(ics475_types
FeatureVector
p1655
(dp1656
g13
(dp1657
I33
F1.0
sI2
F33.17
sI3
F3.04
sI6
F1.0
sI8
F2.04
sI10
F1.0
sI11
F1.0
sI12
F1.0
sI13
F1.0
sI14
F180.0
sI15
F18027.0
sI16
F1.0
sI17
F1.0
sI18
F1.0
sI27
F1.0
ssbsg15
g0
(g16
g2
Ntp1658
Rp1659
(dp1660
g20
I1
sbsba(ics475_types
Instance
p1661
(dp1662
g10
(ics475_types
FeatureVector
p1663
(dp1664
g13
(dp1665
I1
F1.0
sI2
F38.33
sI3
F4.415
sI4
F1.0
sI5
F1.0
sI6
F1.0
sI7
F1.0
sI8
F0.125
sI9
F1.0
sI13
F1.0
sI14
F160.0
sI20
F1.0
sI21
F1.0
ssbsg15
g0
(g16
g2
Ntp1666
Rp1667
(dp1668
g20
I0
sbsba(ics475_types
Instance
p1669
(dp1670
g10
(ics475_types
FeatureVector
p1671
(dp1672
g13
(dp1673
I1
F1.0
sI2
F33.25
sI3
F3.0
sI37
F1.0
sI7
F1.0
sI8
F2.0
sI9
F1.0
sI13
F1.0
sI14
F180.0
sI17
F1.0
sI18
F1.0
sI20
F1.0
sI21
F1.0
ssbsg15
g0
(g16
g2
Ntp1674
Rp1675
(dp1676
g20
I0
sbsba(ics475_types
Instance
p1677
(dp1678
g10
(ics475_types
FeatureVector
p1679
(dp1680
g13
(dp1681
I2
F19.5
sI3
F9.585
sI4
F1.0
sI5
F1.0
sI7
F1.0
sI8
F0.79
sI9
F1.0
sI13
F1.0
sI14
F80.0
sI15
F350.0
sI16
F1.0
sI20
F1.0
sI21
F1.0
sI37
F1.0
ssbsg15
g0
(g16
g2
Ntp1682
Rp1683
(dp1684
g20
I0
sbsba(ics475_types
Instance
p1685
(dp1686
g10
(ics475_types
FeatureVector
p1687
(dp1688
g13
(dp1689
I1
F1.0
sI2
F37.75
sI3
F5.5
sI4
F1.0
sI5
F1.0
sI7
F1.0
sI8
F0.125
sI12
F1.0
sI13
F1.0
sI14
F228.0
sI20
F1.0
sI33
F1.0
sI30
F1.0
ssbsg15
g0
(g16
g2
Ntp1690
Rp1691
(dp1692
g20
I1
sbsba(ics475_types
Instance
p1693
(dp1694
g10
(ics475_types
FeatureVector
p1695
(dp1696
g13
(dp1697
I2
F29.25
sI3
F13.0
sI4
F1.0
sI5
F1.0
sI8
F0.5
sI9
F1.0
sI13
F1.0
sI14
F228.0
sI16
F1.0
sI34
F1.0
sI20
F1.0
sI21
F1.0
sI27
F1.0
ssbsg15
g0
(g16
g2
Ntp1698
Rp1699
(dp1700
g20
I0
sbsba(ics475_types
Instance
p1701
(dp1702
g10
(ics475_types
FeatureVector
p1703
(dp1704
g13
(dp1705
I1
F1.0
sI2
F19.17
sI3
F8.585
sI4
F1.0
sI5
F1.0
sI33
F1.0
sI8
F0.75
sI10
F1.0
sI11
F7.0
sI13
F1.0
sI14
F96.0
sI21
F1.0
sI36
F1.0
sI27
F1.0
ssbsg15
g0
(g16
g2
Ntp1706
Rp1707
(dp1708
g20
I1
sbsba(ics475_types
Instance
p1709
(dp1710
g10
(ics475_types
FeatureVector
p1711
(dp1712
g13
(dp1713
I2
F20.75
sI3
F5.085
sI7
F1.0
sI8
F0.29
sI9
F1.0
sI13
F1.0
sI14
F140.0
sI15
F184.0
sI16
F1.0
sI17
F1.0
sI18
F1.0
sI20
F1.0
sI21
F1.0
sI28
F1.0
ssbsg15
g0
(g16
g2
Ntp1714
Rp1715
(dp1716
g20
I0
sbsba(ics475_types
Instance
p1717
(dp1718
g10
(ics475_types
FeatureVector
p1719
(dp1720
g13
(dp1721
I1
F1.0
sI2
F27.67
sI3
F1.5
sI4
F1.0
sI5
F1.0
sI7
F1.0
sI8
F2.0
sI14
F368.0
sI35
F1.0
sI20
F1.0
sI21
F1.0
sI22
F1.0
sI33
F1.0
ssbsg15
g0
(g16
g2
Ntp1722
Rp1723
(dp1724
g20
I0
sbsba(ics475_types
Instance
p1725
(dp1726
g10
(ics475_types
FeatureVector
p1727
(dp1728
g13
(dp1729
I33
F1.0
sI2
F39.08
sI3
F6.0
sI4
F1.0
sI5
F1.0
sI7
F1.0
sI8
F1.29
sI10
F1.0
sI11
F5.0
sI12
F1.0
sI13
F1.0
sI14
F108.0
sI15
F1097.0
sI16
F1.0
sI35
F1.0
ssbsg15
g0
(g16
g2
Ntp1730
Rp1731
(dp1732
g20
I1
sbsba(ics475_types
Instance
p1733
(dp1734
g10
(ics475_types
FeatureVector
p1735
(dp1736
g13
(dp1737
I33
F1.0
sI2
F52.5
sI3
F6.5
sI4
F1.0
sI5
F1.0
sI7
F1.0
sI8
F6.29
sI10
F1.0
sI11
F15.0
sI13
F1.0
sI15
F11202.0
sI16
F1.0
sI19
F1.0
sI21
F1.0
ssbsg15
g0
(g16
g2
Ntp1738
Rp1739
(dp1740
g20
I1
sbsba(ics475_types
Instance
p1741
(dp1742
g10
(ics475_types
FeatureVector
p1743
(dp1744
g13
(dp1745
I1
F1.0
sI2
F46.67
sI3
F0.46
sI4
F1.0
sI5
F1.0
sI33
F1.0
sI8
F0.415
sI10
F1.0
sI11
F11.0
sI12
F1.0
sI13
F1.0
sI14
F440.0
sI15
F6.0
sI36
F1.0
sI27
F1.0
ssbsg15
g0
(g16
g2
Ntp1746
Rp1747
(dp1748
g20
I1
sbsba(ics475_types
Instance
p1749
(dp1750
g10
(ics475_types
FeatureVector
p1751
(dp1752
g13
(dp1753
I2
F29.83
sI3
F2.04
sI39
F1.0
sI8
F0.04
sI9
F1.0
sI13
F1.0
sI14
F128.0
sI15
F1.0
sI16
F1.0
sI17
F1.0
sI18
F1.0
sI20
F1.0
sI21
F1.0
sI27
F1.0
ssbsg15
g0
(g16
g2
Ntp1754
Rp1755
(dp1756
g20
I0
sbsba(ics475_types
Instance
p1757
(dp1758
g10
(ics475_types
FeatureVector
p1759
(dp1760
g13
(dp1761
I1
F1.0
sI2
F38.25
sI3
F6.0
sI4
F1.0
sI5
F1.0
sI7
F1.0
sI8
F1.0
sI12
F1.0
sI13
F1.0
sI19
F1.0
sI20
F1.0
sI33
F1.0
ssbsg15
g0
(g16
g2
Ntp1762
Rp1763
(dp1764
g20
I1
sbsba(ics475_types
Instance
p1765
(dp1766
g10
(ics475_types
FeatureVector
p1767
(dp1768
g13
(dp1769
I1
F1.0
sI2
F34.83
sI3
F1.25
sI8
F0.5
sI9
F1.0
sI12
F1.0
sI13
F1.0
sI14
F160.0
sI17
F1.0
sI18
F1.0
sI20
F1.0
sI25
F1.0
sI27
F1.0
ssbsg15
g0
(g16
g2
Ntp1770
Rp1771
(dp1772
g20
I0
sbsba(ics475_types
Instance
p1773
(dp1774
g10
(ics475_types
FeatureVector
p1775
(dp1776
g13
(dp1777
I1
F1.0
sI2
F44.33
sI4
F1.0
sI5
F1.0
sI6
F1.0
sI7
F1.0
sI8
F2.5
sI13
F1.0
sI20
F1.0
sI21
F1.0
sI33
F1.0
ssbsg15
g0
(g16
g2
Ntp1778
Rp1779
(dp1780
g20
I1
sbsba(ics475_types
Instance
p1781
(dp1782
g10
(ics475_types
FeatureVector
p1783
(dp1784
g13
(dp1785
I33
F1.0
sI2
F26.75
sI3
F1.125
sI4
F1.0
sI5
F1.0
sI39
F1.0
sI8
F1.25
sI13
F1.0
sI15
F5298.0
sI16
F1.0
sI20
F1.0
sI21
F1.0
sI27
F1.0
ssbsg15
g0
(g16
g2
Ntp1786
Rp1787
(dp1788
g20
I1
sbsba(ics475_types
Instance
p1789
(dp1790
g10
(ics475_types
FeatureVector
p1791
(dp1792
g13
(dp1793
I33
F1.0
sI2
F23.0
sI3
F0.625
sI37
F1.0
sI7
F1.0
sI8
F0.125
sI13
F1.0
sI14
F180.0
sI15
F1.0
sI16
F1.0
sI17
F1.0
sI18
F1.0
sI20
F1.0
sI21
F1.0
ssbsg15
g0
(g16
g2
Ntp1794
Rp1795
(dp1796
g20
I0
sbsba(ics475_types
Instance
p1797
(dp1798
g10
(ics475_types
FeatureVector
p1799
(dp1800
g13
(dp1801
I32
F1.0
sI1
F1.0
sI2
F58.42
sI3
F21.0
sI4
F1.0
sI5
F1.0
sI33
F1.0
sI8
F10.0
sI10
F1.0
sI11
F13.0
sI13
F1.0
sI15
F6700.0
sI21
F1.0
sI25
F1.0
ssbsg15
g0
(g16
g2
Ntp1802
Rp1803
(dp1804
g20
I1
sbsba(ics475_types
Instance
p1805
(dp1806
g10
(ics475_types
FeatureVector
p1807
(dp1808
g13
(dp1809
I1
F1.0
sI2
F28.58
sI3
F1.665
sI4
F1.0
sI5
F1.0
sI7
F1.0
sI8
F2.415
sI12
F1.0
sI13
F1.0
sI14
F440.0
sI20
F1.0
sI33
F1.0
sI30
F1.0
ssbsg15
g0
(g16
g2
Ntp1810
Rp1811
(dp1812
g20
I0
sbsba(ics475_types
Instance
p1813
(dp1814
g10
(ics475_types
FeatureVector
p1815
(dp1816
g13
(dp1817
I2
F20.0
sI3
F7.0
sI4
F1.0
sI5
F1.0
sI6
F1.0
sI7
F1.0
sI8
F0.5
sI9
F1.0
sI13
F1.0
sI16
F1.0
sI20
F1.0
sI21
F1.0
ssbsg15
g0
(g16
g2
Ntp1818
Rp1819
(dp1820
g20
I0
sbsba(ics475_types
Instance
p1821
(dp1822
g10
(ics475_types
FeatureVector
p1823
(dp1824
g13
(dp1825
I1
F1.0
sI2
F48.17
sI3
F1.335
sI4
F1.0
sI5
F1.0
sI8
F0.335
sI9
F1.0
sI13
F1.0
sI15
F120.0
sI20
F1.0
sI21
F1.0
sI25
F1.0
sI26
F1.0
ssbsg15
g0
(g16
g2
Ntp1826
Rp1827
(dp1828
g20
I0
sbsba(ics475_types
Instance
p1829
(dp1830
g10
(ics475_types
FeatureVector
p1831
(dp1832
g13
(dp1833
I33
F1.0
sI2
F22.33
sI3
F11.0
sI4
F1.0
sI5
F1.0
sI7
F1.0
sI8
F2.0
sI10
F1.0
sI11
F1.0
sI13
F1.0
sI14
F80.0
sI15
F278.0
sI16
F1.0
sI21
F1.0
sI31
F1.0
ssbsg15
g0
(g16
g2
Ntp1834
Rp1835
(dp1836
g20
I1
sbsba(ics475_types
Instance
p1837
(dp1838
g10
(ics475_types
FeatureVector
p1839
(dp1840
g13
(dp1841
I2
F21.92
sI3
F0.5
sI4
F1.0
sI5
F1.0
sI6
F1.0
sI7
F1.0
sI8
F0.125
sI9
F1.0
sI13
F1.0
sI14
F360.0
sI16
F1.0
sI20
F1.0
sI21
F1.0
ssbsg15
g0
(g16
g2
Ntp1842
Rp1843
(dp1844
g20
I0
sbsba(ics475_types
Instance
p1845
(dp1846
g10
(ics475_types
FeatureVector
p1847
(dp1848
g13
(dp1849
I1
F1.0
sI2
F23.75
sI3
F0.71
sI4
F1.0
sI5
F1.0
sI7
F1.0
sI8
F0.25
sI9
F1.0
sI10
F1.0
sI11
F1.0
sI12
F1.0
sI13
F1.0
sI14
F240.0
sI15
F4.0
sI31
F1.0
ssbsg15
g0
(g16
g2
Ntp1850
Rp1851
(dp1852
g20
I0
sbsba(ics475_types
Instance
p1853
(dp1854
g10
(ics475_types
FeatureVector
p1855
(dp1856
g13
(dp1857
I33
F1.0
sI2
F33.17
sI3
F1.0
sI4
F1.0
sI5
F1.0
sI7
F1.0
sI8
F0.75
sI10
F1.0
sI11
F7.0
sI12
F1.0
sI13
F1.0
sI14
F340.0
sI15
F4071.0
sI16
F1.0
sI39
F1.0
ssbsg15
g0
(g16
g2
Ntp1858
Rp1859
(dp1860
g20
I1
sbsba(ics475_types
Instance
p1861
(dp1862
g10
(ics475_types
FeatureVector
p1863
(dp1864
g13
(dp1865
I1
F1.0
sI2
F27.33
sI3
F1.665
sI4
F1.0
sI5
F1.0
sI9
F1.0
sI13
F1.0
sI14
F340.0
sI15
F1.0
sI20
F1.0
sI21
F1.0
sI23
F1.0
sI24
F1.0
ssbsg15
g0
(g16
g2
Ntp1866
Rp1867
(dp1868
g20
I0
sbsba(ics475_types
Instance
p1869
(dp1870
g10
(ics475_types
FeatureVector
p1871
(dp1872
g13
(dp1873
I1
F1.0
sI2
F25.25
sI3
F13.5
sI8
F2.0
sI9
F1.0
sI10
F1.0
sI11
F1.0
sI12
F1.0
sI13
F1.0
sI14
F200.0
sI15
F1.0
sI17
F1.0
sI18
F1.0
sI23
F1.0
sI24
F1.0
ssbsg15
g0
(g16
g2
Ntp1874
Rp1875
(dp1876
g20
I0
sbsba(ics475_types
Instance
p1877
(dp1878
g10
(ics475_types
FeatureVector
p1879
(dp1880
g13
(dp1881
I2
F21.83
sI3
F1.54
sI4
F1.0
sI5
F1.0
sI7
F1.0
sI8
F0.085
sI9
F1.0
sI12
F1.0
sI13
F1.0
sI14
F356.0
sI16
F1.0
sI19
F1.0
sI20
F1.0
ssbsg15
g0
(g16
g2
Ntp1882
Rp1883
(dp1884
g20
I0
sbsba(ics475_types
Instance
p1885
(dp1886
g10
(ics475_types
FeatureVector
p1887
(dp1888
g13
(dp1889
I2
F22.08
sI3
F0.83
sI4
F1.0
sI5
F1.0
sI6
F1.0
sI8
F2.165
sI9
F1.0
sI12
F1.0
sI13
F1.0
sI14
F128.0
sI16
F1.0
sI20
F1.0
sI27
F1.0
ssbsg15
g0
(g16
g2
Ntp1890
Rp1891
(dp1892
g20
I1
sbsba(ics475_types
Instance
p1893
(dp1894
g10
(ics475_types
FeatureVector
p1895
(dp1896
g13
(dp1897
I33
F1.0
sI2
F19.33
sI3
F9.5
sI4
F1.0
sI5
F1.0
sI7
F1.0
sI8
F1.0
sI12
F1.0
sI13
F1.0
sI14
F60.0
sI15
F400.0
sI16
F1.0
sI20
F1.0
sI30
F1.0
ssbsg15
g0
(g16
g2
Ntp1898
Rp1899
(dp1900
g20
I1
sbsba(ics475_types
Instance
p1901
(dp1902
g10
(ics475_types
FeatureVector
p1903
(dp1904
g13
(dp1905
I2
F49.17
sI3
F2.29
sI4
F1.0
sI5
F1.0
sI8
F0.29
sI9
F1.0
sI13
F1.0
sI14
F200.0
sI15
F3.0
sI16
F1.0
sI20
F1.0
sI21
F1.0
sI23
F1.0
sI24
F1.0
ssbsg15
g0
(g16
g2
Ntp1906
Rp1907
(dp1908
g20
I0
sbsba(ics475_types
Instance
p1909
(dp1910
g10
(ics475_types
FeatureVector
p1911
(dp1912
g13
(dp1913
I33
F1.0
sI2
F23.08
sI3
F11.5
sI4
F1.0
sI5
F1.0
sI7
F1.0
sI8
F3.5
sI10
F1.0
sI11
F9.0
sI13
F1.0
sI14
F56.0
sI15
F742.0
sI16
F1.0
sI21
F1.0
sI25
F1.0
ssbsg15
g0
(g16
g2
Ntp1914
Rp1915
(dp1916
g20
I1
sbsba(ics475_types
Instance
p1917
(dp1918
g10
(ics475_types
FeatureVector
p1919
(dp1920
g13
(dp1921
I1
F1.0
sI2
F60.58
sI3
F16.5
sI4
F1.0
sI5
F1.0
sI7
F1.0
sI8
F11.0
sI12
F1.0
sI13
F1.0
sI14
F21.0
sI15
F10561.0
sI20
F1.0
sI33
F1.0
sI30
F1.0
ssbsg15
g0
(g16
g2
Ntp1922
Rp1923
(dp1924
g20
I1
sbsba(ics475_types
Instance
p1925
(dp1926
g10
(ics475_types
FeatureVector
p1927
(dp1928
g13
(dp1929
I33
F1.0
sI2
F19.67
sI3
F0.375
sI4
F1.0
sI5
F1.0
sI7
F1.0
sI8
F2.0
sI10
F1.0
sI11
F2.0
sI12
F1.0
sI13
F1.0
sI14
F80.0
sI16
F1.0
sI30
F1.0
ssbsg15
g0
(g16
g2
Ntp1930
Rp1931
(dp1932
g20
I1
sbsba(ics475_types
Instance
p1933
(dp1934
g10
(ics475_types
FeatureVector
p1935
(dp1936
g13
(dp1937
I33
F1.0
sI2
F20.17
sI3
F8.17
sI4
F1.0
sI5
F1.0
sI7
F1.0
sI8
F1.96
sI10
F1.0
sI11
F14.0
sI13
F1.0
sI14
F60.0
sI15
F158.0
sI16
F1.0
sI21
F1.0
sI37
F1.0
ssbsg15
g0
(g16
g2
Ntp1938
Rp1939
(dp1940
g20
I1
sbsba(ics475_types
Instance
p1941
(dp1942
g10
(ics475_types
FeatureVector
p1943
(dp1944
g13
(dp1945
I33
F1.0
sI2
F34.25
sI3
F3.0
sI4
F1.0
sI5
F1.0
sI8
F7.415
sI12
F1.0
sI13
F1.0
sI16
F1.0
sI20
F1.0
sI36
F1.0
sI27
F1.0
ssbsg15
g0
(g16
g2
Ntp1946
Rp1947
(dp1948
g20
I1
sbsba(ics475_types
Instance
p1949
(dp1950
g10
(ics475_types
FeatureVector
p1951
(dp1952
g13
(dp1953
I2
F18.17
sI3
F2.46
sI4
F1.0
sI5
F1.0
sI6
F1.0
sI8
F0.96
sI9
F1.0
sI10
F1.0
sI11
F2.0
sI12
F1.0
sI13
F1.0
sI14
F160.0
sI15
F587.0
sI16
F1.0
sI40
F1.0
ssbsg15
g0
(g16
g2
Ntp1954
Rp1955
(dp1956
g20
I0
sbsba(ics475_types
Instance
p1957
(dp1958
g10
(ics475_types
FeatureVector
p1959
(dp1960
g13
(dp1961
I33
F1.0
sI2
F27.67
sI3
F2.0
sI4
F1.0
sI5
F1.0
sI39
F1.0
sI8
F1.0
sI10
F1.0
sI11
F4.0
sI13
F1.0
sI14
F140.0
sI15
F7544.0
sI16
F1.0
sI21
F1.0
sI27
F1.0
ssbsg15
g0
(g16
g2
Ntp1962
Rp1963
(dp1964
g20
I1
sbsba(ics475_types
Instance
p1965
(dp1966
g10
(ics475_types
FeatureVector
p1967
(dp1968
g13
(dp1969
I33
F1.0
sI2
F36.33
sI3
F2.125
sI7
F1.0
sI8
F0.085
sI10
F1.0
sI11
F1.0
sI13
F1.0
sI14
F50.0
sI15
F1187.0
sI16
F1.0
sI17
F1.0
sI18
F1.0
sI21
F1.0
sI31
F1.0
ssbsg15
g0
(g16
g2
Ntp1970
Rp1971
(dp1972
g20
I1
sbsba(ics475_types
Instance
p1973
(dp1974
g10
(ics475_types
FeatureVector
p1975
(dp1976
g13
(dp1977
I2
F20.0
sI3
F1.25
sI7
F1.0
sI8
F0.125
sI9
F1.0
sI13
F1.0
sI14
F140.0
sI15
F4.0
sI16
F1.0
sI17
F1.0
sI18
F1.0
sI19
F1.0
sI20
F1.0
sI21
F1.0
ssbsg15
g0
(g16
g2
Ntp1978
Rp1979
(dp1980
g20
I0
sbsba(ics475_types
Instance
p1981
(dp1982
g10
(ics475_types
FeatureVector
p1983
(dp1984
g13
(dp1985
I1
F1.0
sI2
F22.67
sI3
F0.75
sI4
F1.0
sI5
F1.0
sI6
F1.0
sI7
F1.0
sI8
F2.0
sI9
F1.0
sI10
F1.0
sI11
F2.0
sI12
F1.0
sI13
F1.0
sI14
F200.0
sI15
F394.0
ssbsg15
g0
(g16
g2
Ntp1986
Rp1987
(dp1988
g20
I0
sbsba(ics475_types
Instance
p1989
(dp1990
g10
(ics475_types
FeatureVector
p1991
(dp1992
g13
(dp1993
I2
F21.42
sI3
F0.75
sI38
F1.0
sI8
F0.75
sI9
F1.0
sI12
F1.0
sI13
F1.0
sI14
F132.0
sI15
F2.0
sI16
F1.0
sI17
F1.0
sI18
F1.0
sI20
F1.0
sI40
F1.0
ssbsg15
g0
(g16
g2
Ntp1994
Rp1995
(dp1996
g20
I0
sbsba(ics475_types
Instance
p1997
(dp1998
g10
(ics475_types
FeatureVector
p1999
(dp2000
g13
(dp2001
I2
F18.0
sI3
F0.165
sI4
F1.0
sI5
F1.0
sI8
F0.21
sI9
F1.0
sI13
F1.0
sI14
F200.0
sI15
F40.0
sI16
F1.0
sI40
F1.0
sI20
F1.0
sI21
F1.0
sI30
F1.0
ssbsg15
g0
(g16
g2
Ntp2002
Rp2003
(dp2004
g20
I1
sbsba(ics475_types
Instance
p2005
(dp2006
g10
(ics475_types
FeatureVector
p2007
(dp2008
g13
(dp2009
I2
F23.5
sI3
F3.165
sI7
F1.0
sI8
F0.415
sI9
F1.0
sI10
F1.0
sI11
F1.0
sI12
F1.0
sI13
F1.0
sI14
F280.0
sI15
F80.0
sI16
F1.0
sI17
F1.0
sI18
F1.0
sI19
F1.0
ssbsg15
g0
(g16
g2
Ntp2010
Rp2011
(dp2012
g20
I0
sbsba(ics475_types
Instance
p2013
(dp2014
g10
(ics475_types
FeatureVector
p2015
(dp2016
g13
(dp2017
I1
F1.0
sI2
F24.75
sI3
F12.5
sI4
F1.0
sI5
F1.0
sI7
F1.0
sI8
F1.5
sI10
F1.0
sI11
F12.0
sI12
F1.0
sI13
F1.0
sI14
F120.0
sI15
F567.0
sI33
F1.0
sI37
F1.0
ssbsg15
g0
(g16
g2
Ntp2018
Rp2019
(dp2020
g20
I1
sbsba(ics475_types
Instance
p2021
(dp2022
g10
(ics475_types
FeatureVector
p2023
(dp2024
g13
(dp2025
I2
F24.08
sI3
F9.0
sI4
F1.0
sI5
F1.0
sI7
F1.0
sI8
F0.25
sI9
F1.0
sI12
F1.0
sI13
F1.0
sI16
F1.0
sI20
F1.0
sI37
F1.0
ssbsg15
g0
(g16
g2
Ntp2026
Rp2027
(dp2028
g20
I0
sbsba(ics475_types
Instance
p2029
(dp2030
g10
(ics475_types
FeatureVector
p2031
(dp2032
g13
(dp2033
I33
F1.0
sI2
F48.58
sI3
F0.205
sI7
F1.0
sI8
F0.25
sI10
F1.0
sI11
F11.0
sI13
F1.0
sI14
F380.0
sI15
F2732.0
sI16
F1.0
sI17
F1.0
sI18
F1.0
sI19
F1.0
sI21
F1.0
ssbsg15
g0
(g16
g2
Ntp2034
Rp2035
(dp2036
g20
I1
sbsba(ics475_types
Instance
p2037
(dp2038
g10
(ics475_types
FeatureVector
p2039
(dp2040
g13
(dp2041
I33
F1.0
sI2
F52.33
sI3
F1.375
sI6
F1.0
sI8
F9.46
sI12
F1.0
sI13
F1.0
sI14
F200.0
sI15
F100.0
sI16
F1.0
sI17
F1.0
sI18
F1.0
sI20
F1.0
sI27
F1.0
ssbsg15
g0
(g16
g2
Ntp2042
Rp2043
(dp2044
g20
I0
sbsba(ics475_types
Instance
p2045
(dp2046
g10
(ics475_types
FeatureVector
p2047
(dp2048
g13
(dp2049
I2
F25.67
sI3
F3.25
sI4
F1.0
sI5
F1.0
sI6
F1.0
sI8
F2.29
sI9
F1.0
sI10
F1.0
sI11
F1.0
sI12
F1.0
sI13
F1.0
sI14
F416.0
sI15
F21.0
sI16
F1.0
sI27
F1.0
ssbsg15
g0
(g16
g2
Ntp2050
Rp2051
(dp2052
g20
I0
sbsba(ics475_types
Instance
p2053
(dp2054
g10
(ics475_types
FeatureVector
p2055
(dp2056
g13
(dp2057
I1
F1.0
sI2
F21.08
sI3
F5.0
sI9
F1.0
sI13
F1.0
sI17
F1.0
sI18
F1.0
sI20
F1.0
sI21
F1.0
sI23
F1.0
sI24
F1.0
ssbsg15
g0
(g16
g2
Ntp2058
Rp2059
(dp2060
g20
I0
sbsba(ics475_types
Instance
p2061
(dp2062
g10
(ics475_types
FeatureVector
p2063
(dp2064
g13
(dp2065
I33
F1.0
sI2
F26.0
sI3
F1.0
sI4
F1.0
sI5
F1.0
sI7
F1.0
sI8
F1.75
sI12
F1.0
sI13
F1.0
sI14
F280.0
sI16
F1.0
sI20
F1.0
sI30
F1.0
ssbsg15
g0
(g16
g2
Ntp2066
Rp2067
(dp2068
g20
I1
sbsba(ics475_types
Instance
p2069
(dp2070
g10
(ics475_types
FeatureVector
p2071
(dp2072
g13
(dp2073
I2
F69.17
sI3
F9.0
sI4
F1.0
sI5
F1.0
sI8
F4.0
sI9
F1.0
sI10
F1.0
sI11
F1.0
sI13
F1.0
sI14
F70.0
sI15
F6.0
sI16
F1.0
sI21
F1.0
sI23
F1.0
sI24
F1.0
ssbsg15
g0
(g16
g2
Ntp2074
Rp2075
(dp2076
g20
I0
sbsba(ics475_types
Instance
p2077
(dp2078
g10
(ics475_types
FeatureVector
p2079
(dp2080
g13
(dp2081
I33
F1.0
sI2
F20.17
sI3
F5.625
sI4
F1.0
sI5
F1.0
sI7
F1.0
sI8
F1.71
sI14
F120.0
sI16
F1.0
sI20
F1.0
sI21
F1.0
sI22
F1.0
sI31
F1.0
ssbsg15
g0
(g16
g2
Ntp2082
Rp2083
(dp2084
g20
I1
sbsba(ics475_types
Instance
p2085
(dp2086
g10
(ics475_types
FeatureVector
p2087
(dp2088
g13
(dp2089
I33
F1.0
sI2
F25.67
sI3
F12.5
sI4
F1.0
sI5
F1.0
sI7
F1.0
sI8
F1.21
sI10
F1.0
sI11
F67.0
sI12
F1.0
sI13
F1.0
sI14
F140.0
sI15
F258.0
sI16
F1.0
sI36
F1.0
ssbsg15
g0
(g16
g2
Ntp2090
Rp2091
(dp2092
g20
I1
sbsba(ics475_types
Instance
p2093
(dp2094
g10
(ics475_types
FeatureVector
p2095
(dp2096
g13
(dp2097
I1
F1.0
sI2
F20.33
sI3
F10.0
sI4
F1.0
sI5
F1.0
sI6
F1.0
sI33
F1.0
sI8
F1.0
sI10
F1.0
sI11
F4.0
sI13
F1.0
sI14
F50.0
sI15
F1465.0
sI21
F1.0
sI27
F1.0
ssbsg15
g0
(g16
g2
Ntp2098
Rp2099
(dp2100
g20
I1
sbsba(ics475_types
Instance
p2101
(dp2102
g10
(ics475_types
FeatureVector
p2103
(dp2104
g13
(dp2105
I2
F74.83
sI3
F19.0
sI8
F0.04
sI9
F1.0
sI10
F1.0
sI11
F2.0
sI13
F1.0
sI15
F351.0
sI16
F1.0
sI17
F1.0
sI18
F1.0
sI21
F1.0
sI23
F1.0
sI24
F1.0
ssbsg15
g0
(g16
g2
Ntp2106
Rp2107
(dp2108
g20
I0
sbsba(ics475_types
Instance
p2109
(dp2110
g10
(ics475_types
FeatureVector
p2111
(dp2112
g13
(dp2113
I32
F1.0
sI33
F1.0
sI2
F32.33
sI3
F7.5
sI4
F1.0
sI5
F1.0
sI8
F1.585
sI41
F1.0
sI12
F1.0
sI14
F420.0
sI16
F1.0
sI20
F1.0
sI22
F1.0
ssbsg15
g0
(g16
g2
Ntp2114
Rp2115
(dp2116
g20
I0
sbsba(ics475_types
Instance
p2117
(dp2118
g10
(ics475_types
FeatureVector
p2119
(dp2120
g13
(dp2121
I2
F35.17
sI3
F4.5
sI4
F1.0
sI5
F1.0
sI39
F1.0
sI8
F5.75
sI9
F1.0
sI12
F1.0
sI14
F711.0
sI16
F1.0
sI20
F1.0
sI22
F1.0
sI27
F1.0
ssbsg15
g0
(g16
g2
Ntp2122
Rp2123
(dp2124
g20
I1
sbsba(ics475_types
Instance
p2125
(dp2126
g10
(ics475_types
FeatureVector
p2127
(dp2128
g13
(dp2129
I33
F1.0
sI2
F27.83
sI3
F1.5
sI4
F1.0
sI5
F1.0
sI7
F1.0
sI8
F2.0
sI10
F1.0
sI11
F11.0
sI12
F1.0
sI13
F1.0
sI14
F434.0
sI15
F35.0
sI16
F1.0
sI31
F1.0
ssbsg15
g0
(g16
g2
Ntp2130
Rp2131
(dp2132
g20
I1
sbsba(ics475_types
Instance
p2133
(dp2134
g10
(ics475_types
FeatureVector
p2135
(dp2136
g13
(dp2137
I2
F42.83
sI3
F1.25
sI4
F1.0
sI5
F1.0
sI7
F1.0
sI8
F13.875
sI9
F1.0
sI10
F1.0
sI11
F1.0
sI12
F1.0
sI13
F1.0
sI14
F352.0
sI15
F112.0
sI16
F1.0
sI35
F1.0
ssbsg15
g0
(g16
g2
Ntp2138
Rp2139
(dp2140
g20
I0
sbsba(ics475_types
Instance
p2141
(dp2142
g10
(ics475_types
FeatureVector
p2143
(dp2144
g13
(dp2145
I1
F1.0
sI2
F56.5
sI3
F16.0
sI4
F1.0
sI5
F1.0
sI33
F1.0
sI10
F1.0
sI11
F15.0
sI13
F1.0
sI15
F247.0
sI21
F1.0
sI24
F1.0
sI28
F1.0
ssbsg15
g0
(g16
g2
Ntp2146
Rp2147
(dp2148
g20
I1
sbsba(ics475_types
Instance
p2149
(dp2150
g10
(ics475_types
FeatureVector
p2151
(dp2152
g13
(dp2153
I2
F26.75
sI3
F2.0
sI4
F1.0
sI5
F1.0
sI7
F1.0
sI8
F0.75
sI9
F1.0
sI12
F1.0
sI13
F1.0
sI14
F80.0
sI16
F1.0
sI34
F1.0
sI20
F1.0
ssbsg15
g0
(g16
g2
Ntp2154
Rp2155
(dp2156
g20
I0
sbsba(ics475_types
Instance
p2157
(dp2158
g10
(ics475_types
FeatureVector
p2159
(dp2160
g13
(dp2161
I2
F33.67
sI3
F1.25
sI4
F1.0
sI5
F1.0
sI7
F1.0
sI8
F1.165
sI9
F1.0
sI13
F1.0
sI14
F120.0
sI16
F1.0
sI20
F1.0
sI21
F1.0
sI31
F1.0
ssbsg15
g0
(g16
g2
Ntp2162
Rp2163
(dp2164
g20
I0
sbsba(ics475_types
Instance
p2165
(dp2166
g10
(ics475_types
FeatureVector
p2167
(dp2168
g13
(dp2169
I1
F1.0
sI2
F57.58
sI3
F2.0
sI4
F1.0
sI5
F1.0
sI8
F6.5
sI9
F1.0
sI10
F1.0
sI11
F1.0
sI13
F1.0
sI15
F10.0
sI21
F1.0
sI23
F1.0
sI24
F1.0
ssbsg15
g0
(g16
g2
Ntp2170
Rp2171
(dp2172
g20
I0
sbsba(ics475_types
Instance
p2173
(dp2174
g10
(ics475_types
FeatureVector
p2175
(dp2176
g13
(dp2177
I1
F1.0
sI2
F16.0
sI3
F0.165
sI4
F1.0
sI5
F1.0
sI7
F1.0
sI8
F1.0
sI9
F1.0
sI10
F1.0
sI11
F2.0
sI12
F1.0
sI13
F1.0
sI14
F320.0
sI15
F1.0
sI37
F1.0
ssbsg15
g0
(g16
g2
Ntp2178
Rp2179
(dp2180
g20
I0
sbsba(ics475_types
Instance
p2181
(dp2182
g10
(ics475_types
FeatureVector
p2183
(dp2184
g13
(dp2185
I32
F1.0
sI2
F48.08
sI3
F3.75
sI4
F1.0
sI5
F1.0
sI8
F1.0
sI9
F1.0
sI13
F1.0
sI14
F100.0
sI15
F2.0
sI16
F1.0
sI20
F1.0
sI21
F1.0
sI25
F1.0
ssbsg15
g0
(g16
g2
Ntp2186
Rp2187
(dp2188
g20
I0
sbsba(ics475_types
Instance
p2189
(dp2190
g10
(ics475_types
FeatureVector
p2191
(dp2192
g13
(dp2193
I33
F1.0
sI2
F25.08
sI3
F1.71
sI4
F1.0
sI5
F1.0
sI7
F1.0
sI8
F1.665
sI10
F1.0
sI11
F1.0
sI12
F1.0
sI13
F1.0
sI14
F395.0
sI15
F20.0
sI16
F1.0
sI39
F1.0
ssbsg15
g0
(g16
g2
Ntp2194
Rp2195
(dp2196
g20
I1
sbsba(ics475_types
Instance
p2197
(dp2198
g10
(ics475_types
FeatureVector
p2199
(dp2200
g13
(dp2201
I1
F1.0
sI2
F19.17
sI3
F0.585
sI33
F1.0
sI7
F1.0
sI8
F0.585
sI12
F1.0
sI13
F1.0
sI14
F160.0
sI17
F1.0
sI18
F1.0
sI20
F1.0
sI37
F1.0
ssbsg15
g0
(g16
g2
Ntp2202
Rp2203
(dp2204
g20
I0
sbsba(ics475_types
Instance
p2205
(dp2206
g10
(ics475_types
FeatureVector
p2207
(dp2208
g13
(dp2209
I1
F1.0
sI2
F19.67
sI3
F0.21
sI4
F1.0
sI5
F1.0
sI33
F1.0
sI8
F0.29
sI10
F1.0
sI11
F11.0
sI13
F1.0
sI14
F80.0
sI15
F99.0
sI21
F1.0
sI27
F1.0
sI30
F1.0
ssbsg15
g0
(g16
g2
Ntp2210
Rp2211
(dp2212
g20
I1
sbsba(ics475_types
Instance
p2213
(dp2214
g10
(ics475_types
FeatureVector
p2215
(dp2216
g13
(dp2217
I33
F1.0
sI2
F56.42
sI3
F28.0
sI6
F1.0
sI7
F1.0
sI8
F28.5
sI10
F1.0
sI11
F40.0
sI13
F1.0
sI15
F15.0
sI16
F1.0
sI17
F1.0
sI18
F1.0
sI21
F1.0
ssbsg15
g0
(g16
g2
Ntp2218
Rp2219
(dp2220
g20
I1
sbsba(ics475_types
Instance
p2221
(dp2222
g10
(ics475_types
FeatureVector
p2223
(dp2224
g13
(dp2225
I33
F1.0
sI2
F28.75
sI3
F1.165
sI4
F1.0
sI5
F1.0
sI7
F1.0
sI8
F0.5
sI14
F280.0
sI16
F1.0
sI19
F1.0
sI20
F1.0
sI21
F1.0
sI22
F1.0
ssbsg15
g0
(g16
g2
Ntp2226
Rp2227
(dp2228
g20
I0
sbsba(ics475_types
Instance
p2229
(dp2230
g10
(ics475_types
FeatureVector
p2231
(dp2232
g13
(dp2233
I2
F36.5
sI3
F4.25
sI4
F1.0
sI5
F1.0
sI7
F1.0
sI8
F3.5
sI9
F1.0
sI13
F1.0
sI14
F454.0
sI15
F50.0
sI16
F1.0
sI20
F1.0
sI21
F1.0
sI30
F1.0
ssbsg15
g0
(g16
g2
Ntp2234
Rp2235
(dp2236
g20
I0
sbsba(ics475_types
Instance
p2237
(dp2238
g10
(ics475_types
FeatureVector
p2239
(dp2240
g13
(dp2241
I33
F1.0
sI2
F24.42
sI3
F12.335
sI4
F1.0
sI5
F1.0
sI8
F1.585
sI12
F1.0
sI13
F1.0
sI14
F120.0
sI16
F1.0
sI20
F1.0
sI27
F1.0
sI30
F1.0
ssbsg15
g0
(g16
g2
Ntp2242
Rp2243
(dp2244
g20
I1
sbsba(ics475_types
Instance
p2245
(dp2246
g10
(ics475_types
FeatureVector
p2247
(dp2248
g13
(dp2249
I2
F62.75
sI3
F7.0
sI4
F1.0
sI5
F1.0
sI9
F1.0
sI42
F1.0
sI13
F1.0
sI15
F12.0
sI16
F1.0
sI20
F1.0
sI21
F1.0
sI41
F1.0
ssbsg15
g0
(g16
g2
Ntp2250
Rp2251
(dp2252
g20
I0
sbsba(ics475_types
Instance
p2253
(dp2254
g10
(ics475_types
FeatureVector
p2255
(dp2256
g13
(dp2257
I1
F1.0
sI2
F15.83
sI3
F7.625
sI4
F1.0
sI5
F1.0
sI7
F1.0
sI8
F0.125
sI9
F1.0
sI10
F1.0
sI11
F1.0
sI12
F1.0
sI13
F1.0
sI15
F160.0
sI30
F1.0
ssbsg15
g0
(g16
g2
Ntp2258
Rp2259
(dp2260
g20
I0
sbsba(ics475_types
Instance
p2261
(dp2262
g10
(ics475_types
FeatureVector
p2263
(dp2264
g13
(dp2265
I32
F1.0
sI1
F1.0
sI2
F51.92
sI3
F6.5
sI4
F1.0
sI5
F1.0
sI8
F3.085
sI9
F1.0
sI12
F1.0
sI13
F1.0
sI14
F73.0
sI20
F1.0
sI25
F1.0
ssbsg15
g0
(g16
g2
Ntp2266
Rp2267
(dp2268
g20
I0
sbsba(ics475_types
Instance
p2269
(dp2270
g10
(ics475_types
FeatureVector
p2271
(dp2272
g13
(dp2273
I1
F1.0
sI2
F26.58
sI3
F2.54
sI9
F1.0
sI12
F1.0
sI13
F1.0
sI14
F180.0
sI15
F60.0
sI17
F1.0
sI18
F1.0
sI20
F1.0
sI23
F1.0
sI24
F1.0
ssbsg15
g0
(g16
g2
Ntp2274
Rp2275
(dp2276
g20
I0
sbsba(ics475_types
Instance
p2277
(dp2278
g10
(ics475_types
FeatureVector
p2279
(dp2280
g13
(dp2281
I33
F1.0
sI2
F44.33
sI3
F0.5
sI4
F1.0
sI5
F1.0
sI8
F5.0
sI12
F1.0
sI13
F1.0
sI14
F320.0
sI16
F1.0
sI20
F1.0
sI25
F1.0
sI27
F1.0
ssbsg15
g0
(g16
g2
Ntp2282
Rp2283
(dp2284
g20
I1
sbsba(ics475_types
Instance
p2285
(dp2286
g10
(ics475_types
FeatureVector
p2287
(dp2288
g13
(dp2289
I1
F1.0
sI2
F29.5
sI3
F1.085
sI7
F1.0
sI8
F1.0
sI9
F1.0
sI39
F1.0
sI13
F1.0
sI14
F280.0
sI15
F13.0
sI17
F1.0
sI18
F1.0
sI20
F1.0
sI21
F1.0
ssbsg15
g0
(g16
g2
Ntp2290
Rp2291
(dp2292
g20
I0
sbsba(ics475_types
Instance
p2293
(dp2294
g10
(ics475_types
FeatureVector
p2295
(dp2296
g13
(dp2297
I2
F20.67
sI3
F0.835
sI6
F1.0
sI7
F1.0
sI8
F2.0
sI9
F1.0
sI12
F1.0
sI14
F240.0
sI16
F1.0
sI17
F1.0
sI18
F1.0
sI20
F1.0
sI22
F1.0
ssbsg15
g0
(g16
g2
Ntp2298
Rp2299
(dp2300
g20
I0
sbsba(ics475_types
Instance
p2301
(dp2302
g10
(ics475_types
FeatureVector
p2303
(dp2304
g13
(dp2305
I32
F1.0
sI33
F1.0
sI2
F42.75
sI3
F3.0
sI4
F1.0
sI5
F1.0
sI8
F1.0
sI13
F1.0
sI15
F200.0
sI16
F1.0
sI20
F1.0
sI21
F1.0
sI25
F1.0
ssbsg15
g0
(g16
g2
Ntp2306
Rp2307
(dp2308
g20
I0
sbsba(ics475_types
Instance
p2309
(dp2310
g10
(ics475_types
FeatureVector
p2311
(dp2312
g13
(dp2313
I33
F1.0
sI2
F24.17
sI3
F0.875
sI4
F1.0
sI5
F1.0
sI7
F1.0
sI8
F4.625
sI10
F1.0
sI11
F2.0
sI12
F1.0
sI13
F1.0
sI14
F520.0
sI15
F2000.0
sI16
F1.0
sI30
F1.0
ssbsg15
g0
(g16
g2
Ntp2314
Rp2315
(dp2316
g20
I1
sbsba(ics475_types
Instance
p2317
(dp2318
g10
(ics475_types
FeatureVector
p2319
(dp2320
g13
(dp2321
I33
F1.0
sI2
F60.08
sI3
F14.5
sI4
F1.0
sI5
F1.0
sI8
F18.0
sI10
F1.0
sI11
F15.0
sI12
F1.0
sI13
F1.0
sI15
F1000.0
sI16
F1.0
sI23
F1.0
sI24
F1.0
ssbsg15
g0
(g16
g2
Ntp2322
Rp2323
(dp2324
g20
I1
sbsba(ics475_types
Instance
p2325
(dp2326
g10
(ics475_types
FeatureVector
p2327
(dp2328
g13
(dp2329
I33
F1.0
sI2
F34.08
sI3
F6.5
sI4
F1.0
sI5
F1.0
sI7
F1.0
sI8
F0.125
sI12
F1.0
sI13
F1.0
sI14
F443.0
sI16
F1.0
sI20
F1.0
sI37
F1.0
ssbsg15
g0
(g16
g2
Ntp2330
Rp2331
(dp2332
g20
I0
sbsba(ics475_types
Instance
p2333
(dp2334
g10
(ics475_types
FeatureVector
p2335
(dp2336
g13
(dp2337
I32
F1.0
sI2
F34.0
sI3
F5.085
sI8
F1.085
sI9
F1.0
sI12
F1.0
sI13
F1.0
sI14
F480.0
sI16
F1.0
sI17
F1.0
sI18
F1.0
sI20
F1.0
sI25
F1.0
ssbsg15
g0
(g16
g2
Ntp2338
Rp2339
(dp2340
g20
I0
sbsba(ics475_types
Instance
p2341
(dp2342
g10
(ics475_types
FeatureVector
p2343
(dp2344
g13
(dp2345
I33
F1.0
sI2
F41.75
sI3
F0.96
sI4
F1.0
sI5
F1.0
sI7
F1.0
sI8
F2.5
sI39
F1.0
sI13
F1.0
sI14
F510.0
sI15
F600.0
sI16
F1.0
sI20
F1.0
sI21
F1.0
ssbsg15
g0
(g16
g2
Ntp2346
Rp2347
(dp2348
g20
I1
sbsba(ics475_types
Instance
p2349
(dp2350
g10
(ics475_types
FeatureVector
p2351
(dp2352
g13
(dp2353
I33
F1.0
sI2
F19.42
sI3
F6.5
sI4
F1.0
sI5
F1.0
sI8
F1.46
sI10
F1.0
sI11
F7.0
sI13
F1.0
sI14
F80.0
sI15
F2954.0
sI16
F1.0
sI21
F1.0
sI27
F1.0
sI31
F1.0
ssbsg15
g0
(g16
g2
Ntp2354
Rp2355
(dp2356
g20
I1
sbsba(ics475_types
Instance
p2357
(dp2358
g10
(ics475_types
FeatureVector
p2359
(dp2360
g13
(dp2361
I1
F1.0
sI2
F25.33
sI3
F2.085
sI4
F1.0
sI5
F1.0
sI6
F1.0
sI33
F1.0
sI8
F2.75
sI12
F1.0
sI13
F1.0
sI14
F360.0
sI15
F1.0
sI20
F1.0
sI27
F1.0
ssbsg15
g0
(g16
g2
Ntp2362
Rp2363
(dp2364
g20
I0
sbsba(ics475_types
Instance
p2365
(dp2366
g10
(ics475_types
FeatureVector
p2367
(dp2368
g13
(dp2369
I33
F1.0
sI2
F30.17
sI3
F0.5
sI4
F1.0
sI5
F1.0
sI6
F1.0
sI7
F1.0
sI8
F1.75
sI10
F1.0
sI11
F11.0
sI13
F1.0
sI14
F32.0
sI15
F540.0
sI16
F1.0
sI21
F1.0
ssbsg15
g0
(g16
g2
Ntp2370
Rp2371
(dp2372
g20
I1
sbsba(ics475_types
Instance
p2373
(dp2374
g10
(ics475_types
FeatureVector
p2375
(dp2376
g13
(dp2377
I2
F32.92
sI3
F2.5
sI4
F1.0
sI5
F1.0
sI7
F1.0
sI8
F1.75
sI9
F1.0
sI10
F1.0
sI11
F2.0
sI12
F1.0
sI13
F1.0
sI14
F720.0
sI16
F1.0
sI37
F1.0
ssbsg15
g0
(g16
g2
Ntp2378
Rp2379
(dp2380
g20
I0
sbsba(ics475_types
Instance
p2381
(dp2382
g10
(ics475_types
FeatureVector
p2383
(dp2384
g13
(dp2385
I2
F34.0
sI3
F5.5
sI6
F1.0
sI7
F1.0
sI8
F1.5
sI9
F1.0
sI12
F1.0
sI13
F1.0
sI14
F60.0
sI16
F1.0
sI17
F1.0
sI18
F1.0
sI20
F1.0
ssbsg15
g0
(g16
g2
Ntp2386
Rp2387
(dp2388
g20
I0
sbsba(ics475_types
Instance
p2389
(dp2390
g10
(ics475_types
FeatureVector
p2391
(dp2392
g13
(dp2393
I33
F1.0
sI2
F45.0
sI3
F8.5
sI4
F1.0
sI5
F1.0
sI8
F14.0
sI10
F1.0
sI11
F1.0
sI12
F1.0
sI13
F1.0
sI14
F88.0
sI15
F2000.0
sI16
F1.0
sI36
F1.0
sI27
F1.0
ssbsg15
g0
(g16
g2
Ntp2394
Rp2395
(dp2396
g20
I1
sbsba(ics475_types
Instance
p2397
(dp2398
g10
(ics475_types
FeatureVector
p2399
(dp2400
g13
(dp2401
I2
F17.5
sI3
F22.0
sI9
F1.0
sI12
F1.0
sI45
F1.0
sI14
F450.0
sI15
F100000.0
sI16
F1.0
sI20
F1.0
sI46
F1.0
sI23
F1.0
sI26
F1.0
sI44
F1.0
ssbsg15
g0
(g16
g2
Ntp2402
Rp2403
(dp2404
g20
I1
sbsba(ics475_types
Instance
p2405
(dp2406
g10
(ics475_types
FeatureVector
p2407
(dp2408
g13
(dp2409
I1
F1.0
sI2
F23.5
sI3
F9.0
sI4
F1.0
sI5
F1.0
sI7
F1.0
sI8
F8.5
sI10
F1.0
sI11
F5.0
sI12
F1.0
sI13
F1.0
sI14
F120.0
sI33
F1.0
sI30
F1.0
ssbsg15
g0
(g16
g2
Ntp2410
Rp2411
(dp2412
g20
I1
sbsba(ics475_types
Instance
p2413
(dp2414
g10
(ics475_types
FeatureVector
p2415
(dp2416
g13
(dp2417
I1
F1.0
sI2
F22.42
sI3
F5.665
sI4
F1.0
sI5
F1.0
sI7
F1.0
sI8
F2.585
sI10
F1.0
sI11
F7.0
sI13
F1.0
sI14
F129.0
sI15
F3257.0
sI21
F1.0
sI33
F1.0
sI30
F1.0
ssbsg15
g0
(g16
g2
Ntp2418
Rp2419
(dp2420
g20
I1
sbsba(ics475_types
Instance
p2421
(dp2422
g10
(ics475_types
FeatureVector
p2423
(dp2424
g13
(dp2425
I2
F41.0
sI3
F0.04
sI4
F1.0
sI5
F1.0
sI7
F1.0
sI8
F0.04
sI9
F1.0
sI10
F1.0
sI11
F1.0
sI14
F560.0
sI16
F1.0
sI21
F1.0
sI22
F1.0
sI41
F1.0
ssbsg15
g0
(g16
g2
Ntp2426
Rp2427
(dp2428
g20
I1
sbsba(ics475_types
Instance
p2429
(dp2430
g10
(ics475_types
FeatureVector
p2431
(dp2432
g13
(dp2433
I33
F1.0
sI2
F41.17
sI3
F4.04
sI4
F1.0
sI5
F1.0
sI8
F7.0
sI10
F1.0
sI11
F8.0
sI13
F1.0
sI14
F320.0
sI16
F1.0
sI21
F1.0
sI36
F1.0
sI27
F1.0
ssbsg15
g0
(g16
g2
Ntp2434
Rp2435
(dp2436
g20
I1
sbsba(ics475_types
Instance
p2437
(dp2438
g10
(ics475_types
FeatureVector
p2439
(dp2440
g13
(dp2441
I1
F1.0
sI2
F24.75
sI3
F13.665
sI4
F1.0
sI5
F1.0
sI8
F1.5
sI9
F1.0
sI13
F1.0
sI14
F280.0
sI15
F1.0
sI20
F1.0
sI21
F1.0
sI27
F1.0
sI30
F1.0
ssbsg15
g0
(g16
g2
Ntp2442
Rp2443
(dp2444
g20
I0
sbsba(ics475_types
Instance
p2445
(dp2446
g10
(ics475_types
FeatureVector
p2447
(dp2448
g13
(dp2449
I33
F1.0
sI2
F41.42
sI3
F5.0
sI4
F1.0
sI5
F1.0
sI8
F5.0
sI10
F1.0
sI11
F6.0
sI12
F1.0
sI13
F1.0
sI14
F470.0
sI16
F1.0
sI27
F1.0
sI30
F1.0
ssbsg15
g0
(g16
g2
Ntp2450
Rp2451
(dp2452
g20
I1
sbsba(ics475_types
Instance
p2453
(dp2454
g10
(ics475_types
FeatureVector
p2455
(dp2456
g13
(dp2457
I33
F1.0
sI2
F48.17
sI3
F3.5
sI4
F1.0
sI5
F1.0
sI7
F1.0
sI8
F3.5
sI14
F230.0
sI16
F1.0
sI20
F1.0
sI21
F1.0
sI22
F1.0
sI37
F1.0
ssbsg15
g0
(g16
g2
Ntp2458
Rp2459
(dp2460
g20
I1
sbsba(ics475_types
Instance
p2461
(dp2462
g10
(ics475_types
FeatureVector
p2463
(dp2464
g13
(dp2465
I32
F1.0
sI2
F36.17
sI3
F5.5
sI4
F1.0
sI5
F1.0
sI8
F5.0
sI9
F1.0
sI13
F1.0
sI14
F210.0
sI15
F687.0
sI16
F1.0
sI20
F1.0
sI21
F1.0
sI25
F1.0
ssbsg15
g0
(g16
g2
Ntp2466
Rp2467
(dp2468
g20
I0
sbsba(ics475_types
Instance
p2469
(dp2470
g10
(ics475_types
FeatureVector
p2471
(dp2472
g13
(dp2473
I2
F24.58
sI3
F1.25
sI4
F1.0
sI5
F1.0
sI6
F1.0
sI7
F1.0
sI8
F0.25
sI9
F1.0
sI13
F1.0
sI14
F110.0
sI16
F1.0
sI20
F1.0
sI21
F1.0
ssbsg15
g0
(g16
g2
Ntp2474
Rp2475
(dp2476
g20
I0
sbsba(ics475_types
Instance
p2477
(dp2478
g10
(ics475_types
FeatureVector
p2479
(dp2480
g13
(dp2481
I1
F1.0
sI2
F52.17
sI9
F1.0
sI13
F1.0
sI17
F1.0
sI18
F1.0
sI20
F1.0
sI21
F1.0
sI23
F1.0
sI24
F1.0
ssbsg15
g0
(g16
g2
Ntp2482
Rp2483
(dp2484
g20
I0
sbsba(ics475_types
Instance
p2485
(dp2486
g10
(ics475_types
FeatureVector
p2487
(dp2488
g13
(dp2489
I1
F1.0
sI2
F18.25
sI3
F10.0
sI4
F1.0
sI5
F1.0
sI7
F1.0
sI8
F1.0
sI9
F1.0
sI10
F1.0
sI11
F1.0
sI13
F1.0
sI14
F120.0
sI15
F1.0
sI21
F1.0
sI31
F1.0
ssbsg15
g0
(g16
g2
Ntp2490
Rp2491
(dp2492
g20
I0
sbsba(ics475_types
Instance
p2493
(dp2494
g10
(ics475_types
FeatureVector
p2495
(dp2496
g13
(dp2497
I33
F1.0
sI2
F54.58
sI3
F9.415
sI4
F1.0
sI5
F1.0
sI8
F14.415
sI10
F1.0
sI11
F11.0
sI12
F1.0
sI13
F1.0
sI14
F30.0
sI15
F300.0
sI16
F1.0
sI23
F1.0
sI24
F1.0
ssbsg15
g0
(g16
g2
Ntp2498
Rp2499
(dp2500
g20
I1
sbsba(ics475_types
Instance
p2501
(dp2502
g10
(ics475_types
FeatureVector
p2503
(dp2504
g13
(dp2505
I2
F17.67
sI3
F4.46
sI4
F1.0
sI5
F1.0
sI6
F1.0
sI7
F1.0
sI8
F0.25
sI9
F1.0
sI14
F80.0
sI16
F1.0
sI20
F1.0
sI21
F1.0
sI22
F1.0
ssbsg15
g0
(g16
g2
Ntp2506
Rp2507
(dp2508
g20
I0
sbsba(ics475_types
Instance
p2509
(dp2510
g10
(ics475_types
FeatureVector
p2511
(dp2512
g13
(dp2513
I33
F1.0
sI2
F27.0
sI3
F0.75
sI4
F1.0
sI5
F1.0
sI6
F1.0
sI8
F4.25
sI10
F1.0
sI11
F3.0
sI12
F1.0
sI13
F1.0
sI14
F312.0
sI15
F150.0
sI16
F1.0
sI27
F1.0
ssbsg15
g0
(g16
g2
Ntp2514
Rp2515
(dp2516
g20
I1
sbsba(ics475_types
Instance
p2517
(dp2518
g10
(ics475_types
FeatureVector
p2519
(dp2520
g13
(dp2521
I33
F1.0
sI2
F59.5
sI3
F2.75
sI4
F1.0
sI5
F1.0
sI7
F1.0
sI8
F1.75
sI10
F1.0
sI11
F5.0
sI12
F1.0
sI13
F1.0
sI14
F60.0
sI15
F58.0
sI16
F1.0
sI31
F1.0
ssbsg15
g0
(g16
g2
Ntp2522
Rp2523
(dp2524
g20
I1
sbsba(ics475_types
Instance
p2525
(dp2526
g10
(ics475_types
FeatureVector
p2527
(dp2528
g13
(dp2529
I33
F1.0
sI2
F48.17
sI3
F7.625
sI4
F1.0
sI5
F1.0
sI8
F15.5
sI10
F1.0
sI11
F12.0
sI13
F1.0
sI15
F790.0
sI16
F1.0
sI21
F1.0
sI27
F1.0
sI31
F1.0
ssbsg15
g0
(g16
g2
Ntp2530
Rp2531
(dp2532
g20
I1
sbsba(ics475_types
Instance
p2533
(dp2534
g10
(ics475_types
FeatureVector
p2535
(dp2536
g13
(dp2537
I1
F1.0
sI2
F15.75
sI3
F0.375
sI4
F1.0
sI5
F1.0
sI6
F1.0
sI7
F1.0
sI8
F1.0
sI9
F1.0
sI13
F1.0
sI14
F120.0
sI15
F18.0
sI20
F1.0
sI21
F1.0
ssbsg15
g0
(g16
g2
Ntp2538
Rp2539
(dp2540
g20
I0
sbsba(ics475_types
Instance
p2541
(dp2542
g10
(ics475_types
FeatureVector
p2543
(dp2544
g13
(dp2545
I33
F1.0
sI2
F30.83
sI4
F1.0
sI5
F1.0
sI7
F1.0
sI8
F1.25
sI10
F1.0
sI11
F1.0
sI13
F1.0
sI14
F202.0
sI16
F1.0
sI21
F1.0
sI31
F1.0
ssbsg15
g0
(g16
g2
Ntp2546
Rp2547
(dp2548
g20
I1
sbsba(ics475_types
Instance
p2549
(dp2550
g10
(ics475_types
FeatureVector
p2551
(dp2552
g13
(dp2553
I2
F21.17
sI4
F1.0
sI5
F1.0
sI6
F1.0
sI7
F1.0
sI8
F0.5
sI9
F1.0
sI12
F1.0
sI16
F1.0
sI20
F1.0
sI22
F1.0
ssbsg15
g0
(g16
g2
Ntp2554
Rp2555
(dp2556
g20
I0
sbsba(ics475_types
Instance
p2557
(dp2558
g10
(ics475_types
FeatureVector
p2559
(dp2560
g13
(dp2561
I33
F1.0
sI2
F28.67
sI3
F9.335
sI4
F1.0
sI5
F1.0
sI8
F5.665
sI10
F1.0
sI11
F6.0
sI13
F1.0
sI14
F381.0
sI15
F168.0
sI16
F1.0
sI21
F1.0
sI27
F1.0
sI30
F1.0
ssbsg15
g0
(g16
g2
Ntp2562
Rp2563
(dp2564
g20
I1
sbsba(ics475_types
Instance
p2565
(dp2566
g10
(ics475_types
FeatureVector
p2567
(dp2568
g13
(dp2569
I2
F22.17
sI3
F2.25
sI4
F1.0
sI5
F1.0
sI7
F1.0
sI8
F0.125
sI9
F1.0
sI13
F1.0
sI14
F160.0
sI15
F10.0
sI16
F1.0
sI20
F1.0
sI21
F1.0
sI25
F1.0
ssbsg15
g0
(g16
g2
Ntp2570
Rp2571
(dp2572
g20
I0
sbsba(ics475_types
Instance
p2573
(dp2574
g10
(ics475_types
FeatureVector
p2575
(dp2576
g13
(dp2577
I33
F1.0
sI2
F44.0
sI3
F2.0
sI4
F1.0
sI5
F1.0
sI7
F1.0
sI8
F1.75
sI10
F1.0
sI11
F2.0
sI12
F1.0
sI13
F1.0
sI15
F15.0
sI16
F1.0
sI35
F1.0
ssbsg15
g0
(g16
g2
Ntp2578
Rp2579
(dp2580
g20
I1
sbsba(ics475_types
Instance
p2581
(dp2582
g10
(ics475_types
FeatureVector
p2583
(dp2584
g13
(dp2585
I1
F1.0
sI2
F33.67
sI3
F0.375
sI4
F1.0
sI5
F1.0
sI7
F1.0
sI8
F0.375
sI9
F1.0
sI13
F1.0
sI14
F300.0
sI15
F44.0
sI20
F1.0
sI21
F1.0
sI36
F1.0
ssbsg15
g0
(g16
g2
Ntp2586
Rp2587
(dp2588
g20
I1
sbsba(ics475_types
Instance
p2589
(dp2590
g10
(ics475_types
FeatureVector
p2591
(dp2592
g13
(dp2593
I1
F1.0
sI2
F56.83
sI3
F4.25
sI8
F5.0
sI9
F1.0
sI12
F1.0
sI13
F1.0
sI15
F4.0
sI17
F1.0
sI18
F1.0
sI20
F1.0
sI23
F1.0
sI24
F1.0
ssbsg15
g0
(g16
g2
Ntp2594
Rp2595
(dp2596
g20
I0
sbsba(ics475_types
Instance
p2597
(dp2598
g10
(ics475_types
FeatureVector
p2599
(dp2600
g13
(dp2601
I33
F1.0
sI2
F31.67
sI3
F0.83
sI4
F1.0
sI5
F1.0
sI7
F1.0
sI8
F1.335
sI10
F1.0
sI11
F8.0
sI12
F1.0
sI13
F1.0
sI14
F303.0
sI15
F3290.0
sI16
F1.0
sI39
F1.0
ssbsg15
g0
(g16
g2
Ntp2602
Rp2603
(dp2604
g20
I1
sbsba(ics475_types
Instance
p2605
(dp2606
g10
(ics475_types
FeatureVector
p2607
(dp2608
g13
(dp2609
I33
F1.0
sI2
F20.42
sI3
F7.0
sI4
F1.0
sI5
F1.0
sI6
F1.0
sI7
F1.0
sI8
F1.625
sI10
F1.0
sI11
F3.0
sI13
F1.0
sI14
F200.0
sI15
F1391.0
sI16
F1.0
sI21
F1.0
ssbsg15
g0
(g16
g2
Ntp2610
Rp2611
(dp2612
g20
I1
sbsba(ics475_types
Instance
p2613
(dp2614
g10
(ics475_types
FeatureVector
p2615
(dp2616
g13
(dp2617
I33
F1.0
sI2
F21.0
sI3
F3.0
sI7
F1.0
sI8
F1.085
sI10
F1.0
sI11
F8.0
sI12
F1.0
sI13
F1.0
sI14
F160.0
sI15
F1.0
sI16
F1.0
sI17
F1.0
sI18
F1.0
sI34
F1.0
ssbsg15
g0
(g16
g2
Ntp2618
Rp2619
(dp2620
g20
I1
sbsba(ics475_types
Instance
p2621
(dp2622
g10
(ics475_types
FeatureVector
p2623
(dp2624
g13
(dp2625
I32
F1.0
sI2
F39.92
sI3
F5.0
sI4
F1.0
sI5
F1.0
sI8
F0.21
sI9
F1.0
sI13
F1.0
sI14
F550.0
sI16
F1.0
sI20
F1.0
sI21
F1.0
sI25
F1.0
ssbsg15
g0
(g16
g2
Ntp2626
Rp2627
(dp2628
g20
I0
sbsba(ics475_types
Instance
p2629
(dp2630
g10
(ics475_types
FeatureVector
p2631
(dp2632
g13
(dp2633
I33
F1.0
sI2
F65.42
sI3
F11.0
sI4
F1.0
sI5
F1.0
sI8
F20.0
sI41
F1.0
sI10
F1.0
sI11
F7.0
sI12
F1.0
sI13
F1.0
sI14
F22.0
sI16
F1.0
sI42
F1.0
ssbsg15
g0
(g16
g2
Ntp2634
Rp2635
(dp2636
g20
I1
sbsba(ics475_types
Instance
p2637
(dp2638
g10
(ics475_types
FeatureVector
p2639
(dp2640
g13
(dp2641
I33
F1.0
sI2
F43.08
sI3
F0.375
sI6
F1.0
sI7
F1.0
sI8
F0.375
sI10
F1.0
sI11
F8.0
sI12
F1.0
sI13
F1.0
sI14
F300.0
sI15
F162.0
sI16
F1.0
sI17
F1.0
sI18
F1.0
ssbsg15
g0
(g16
g2
Ntp2642
Rp2643
(dp2644
g20
I1
sbsba(ics475_types
Instance
p2645
(dp2646
g10
(ics475_types
FeatureVector
p2647
(dp2648
g13
(dp2649
I2
F31.0
sI3
F2.085
sI4
F1.0
sI5
F1.0
sI6
F1.0
sI7
F1.0
sI8
F0.085
sI9
F1.0
sI13
F1.0
sI14
F300.0
sI16
F1.0
sI20
F1.0
sI21
F1.0
ssbsg15
g0
(g16
g2
Ntp2650
Rp2651
(dp2652
g20
I0
sbsba(ics475_types
Instance
p2653
(dp2654
g10
(ics475_types
FeatureVector
p2655
(dp2656
g13
(dp2657
I1
F1.0
sI2
F22.42
sI3
F11.25
sI33
F1.0
sI8
F0.75
sI10
F1.0
sI11
F4.0
sI13
F1.0
sI15
F321.0
sI17
F1.0
sI18
F1.0
sI21
F1.0
sI39
F1.0
sI27
F1.0
ssbsg15
g0
(g16
g2
Ntp2658
Rp2659
(dp2660
g20
I1
sbsba(ics475_types
Instance
p2661
(dp2662
g10
(ics475_types
FeatureVector
p2663
(dp2664
g13
(dp2665
I2
F22.17
sI3
F12.125
sI4
F1.0
sI5
F1.0
sI6
F1.0
sI7
F1.0
sI8
F3.335
sI9
F1.0
sI10
F1.0
sI11
F2.0
sI12
F1.0
sI13
F1.0
sI14
F180.0
sI15
F173.0
sI16
F1.0
ssbsg15
g0
(g16
g2
Ntp2666
Rp2667
(dp2668
g20
I0
sbsba(ics475_types
Instance
p2669
(dp2670
g10
(ics475_types
FeatureVector
p2671
(dp2672
g13
(dp2673
I1
F1.0
sI2
F20.83
sI3
F0.5
sI8
F1.0
sI9
F1.0
sI43
F1.0
sI13
F1.0
sI14
F260.0
sI17
F1.0
sI18
F1.0
sI20
F1.0
sI21
F1.0
sI41
F1.0
ssbsg15
g0
(g16
g2
Ntp2674
Rp2675
(dp2676
g20
I0
sbsba(ics475_types
Instance
p2677
(dp2678
g10
(ics475_types
FeatureVector
p2679
(dp2680
g13
(dp2681
I1
F1.0
sI2
F40.33
sI3
F7.54
sI33
F1.0
sI8
F8.0
sI10
F1.0
sI11
F14.0
sI13
F1.0
sI15
F2300.0
sI17
F1.0
sI18
F1.0
sI21
F1.0
sI27
F1.0
sI30
F1.0
ssbsg15
g0
(g16
g2
Ntp2682
Rp2683
(dp2684
g20
I1
sbsba(ics475_types
Instance
p2685
(dp2686
g10
(ics475_types
FeatureVector
p2687
(dp2688
g13
(dp2689
I32
F1.0
sI33
F1.0
sI2
F23.25
sI3
F4.0
sI4
F1.0
sI5
F1.0
sI6
F1.0
sI8
F0.25
sI12
F1.0
sI13
F1.0
sI14
F160.0
sI16
F1.0
sI20
F1.0
ssbsg15
g0
(g16
g2
Ntp2690
Rp2691
(dp2692
g20
I1
sbsba(ics475_types
Instance
p2693
(dp2694
g10
(ics475_types
FeatureVector
p2695
(dp2696
g13
(dp2697
I2
F16.17
sI3
F0.04
sI4
F1.0
sI5
F1.0
sI6
F1.0
sI7
F1.0
sI8
F0.04
sI9
F1.0
sI13
F1.0
sI16
F1.0
sI20
F1.0
sI21
F1.0
ssbsg15
g0
(g16
g2
Ntp2698
Rp2699
(dp2700
g20
I1
sbsba(ics475_types
Instance
p2701
(dp2702
g10
(ics475_types
FeatureVector
p2703
(dp2704
g13
(dp2705
I1
F1.0
sI2
F19.75
sI3
F0.75
sI4
F1.0
sI5
F1.0
sI6
F1.0
sI7
F1.0
sI8
F0.795
sI10
F1.0
sI11
F5.0
sI12
F1.0
sI13
F1.0
sI14
F140.0
sI15
F5.0
sI33
F1.0
ssbsg15
g0
(g16
g2
Ntp2706
Rp2707
(dp2708
g20
I0
sbsba(ics475_types
Instance
p2709
(dp2710
g10
(ics475_types
FeatureVector
p2711
(dp2712
g13
(dp2713
I33
F1.0
sI2
F39.58
sI3
F13.915
sI4
F1.0
sI5
F1.0
sI7
F1.0
sI8
F8.625
sI10
F1.0
sI11
F6.0
sI12
F1.0
sI13
F1.0
sI14
F70.0
sI16
F1.0
sI31
F1.0
ssbsg15
g0
(g16
g2
Ntp2714
Rp2715
(dp2716
g20
I1
sbsba(ics475_types
Instance
p2717
(dp2718
g10
(ics475_types
FeatureVector
p2719
(dp2720
g13
(dp2721
I33
F1.0
sI2
F21.92
sI3
F0.54
sI7
F1.0
sI8
F0.04
sI10
F1.0
sI11
F1.0
sI12
F1.0
sI13
F1.0
sI14
F840.0
sI15
F59.0
sI16
F1.0
sI17
F1.0
sI18
F1.0
sI39
F1.0
ssbsg15
g0
(g16
g2
Ntp2722
Rp2723
(dp2724
g20
I1
sbsba(ics475_types
Instance
p2725
(dp2726
g10
(ics475_types
FeatureVector
p2727
(dp2728
g13
(dp2729
I2
F23.42
sI3
F1.0
sI4
F1.0
sI5
F1.0
sI6
F1.0
sI7
F1.0
sI8
F0.5
sI9
F1.0
sI12
F1.0
sI14
F280.0
sI16
F1.0
sI20
F1.0
sI22
F1.0
ssbsg15
g0
(g16
g2
Ntp2730
Rp2731
(dp2732
g20
I0
sbsba(ics475_types
Instance
p2733
(dp2734
g10
(ics475_types
FeatureVector
p2735
(dp2736
g13
(dp2737
I33
F1.0
sI2
F27.25
sI3
F1.585
sI4
F1.0
sI5
F1.0
sI8
F1.835
sI10
F1.0
sI11
F12.0
sI12
F1.0
sI13
F1.0
sI14
F583.0
sI15
F713.0
sI16
F1.0
sI36
F1.0
sI27
F1.0
ssbsg15
g0
(g16
g2
Ntp2738
Rp2739
(dp2740
g20
I1
sbsba(ics475_types
Instance
p2741
(dp2742
g10
(ics475_types
FeatureVector
p2743
(dp2744
g13
(dp2745
I33
F1.0
sI2
F64.08
sI3
F20.0
sI4
F1.0
sI5
F1.0
sI39
F1.0
sI8
F17.5
sI10
F1.0
sI11
F9.0
sI12
F1.0
sI13
F1.0
sI15
F1000.0
sI16
F1.0
sI27
F1.0
ssbsg15
g0
(g16
g2
Ntp2746
Rp2747
(dp2748
g20
I1
sbsba(ics475_types
Instance
p2749
(dp2750
g10
(ics475_types
FeatureVector
p2751
(dp2752
g13
(dp2753
I33
F1.0
sI2
F16.08
sI3
F0.75
sI4
F1.0
sI5
F1.0
sI6
F1.0
sI7
F1.0
sI8
F1.75
sI10
F1.0
sI11
F5.0
sI12
F1.0
sI13
F1.0
sI14
F352.0
sI15
F690.0
sI16
F1.0
ssbsg15
g0
(g16
g2
Ntp2754
Rp2755
(dp2756
g20
I1
sbsba(ics475_types
Instance
p2757
(dp2758
g10
(ics475_types
FeatureVector
p2759
(dp2760
g13
(dp2761
I2
F31.58
sI3
F0.75
sI37
F1.0
sI7
F1.0
sI8
F3.5
sI9
F1.0
sI12
F1.0
sI13
F1.0
sI14
F320.0
sI16
F1.0
sI17
F1.0
sI18
F1.0
sI20
F1.0
ssbsg15
g0
(g16
g2
Ntp2762
Rp2763
(dp2764
g20
I0
sbsba(ics475_types
Instance
p2765
(dp2766
g10
(ics475_types
FeatureVector
p2767
(dp2768
g13
(dp2769
I33
F1.0
sI2
F25.17
sI3
F3.5
sI4
F1.0
sI5
F1.0
sI7
F1.0
sI8
F0.625
sI10
F1.0
sI11
F7.0
sI13
F1.0
sI15
F7059.0
sI16
F1.0
sI21
F1.0
sI36
F1.0
ssbsg15
g0
(g16
g2
Ntp2770
Rp2771
(dp2772
g20
I1
sbsba(ics475_types
Instance
p2773
(dp2774
g10
(ics475_types
FeatureVector
p2775
(dp2776
g13
(dp2777
I33
F1.0
sI2
F20.5
sI3
F2.415
sI4
F1.0
sI5
F1.0
sI6
F1.0
sI7
F1.0
sI8
F2.0
sI10
F1.0
sI11
F11.0
sI12
F1.0
sI13
F1.0
sI14
F200.0
sI15
F3000.0
sI16
F1.0
ssbsg15
g0
(g16
g2
Ntp2778
Rp2779
(dp2780
g20
I1
sbsba(ics475_types
Instance
p2781
(dp2782
g10
(ics475_types
FeatureVector
p2783
(dp2784
g13
(dp2785
I32
F1.0
sI1
F1.0
sI2
F28.58
sI3
F3.54
sI4
F1.0
sI5
F1.0
sI33
F1.0
sI8
F0.5
sI12
F1.0
sI13
F1.0
sI14
F171.0
sI20
F1.0
sI25
F1.0
ssbsg15
g0
(g16
g2
Ntp2786
Rp2787
(dp2788
g20
I0
sbsba(ics475_types
Instance
p2789
(dp2790
g10
(ics475_types
FeatureVector
p2791
(dp2792
g13
(dp2793
I2
F16.33
sI3
F4.085
sI4
F1.0
sI5
F1.0
sI8
F0.415
sI9
F1.0
sI12
F1.0
sI13
F1.0
sI14
F120.0
sI16
F1.0
sI20
F1.0
sI25
F1.0
sI27
F1.0
ssbsg15
g0
(g16
g2
Ntp2794
Rp2795
(dp2796
g20
I0
sbsba(ics475_types
Instance
p2797
(dp2798
g10
(ics475_types
FeatureVector
p2799
(dp2800
g13
(dp2801
I2
F22.67
sI3
F0.165
sI4
F1.0
sI5
F1.0
sI6
F1.0
sI8
F2.25
sI9
F1.0
sI12
F1.0
sI16
F1.0
sI20
F1.0
sI22
F1.0
sI29
F1.0
ssbsg15
g0
(g16
g2
Ntp2802
Rp2803
(dp2804
g20
I1
sbsba(ics475_types
Instance
p2805
(dp2806
g10
(ics475_types
FeatureVector
p2807
(dp2808
g13
(dp2809
I2
F18.83
sI4
F1.0
sI5
F1.0
sI7
F1.0
sI8
F0.665
sI9
F1.0
sI13
F1.0
sI14
F160.0
sI15
F1.0
sI16
F1.0
sI20
F1.0
sI21
F1.0
sI30
F1.0
ssbsg15
g0
(g16
g2
Ntp2810
Rp2811
(dp2812
g20
I0
sbsba(ics475_types
Instance
p2813
(dp2814
g10
(ics475_types
FeatureVector
p2815
(dp2816
g13
(dp2817
I1
F1.0
sI2
F16.33
sI3
F0.21
sI4
F1.0
sI5
F1.0
sI7
F1.0
sI8
F0.125
sI9
F1.0
sI13
F1.0
sI14
F200.0
sI15
F1.0
sI20
F1.0
sI21
F1.0
sI37
F1.0
ssbsg15
g0
(g16
g2
Ntp2818
Rp2819
(dp2820
g20
I0
sbsba(ics475_types
Instance
p2821
(dp2822
g10
(ics475_types
FeatureVector
p2823
(dp2824
g13
(dp2825
I1
F1.0
sI2
F64.08
sI3
F0.165
sI4
F1.0
sI5
F1.0
sI33
F1.0
sI10
F1.0
sI11
F1.0
sI13
F1.0
sI14
F232.0
sI15
F100.0
sI21
F1.0
sI23
F1.0
sI24
F1.0
ssbsg15
g0
(g16
g2
Ntp2826
Rp2827
(dp2828
g20
I1
sbsba(ics475_types
Instance
p2829
(dp2830
g10
(ics475_types
FeatureVector
p2831
(dp2832
g13
(dp2833
I1
F1.0
sI2
F37.33
sI3
F2.5
sI4
F1.0
sI5
F1.0
sI8
F0.21
sI9
F1.0
sI13
F1.0
sI14
F260.0
sI15
F246.0
sI20
F1.0
sI21
F1.0
sI25
F1.0
sI27
F1.0
ssbsg15
g0
(g16
g2
Ntp2834
Rp2835
(dp2836
g20
I0
sbsba(ics475_types
Instance
p2837
(dp2838
g10
(ics475_types
FeatureVector
p2839
(dp2840
g13
(dp2841
I33
F1.0
sI2
F32.83
sI3
F2.5
sI4
F1.0
sI5
F1.0
sI8
F2.75
sI10
F1.0
sI11
F6.0
sI13
F1.0
sI14
F160.0
sI15
F2072.0
sI16
F1.0
sI21
F1.0
sI36
F1.0
sI27
F1.0
ssbsg15
g0
(g16
g2
Ntp2842
Rp2843
(dp2844
g20
I1
sbsba(ics475_types
Instance
p2845
(dp2846
g10
(ics475_types
FeatureVector
p2847
(dp2848
g13
(dp2849
I32
F1.0
sI33
F1.0
sI2
F47.67
sI3
F2.5
sI4
F1.0
sI5
F1.0
sI8
F2.5
sI10
F1.0
sI11
F12.0
sI12
F1.0
sI13
F1.0
sI14
F410.0
sI15
F2510.0
sI16
F1.0
sI35
F1.0
ssbsg15
g0
(g16
g2
Ntp2850
Rp2851
(dp2852
g20
I1
sbsba(ics475_types
Instance
p2853
(dp2854
g10
(ics475_types
FeatureVector
p2855
(dp2856
g13
(dp2857
I1
F1.0
sI2
F50.08
sI3
F12.54
sI4
F1.0
sI5
F1.0
sI7
F1.0
sI8
F2.29
sI10
F1.0
sI11
F3.0
sI12
F1.0
sI13
F1.0
sI14
F156.0
sI33
F1.0
sI37
F1.0
ssbsg15
g0
(g16
g2
Ntp2858
Rp2859
(dp2860
g20
I1
sbsba(ics475_types
Instance
p2861
(dp2862
g10
(ics475_types
FeatureVector
p2863
(dp2864
g13
(dp2865
I33
F1.0
sI2
F28.33
sI3
F5.0
sI4
F1.0
sI5
F1.0
sI7
F1.0
sI8
F11.0
sI12
F1.0
sI13
F1.0
sI14
F70.0
sI16
F1.0
sI20
F1.0
sI31
F1.0
ssbsg15
g0
(g16
g2
Ntp2866
Rp2867
(dp2868
g20
I1
sbsba(ics475_types
Instance
p2869
(dp2870
g10
(ics475_types
FeatureVector
p2871
(dp2872
g13
(dp2873
I33
F1.0
sI2
F29.67
sI3
F1.415
sI4
F1.0
sI5
F1.0
sI8
F0.75
sI10
F1.0
sI11
F1.0
sI13
F1.0
sI14
F240.0
sI15
F100.0
sI16
F1.0
sI21
F1.0
sI27
F1.0
sI31
F1.0
ssbsg15
g0
(g16
g2
Ntp2874
Rp2875
(dp2876
g20
I1
sbsba(ics475_types
Instance
p2877
(dp2878
g10
(ics475_types
FeatureVector
p2879
(dp2880
g13
(dp2881
I33
F1.0
sI2
F42.83
sI3
F4.625
sI4
F1.0
sI5
F1.0
sI7
F1.0
sI8
F4.58
sI16
F1.0
sI20
F1.0
sI21
F1.0
sI22
F1.0
sI30
F1.0
ssbsg15
g0
(g16
g2
Ntp2882
Rp2883
(dp2884
g20
I1
sbsba(ics475_types
Instance
p2885
(dp2886
g10
(ics475_types
FeatureVector
p2887
(dp2888
g13
(dp2889
I1
F1.0
sI2
F28.5
sI3
F3.04
sI33
F1.0
sI8
F2.54
sI10
F1.0
sI11
F1.0
sI13
F1.0
sI14
F70.0
sI17
F1.0
sI18
F1.0
sI21
F1.0
sI39
F1.0
sI27
F1.0
ssbsg15
g0
(g16
g2
Ntp2890
Rp2891
(dp2892
g20
I1
sbsba(ics475_types
Instance
p2893
(dp2894
g10
(ics475_types
FeatureVector
p2895
(dp2896
g13
(dp2897
I2
F23.25
sI3
F12.625
sI4
F1.0
sI5
F1.0
sI6
F1.0
sI7
F1.0
sI8
F0.125
sI9
F1.0
sI10
F1.0
sI11
F2.0
sI13
F1.0
sI15
F5552.0
sI16
F1.0
sI21
F1.0
ssbsg15
g0
(g16
g2
Ntp2898
Rp2899
(dp2900
g20
I0
sbsba(ics475_types
Instance
p2901
(dp2902
g10
(ics475_types
FeatureVector
p2903
(dp2904
g13
(dp2905
I2
F47.33
sI3
F6.5
sI4
F1.0
sI5
F1.0
sI6
F1.0
sI7
F1.0
sI8
F1.0
sI9
F1.0
sI12
F1.0
sI13
F1.0
sI15
F228.0
sI16
F1.0
sI20
F1.0
ssbsg15
g0
(g16
g2
Ntp2906
Rp2907
(dp2908
g20
I0
sbsba(ics475_types
Instance
p2909
(dp2910
g10
(ics475_types
FeatureVector
p2911
(dp2912
g13
(dp2913
I2
F16.5
sI3
F0.125
sI4
F1.0
sI5
F1.0
sI6
F1.0
sI7
F1.0
sI8
F0.165
sI9
F1.0
sI13
F1.0
sI14
F132.0
sI16
F1.0
sI20
F1.0
sI21
F1.0
ssbsg15
g0
(g16
g2
Ntp2914
Rp2915
(dp2916
g20
I0
sbsba(ics475_types
Instance
p2917
(dp2918
g10
(ics475_types
FeatureVector
p2919
(dp2920
g13
(dp2921
I2
F33.0
sI3
F2.5
sI7
F1.0
sI8
F7.0
sI9
F1.0
sI12
F1.0
sI13
F1.0
sI14
F280.0
sI16
F1.0
sI17
F1.0
sI18
F1.0
sI20
F1.0
sI31
F1.0
ssbsg15
g0
(g16
g2
Ntp2922
Rp2923
(dp2924
g20
I0
sbsba(ics475_types
Instance
p2925
(dp2926
g10
(ics475_types
FeatureVector
p2927
(dp2928
g13
(dp2929
I33
F1.0
sI2
F27.83
sI3
F1.54
sI4
F1.0
sI5
F1.0
sI7
F1.0
sI8
F3.75
sI10
F1.0
sI11
F5.0
sI12
F1.0
sI13
F1.0
sI14
F100.0
sI15
F3.0
sI16
F1.0
sI31
F1.0
ssbsg15
g0
(g16
g2
Ntp2930
Rp2931
(dp2932
g20
I1
sbsba(ics475_types
Instance
p2933
(dp2934
g10
(ics475_types
FeatureVector
p2935
(dp2936
g13
(dp2937
I2
F21.17
sI3
F0.875
sI6
F1.0
sI8
F0.25
sI9
F1.0
sI13
F1.0
sI14
F280.0
sI15
F204.0
sI16
F1.0
sI17
F1.0
sI18
F1.0
sI20
F1.0
sI21
F1.0
sI27
F1.0
ssbsg15
g0
(g16
g2
Ntp2938
Rp2939
(dp2940
g20
I0
sbsba(ics475_types
Instance
p2941
(dp2942
g10
(ics475_types
FeatureVector
p2943
(dp2944
g13
(dp2945
I33
F1.0
sI2
F22.67
sI3
F2.54
sI6
F1.0
sI8
F2.585
sI13
F1.0
sI16
F1.0
sI17
F1.0
sI18
F1.0
sI20
F1.0
sI21
F1.0
sI27
F1.0
ssbsg15
g0
(g16
g2
Ntp2946
Rp2947
(dp2948
g20
I1
sbsba(ics475_types
Instance
p2949
(dp2950
g10
(ics475_types
FeatureVector
p2951
(dp2952
g13
(dp2953
I2
F19.0
sI9
F1.0
sI10
F1.0
sI11
F4.0
sI13
F1.0
sI14
F45.0
sI15
F1.0
sI16
F1.0
sI17
F1.0
sI18
F1.0
sI21
F1.0
sI23
F1.0
sI24
F1.0
ssbsg15
g0
(g16
g2
Ntp2954
Rp2955
(dp2956
g20
I0
sbsba(ics475_types
Instance
p2957
(dp2958
g10
(ics475_types
FeatureVector
p2959
(dp2960
g13
(dp2961
I33
F1.0
sI2
F39.17
sI3
F1.71
sI4
F1.0
sI5
F1.0
sI7
F1.0
sI8
F0.125
sI10
F1.0
sI11
F5.0
sI12
F1.0
sI13
F1.0
sI14
F480.0
sI16
F1.0
sI39
F1.0
ssbsg15
g0
(g16
g2
Ntp2962
Rp2963
(dp2964
g20
I1
sbsba(ics475_types
Instance
p2965
(dp2966
g10
(ics475_types
FeatureVector
p2967
(dp2968
g13
(dp2969
I2
F19.58
sI3
F0.585
sI4
F1.0
sI5
F1.0
sI9
F1.0
sI10
F1.0
sI11
F3.0
sI13
F1.0
sI14
F350.0
sI15
F769.0
sI16
F1.0
sI21
F1.0
sI23
F1.0
sI24
F1.0
ssbsg15
g0
(g16
g2
Ntp2970
Rp2971
(dp2972
g20
I0
sbsba(ics475_types
Instance
p2973
(dp2974
g10
(ics475_types
FeatureVector
p2975
(dp2976
g13
(dp2977
I33
F1.0
sI2
F42.17
sI3
F5.04
sI4
F1.0
sI5
F1.0
sI8
F12.75
sI12
F1.0
sI13
F1.0
sI14
F92.0
sI16
F1.0
sI20
F1.0
sI27
F1.0
sI30
F1.0
ssbsg15
g0
(g16
g2
Ntp2978
Rp2979
(dp2980
g20
I1
sbsba(ics475_types
Instance
p2981
(dp2982
g10
(ics475_types
FeatureVector
p2983
(dp2984
g13
(dp2985
I33
F1.0
sI2
F54.83
sI3
F15.5
sI4
F1.0
sI5
F1.0
sI41
F1.0
sI10
F1.0
sI11
F20.0
sI13
F1.0
sI14
F152.0
sI15
F130.0
sI16
F1.0
sI21
F1.0
sI42
F1.0
ssbsg15
g0
(g16
g2
Ntp2986
Rp2987
(dp2988
g20
I0
sbsba(ics475_types
Instance
p2989
(dp2990
g10
(ics475_types
FeatureVector
p2991
(dp2992
g13
(dp2993
I1
F1.0
sI2
F36.58
sI3
F0.29
sI4
F1.0
sI5
F1.0
sI9
F1.0
sI10
F1.0
sI11
F10.0
sI13
F1.0
sI14
F200.0
sI15
F18.0
sI21
F1.0
sI23
F1.0
sI24
F1.0
ssbsg15
g0
(g16
g2
Ntp2994
Rp2995
(dp2996
g20
I0
sbsba(ics475_types
Instance
p2997
(dp2998
g10
(ics475_types
FeatureVector
p2999
(dp3000
g13
(dp3001
I2
F18.33
sI3
F1.21
sI9
F1.0
sI43
F1.0
sI13
F1.0
sI14
F100.0
sI16
F1.0
sI17
F1.0
sI18
F1.0
sI20
F1.0
sI21
F1.0
sI41
F1.0
ssbsg15
g0
(g16
g2
Ntp3002
Rp3003
(dp3004
g20
I0
sbsba(ics475_types
Instance
p3005
(dp3006
g10
(ics475_types
FeatureVector
p3007
(dp3008
g13
(dp3009
I2
F34.08
sI3
F2.5
sI4
F1.0
sI5
F1.0
sI6
F1.0
sI7
F1.0
sI8
F1.0
sI9
F1.0
sI13
F1.0
sI14
F460.0
sI15
F16.0
sI16
F1.0
sI20
F1.0
sI21
F1.0
ssbsg15
g0
(g16
g2
Ntp3010
Rp3011
(dp3012
g20
I0
sbsba(ics475_types
Instance
p3013
(dp3014
g10
(ics475_types
FeatureVector
p3015
(dp3016
g13
(dp3017
I2
F25.25
sI3
F1.0
sI4
F1.0
sI5
F1.0
sI7
F1.0
sI8
F0.5
sI9
F1.0
sI13
F1.0
sI14
F200.0
sI16
F1.0
sI20
F1.0
sI21
F1.0
sI37
F1.0
ssbsg15
g0
(g16
g2
Ntp3018
Rp3019
(dp3020
g20
I0
sbsba(ics475_types
Instance
p3021
(dp3022
g10
(ics475_types
FeatureVector
p3023
(dp3024
g13
(dp3025
I33
F1.0
sI2
F39.25
sI3
F9.5
sI4
F1.0
sI5
F1.0
sI7
F1.0
sI8
F6.5
sI10
F1.0
sI11
F14.0
sI13
F1.0
sI14
F240.0
sI15
F4607.0
sI16
F1.0
sI35
F1.0
sI21
F1.0
ssbsg15
g0
(g16
g2
Ntp3026
Rp3027
(dp3028
g20
I1
sbsba(ics475_types
Instance
p3029
(dp3030
g10
(ics475_types
FeatureVector
p3031
(dp3032
g13
(dp3033
I2
F20.0
sI3
F11.045
sI4
F1.0
sI5
F1.0
sI6
F1.0
sI7
F1.0
sI8
F2.0
sI9
F1.0
sI12
F1.0
sI13
F1.0
sI14
F136.0
sI16
F1.0
sI20
F1.0
ssbsg15
g0
(g16
g2
Ntp3034
Rp3035
(dp3036
g20
I0
sbsba(ics475_types
Instance
p3037
(dp3038
g10
(ics475_types
FeatureVector
p3039
(dp3040
g13
(dp3041
I1
F1.0
sI2
F24.5
sI3
F0.5
sI4
F1.0
sI5
F1.0
sI33
F1.0
sI8
F1.5
sI13
F1.0
sI14
F280.0
sI15
F824.0
sI20
F1.0
sI21
F1.0
sI27
F1.0
sI30
F1.0
ssbsg15
g0
(g16
g2
Ntp3042
Rp3043
(dp3044
g20
I1
sbsba(ics475_types
Instance
p3045
(dp3046
g10
(ics475_types
FeatureVector
p3047
(dp3048
g13
(dp3049
I2
F23.75
sI3
F0.415
sI6
F1.0
sI7
F1.0
sI8
F0.04
sI9
F1.0
sI10
F1.0
sI11
F2.0
sI13
F1.0
sI14
F128.0
sI15
F6.0
sI16
F1.0
sI17
F1.0
sI18
F1.0
sI21
F1.0
ssbsg15
g0
(g16
g2
Ntp3050
Rp3051
(dp3052
g20
I0
sbsba(ics475_types
Instance
p3053
(dp3054
g10
(ics475_types
FeatureVector
p3055
(dp3056
g13
(dp3057
I33
F1.0
sI2
F21.33
sI3
F7.5
sI4
F1.0
sI5
F1.0
sI7
F1.0
sI8
F1.415
sI10
F1.0
sI11
F1.0
sI13
F1.0
sI14
F80.0
sI15
F9800.0
sI16
F1.0
sI21
F1.0
sI37
F1.0
ssbsg15
g0
(g16
g2
Ntp3058
Rp3059
(dp3060
g20
I1
sbsba(ics475_types
Instance
p3061
(dp3062
g10
(ics475_types
FeatureVector
p3063
(dp3064
g13
(dp3065
I1
F1.0
sI2
F30.58
sI3
F10.665
sI4
F1.0
sI5
F1.0
sI8
F0.085
sI9
F1.0
sI10
F1.0
sI11
F12.0
sI12
F1.0
sI13
F1.0
sI14
F129.0
sI15
F3.0
sI27
F1.0
sI30
F1.0
ssbsg15
g0
(g16
g2
Ntp3066
Rp3067
(dp3068
g20
I0
sbsba(ics475_types
Instance
p3069
(dp3070
g10
(ics475_types
FeatureVector
p3071
(dp3072
g13
(dp3073
I2
F40.58
sI3
F3.29
sI4
F1.0
sI5
F1.0
sI7
F1.0
sI8
F3.5
sI9
F1.0
sI12
F1.0
sI14
F400.0
sI16
F1.0
sI35
F1.0
sI20
F1.0
sI22
F1.0
ssbsg15
g0
(g16
g2
Ntp3074
Rp3075
(dp3076
g20
I0
sbsba(ics475_types
Instance
p3077
(dp3078
g10
(ics475_types
FeatureVector
p3079
(dp3080
g13
(dp3081
I2
F31.08
sI3
F3.085
sI4
F1.0
sI5
F1.0
sI6
F1.0
sI7
F1.0
sI8
F2.5
sI9
F1.0
sI10
F1.0
sI11
F2.0
sI12
F1.0
sI13
F1.0
sI14
F160.0
sI15
F41.0
sI16
F1.0
ssbsg15
g0
(g16
g2
Ntp3082
Rp3083
(dp3084
g20
I0
sbsba(ics475_types
Instance
p3085
(dp3086
g10
(ics475_types
FeatureVector
p3087
(dp3088
g13
(dp3089
I1
F1.0
sI2
F17.67
sI9
F1.0
sI13
F1.0
sI14
F86.0
sI17
F1.0
sI18
F1.0
sI20
F1.0
sI21
F1.0
sI24
F1.0
sI28
F1.0
ssbsg15
g0
(g16
g2
Ntp3090
Rp3091
(dp3092
g20
I0
sbsba(ics475_types
Instance
p3093
(dp3094
g10
(ics475_types
FeatureVector
p3095
(dp3096
g13
(dp3097
I32
F1.0
sI33
F1.0
sI2
F40.0
sI3
F6.5
sI4
F1.0
sI5
F1.0
sI8
F3.5
sI10
F1.0
sI11
F1.0
sI13
F1.0
sI15
F500.0
sI16
F1.0
sI21
F1.0
sI37
F1.0
ssbsg15
g0
(g16
g2
Ntp3098
Rp3099
(dp3100
g20
I1
sbsba(ics475_types
Instance
p3101
(dp3102
g10
(ics475_types
FeatureVector
p3103
(dp3104
g13
(dp3105
I1
F1.0
sI2
F16.08
sI3
F0.335
sI4
F1.0
sI5
F1.0
sI9
F1.0
sI10
F1.0
sI11
F1.0
sI13
F1.0
sI14
F160.0
sI15
F126.0
sI21
F1.0
sI23
F1.0
sI24
F1.0
ssbsg15
g0
(g16
g2
Ntp3106
Rp3107
(dp3108
g20
I0
sbsba(ics475_types
Instance
p3109
(dp3110
g10
(ics475_types
FeatureVector
p3111
(dp3112
g13
(dp3113
I33
F1.0
sI2
F44.25
sI3
F0.5
sI4
F1.0
sI5
F1.0
sI7
F1.0
sI8
F10.75
sI14
F400.0
sI16
F1.0
sI35
F1.0
sI20
F1.0
sI21
F1.0
sI22
F1.0
ssbsg15
g0
(g16
g2
Ntp3114
Rp3115
(dp3116
g20
I0
sbsba(ics475_types
Instance
p3117
(dp3118
g10
(ics475_types
FeatureVector
p3119
(dp3120
g13
(dp3121
I32
F1.0
sI33
F1.0
sI2
F34.25
sI3
F1.75
sI4
F1.0
sI5
F1.0
sI8
F0.25
sI12
F1.0
sI13
F1.0
sI14
F163.0
sI16
F1.0
sI20
F1.0
sI31
F1.0
ssbsg15
g0
(g16
g2
Ntp3122
Rp3123
(dp3124
g20
I0
sbsba(ics475_types
Instance
p3125
(dp3126
g10
(ics475_types
FeatureVector
p3127
(dp3128
g13
(dp3129
I2
F22.0
sI3
F0.79
sI4
F1.0
sI5
F1.0
sI7
F1.0
sI8
F0.29
sI9
F1.0
sI10
F1.0
sI11
F1.0
sI13
F1.0
sI14
F420.0
sI15
F283.0
sI16
F1.0
sI21
F1.0
sI31
F1.0
ssbsg15
g0
(g16
g2
Ntp3130
Rp3131
(dp3132
g20
I0
sbsba(ics475_types
Instance
p3133
(dp3134
g10
(ics475_types
FeatureVector
p3135
(dp3136
g13
(dp3137
I33
F1.0
sI2
F13.75
sI3
F4.0
sI7
F1.0
sI8
F1.75
sI10
F1.0
sI11
F2.0
sI12
F1.0
sI13
F1.0
sI14
F120.0
sI15
F1000.0
sI16
F1.0
sI17
F1.0
sI18
F1.0
sI31
F1.0
ssbsg15
g0
(g16
g2
Ntp3138
Rp3139
(dp3140
g20
I1
sbsba(ics475_types
Instance
p3141
(dp3142
g10
(ics475_types
FeatureVector
p3143
(dp3144
g13
(dp3145
I2
F19.17
sI3
F4.0
sI7
F1.0
sI8
F1.0
sI9
F1.0
sI12
F1.0
sI13
F1.0
sI14
F360.0
sI15
F1000.0
sI16
F1.0
sI17
F1.0
sI18
F1.0
sI20
F1.0
sI25
F1.0
ssbsg15
g0
(g16
g2
Ntp3146
Rp3147
(dp3148
g20
I0
sbsba(ics475_types
Instance
p3149
(dp3150
g10
(ics475_types
FeatureVector
p3151
(dp3152
g13
(dp3153
I1
F1.0
sI2
F28.58
sI3
F3.75
sI4
F1.0
sI5
F1.0
sI6
F1.0
sI7
F1.0
sI8
F0.25
sI9
F1.0
sI10
F1.0
sI11
F1.0
sI12
F1.0
sI13
F1.0
sI14
F40.0
sI15
F154.0
ssbsg15
g0
(g16
g2
Ntp3154
Rp3155
(dp3156
g20
I0
sbsba(ics475_types
Instance
p3157
(dp3158
g10
(ics475_types
FeatureVector
p3159
(dp3160
g13
(dp3161
I33
F1.0
sI2
F43.25
sI3
F3.0
sI4
F1.0
sI5
F1.0
sI8
F6.0
sI10
F1.0
sI11
F11.0
sI13
F1.0
sI14
F80.0
sI16
F1.0
sI21
F1.0
sI27
F1.0
sI30
F1.0
ssbsg15
g0
(g16
g2
Ntp3162
Rp3163
(dp3164
g20
I1
sbsba(ics475_types
Instance
p3165
(dp3166
g10
(ics475_types
FeatureVector
p3167
(dp3168
g13
(dp3169
I33
F1.0
sI2
F63.33
sI3
F0.54
sI4
F1.0
sI5
F1.0
sI6
F1.0
sI7
F1.0
sI8
F0.585
sI10
F1.0
sI11
F3.0
sI12
F1.0
sI13
F1.0
sI14
F180.0
sI16
F1.0
ssbsg15
g0
(g16
g2
Ntp3170
Rp3171
(dp3172
g20
I0
sbsba(ics475_types
Instance
p3173
(dp3174
g10
(ics475_types
FeatureVector
p3175
(dp3176
g13
(dp3177
I1
F1.0
sI2
F18.92
sI3
F9.0
sI4
F1.0
sI5
F1.0
sI7
F1.0
sI8
F0.75
sI10
F1.0
sI11
F2.0
sI13
F1.0
sI14
F88.0
sI15
F591.0
sI21
F1.0
sI33
F1.0
sI37
F1.0
ssbsg15
g0
(g16
g2
Ntp3178
Rp3179
(dp3180
g20
I1
sbsba(ics475_types
Instance
p3181
(dp3182
g10
(ics475_types
FeatureVector
p3183
(dp3184
g13
(dp3185
I33
F1.0
sI2
F31.67
sI3
F16.165
sI4
F1.0
sI5
F1.0
sI7
F1.0
sI8
F3.0
sI10
F1.0
sI11
F9.0
sI13
F1.0
sI14
F250.0
sI15
F730.0
sI16
F1.0
sI34
F1.0
sI21
F1.0
ssbsg15
g0
(g16
g2
Ntp3186
Rp3187
(dp3188
g20
I1
sbsba(ics475_types
Instance
p3189
(dp3190
g10
(ics475_types
FeatureVector
p3191
(dp3192
g13
(dp3193
I1
F1.0
sI2
F35.17
sI3
F3.75
sI4
F1.0
sI5
F1.0
sI9
F1.0
sI10
F1.0
sI11
F6.0
sI13
F1.0
sI15
F200.0
sI21
F1.0
sI23
F1.0
sI24
F1.0
ssbsg15
g0
(g16
g2
Ntp3194
Rp3195
(dp3196
g20
I0
sbsba(ics475_types
Instance
p3197
(dp3198
g10
(ics475_types
FeatureVector
p3199
(dp3200
g13
(dp3201
I2
F30.75
sI3
F1.585
sI4
F1.0
sI5
F1.0
sI7
F1.0
sI8
F0.585
sI9
F1.0
sI12
F1.0
sI34
F1.0
sI16
F1.0
sI20
F1.0
sI22
F1.0
ssbsg15
g0
(g16
g2
Ntp3202
Rp3203
(dp3204
g20
I0
sbsba(ics475_types
Instance
p3205
(dp3206
g10
(ics475_types
FeatureVector
p3207
(dp3208
g13
(dp3209
I1
F1.0
sI2
F25.25
sI3
F12.5
sI4
F1.0
sI5
F1.0
sI7
F1.0
sI8
F1.0
sI9
F1.0
sI12
F1.0
sI13
F1.0
sI14
F180.0
sI15
F1062.0
sI34
F1.0
sI20
F1.0
ssbsg15
g0
(g16
g2
Ntp3210
Rp3211
(dp3212
g20
I0
sbsba(ics475_types
Instance
p3213
(dp3214
g10
(ics475_types
FeatureVector
p3215
(dp3216
g13
(dp3217
I2
F36.17
sI3
F0.42
sI7
F1.0
sI8
F0.29
sI9
F1.0
sI12
F1.0
sI13
F1.0
sI14
F309.0
sI15
F2.0
sI16
F1.0
sI17
F1.0
sI18
F1.0
sI20
F1.0
sI31
F1.0
ssbsg15
g0
(g16
g2
Ntp3218
Rp3219
(dp3220
g20
I0
sbsba(ics475_types
Instance
p3221
(dp3222
g10
(ics475_types
FeatureVector
p3223
(dp3224
g13
(dp3225
I33
F1.0
sI2
F20.5
sI3
F10.0
sI6
F1.0
sI7
F1.0
sI8
F2.5
sI14
F40.0
sI16
F1.0
sI17
F1.0
sI18
F1.0
sI20
F1.0
sI21
F1.0
sI22
F1.0
ssbsg15
g0
(g16
g2
Ntp3226
Rp3227
(dp3228
g20
I1
sbsba(ics475_types
Instance
p3229
(dp3230
g10
(ics475_types
FeatureVector
p3231
(dp3232
g13
(dp3233
I33
F1.0
sI2
F37.75
sI3
F7.0
sI4
F1.0
sI5
F1.0
sI8
F11.5
sI10
F1.0
sI11
F7.0
sI12
F1.0
sI13
F1.0
sI14
F300.0
sI15
F5.0
sI16
F1.0
sI27
F1.0
sI30
F1.0
ssbsg15
g0
(g16
g2
Ntp3234
Rp3235
(dp3236
g20
I0
sbsba(ics475_types
Instance
p3237
(dp3238
g10
(ics475_types
FeatureVector
p3239
(dp3240
g13
(dp3241
I1
F1.0
sI2
F27.67
sI3
F2.04
sI4
F1.0
sI5
F1.0
sI7
F1.0
sI8
F0.25
sI9
F1.0
sI12
F1.0
sI13
F1.0
sI14
F180.0
sI15
F50.0
sI20
F1.0
sI31
F1.0
ssbsg15
g0
(g16
g2
Ntp3242
Rp3243
(dp3244
g20
I0
sbsba(ics475_types
Instance
p3245
(dp3246
g10
(ics475_types
FeatureVector
p3247
(dp3248
g13
(dp3249
I2
F20.67
sI3
F0.415
sI4
F1.0
sI5
F1.0
sI6
F1.0
sI7
F1.0
sI8
F0.125
sI9
F1.0
sI13
F1.0
sI15
F44.0
sI16
F1.0
sI20
F1.0
sI21
F1.0
ssbsg15
g0
(g16
g2
Ntp3250
Rp3251
(dp3252
g20
I0
sbsba(ics475_types
Instance
p3253
(dp3254
g10
(ics475_types
FeatureVector
p3255
(dp3256
g13
(dp3257
I2
F32.33
sI3
F3.5
sI4
F1.0
sI5
F1.0
sI7
F1.0
sI8
F0.5
sI9
F1.0
sI12
F1.0
sI13
F1.0
sI14
F232.0
sI16
F1.0
sI19
F1.0
sI20
F1.0
ssbsg15
g0
(g16
g2
Ntp3258
Rp3259
(dp3260
g20
I0
sbsba(ics475_types
Instance
p3261
(dp3262
g10
(ics475_types
FeatureVector
p3263
(dp3264
g13
(dp3265
I2
F22.25
sI3
F0.46
sI4
F1.0
sI5
F1.0
sI7
F1.0
sI8
F0.125
sI9
F1.0
sI12
F1.0
sI13
F1.0
sI14
F280.0
sI15
F55.0
sI16
F1.0
sI19
F1.0
sI20
F1.0
ssbsg15
g0
(g16
g2
Ntp3266
Rp3267
(dp3268
g20
I0
sbsba(ics475_types
Instance
p3269
(dp3270
g10
(ics475_types
FeatureVector
p3271
(dp3272
g13
(dp3273
I32
F1.0
sI1
F1.0
sI2
F21.25
sI3
F2.335
sI4
F1.0
sI5
F1.0
sI33
F1.0
sI8
F0.5
sI10
F1.0
sI11
F4.0
sI14
F80.0
sI21
F1.0
sI22
F1.0
sI25
F1.0
ssbsg15
g0
(g16
g2
Ntp3274
Rp3275
(dp3276
g20
I1
sbsba(ics475_types
Instance
p3277
(dp3278
g10
(ics475_types
FeatureVector
p3279
(dp3280
g13
(dp3281
I33
F1.0
sI2
F25.0
sI3
F12.0
sI4
F1.0
sI5
F1.0
sI7
F1.0
sI8
F2.25
sI10
F1.0
sI11
F2.0
sI12
F1.0
sI13
F1.0
sI14
F120.0
sI15
F5.0
sI16
F1.0
sI19
F1.0
ssbsg15
g0
(g16
g2
Ntp3282
Rp3283
(dp3284
g20
I0
sbsba(ics475_types
Instance
p3285
(dp3286
g10
(ics475_types
FeatureVector
p3287
(dp3288
g13
(dp3289
I33
F1.0
sI2
F38.67
sI3
F0.21
sI4
F1.0
sI5
F1.0
sI7
F1.0
sI8
F0.085
sI12
F1.0
sI13
F1.0
sI14
F280.0
sI16
F1.0
sI19
F1.0
sI20
F1.0
ssbsg15
g0
(g16
g2
Ntp3290
Rp3291
(dp3292
g20
I1
sbsba(ics475_types
Instance
p3293
(dp3294
g10
(ics475_types
FeatureVector
p3295
(dp3296
g13
(dp3297
I33
F1.0
sI2
F56.0
sI3
F12.5
sI4
F1.0
sI5
F1.0
sI8
F8.0
sI12
F1.0
sI13
F1.0
sI14
F24.0
sI15
F2028.0
sI16
F1.0
sI19
F1.0
sI20
F1.0
sI27
F1.0
ssbsg15
g0
(g16
g2
Ntp3298
Rp3299
(dp3300
g20
I1
sbsba(ics475_types
Instance
p3301
(dp3302
g10
(ics475_types
FeatureVector
p3303
(dp3304
g13
(dp3305
I1
F1.0
sI2
F19.58
sI3
F0.665
sI4
F1.0
sI5
F1.0
sI7
F1.0
sI8
F1.665
sI9
F1.0
sI13
F1.0
sI14
F220.0
sI15
F5.0
sI20
F1.0
sI21
F1.0
sI31
F1.0
ssbsg15
g0
(g16
g2
Ntp3306
Rp3307
(dp3308
g20
I0
sbsba(ics475_types
Instance
p3309
(dp3310
g10
(ics475_types
FeatureVector
p3311
(dp3312
g13
(dp3313
I2
F29.83
sI3
F3.5
sI4
F1.0
sI5
F1.0
sI6
F1.0
sI7
F1.0
sI8
F0.165
sI9
F1.0
sI13
F1.0
sI14
F216.0
sI16
F1.0
sI20
F1.0
sI21
F1.0
ssbsg15
g0
(g16
g2
Ntp3314
Rp3315
(dp3316
g20
I0
sbsba(ics475_types
Instance
p3317
(dp3318
g10
(ics475_types
FeatureVector
p3319
(dp3320
g13
(dp3321
I33
F1.0
sI2
F23.08
sI3
F2.5
sI4
F1.0
sI5
F1.0
sI6
F1.0
sI7
F1.0
sI8
F1.085
sI10
F1.0
sI11
F11.0
sI12
F1.0
sI13
F1.0
sI14
F60.0
sI15
F2184.0
sI16
F1.0
ssbsg15
g0
(g16
g2
Ntp3322
Rp3323
(dp3324
g20
I1
sbsba(ics475_types
Instance
p3325
(dp3326
g10
(ics475_types
FeatureVector
p3327
(dp3328
g13
(dp3329
I1
F1.0
sI2
F38.92
sI3
F1.665
sI4
F1.0
sI5
F1.0
sI7
F1.0
sI8
F0.25
sI9
F1.0
sI13
F1.0
sI15
F390.0
sI20
F1.0
sI21
F1.0
sI37
F1.0
ssbsg15
g0
(g16
g2
Ntp3330
Rp3331
(dp3332
g20
I0
sbsba(ics475_types
Instance
p3333
(dp3334
g10
(ics475_types
FeatureVector
p3335
(dp3336
g13
(dp3337
I2
F39.17
sI3
F2.5
sI8
F10.0
sI9
F1.0
sI12
F1.0
sI14
F200.0
sI16
F1.0
sI17
F1.0
sI18
F1.0
sI20
F1.0
sI22
F1.0
sI25
F1.0
sI27
F1.0
ssbsg15
g0
(g16
g2
Ntp3338
Rp3339
(dp3340
g20
I0
sbsba(ics475_types
Instance
p3341
(dp3342
g10
(ics475_types
FeatureVector
p3343
(dp3344
g13
(dp3345
I2
F29.42
sI3
F1.25
sI4
F1.0
sI5
F1.0
sI6
F1.0
sI8
F0.25
sI9
F1.0
sI10
F1.0
sI11
F2.0
sI12
F1.0
sI13
F1.0
sI14
F400.0
sI15
F108.0
sI16
F1.0
sI27
F1.0
ssbsg15
g0
(g16
g2
Ntp3346
Rp3347
(dp3348
g20
I0
sbsba(ics475_types
Instance
p3349
(dp3350
g10
(ics475_types
FeatureVector
p3351
(dp3352
g13
(dp3353
I2
F23.08
sI4
F1.0
sI5
F1.0
sI7
F1.0
sI8
F1.0
sI9
F1.0
sI10
F1.0
sI11
F11.0
sI16
F1.0
sI19
F1.0
sI21
F1.0
sI22
F1.0
ssbsg15
g0
(g16
g2
Ntp3354
Rp3355
(dp3356
g20
I0
sbsba(ics475_types
Instance
p3357
(dp3358
g10
(ics475_types
FeatureVector
p3359
(dp3360
g13
(dp3361
I33
F1.0
sI2
F22.08
sI3
F11.0
sI4
F1.0
sI5
F1.0
sI7
F1.0
sI8
F0.665
sI13
F1.0
sI14
F100.0
sI16
F1.0
sI20
F1.0
sI21
F1.0
sI36
F1.0
ssbsg15
g0
(g16
g2
Ntp3362
Rp3363
(dp3364
g20
I1
sbsba(ics475_types
Instance
p3365
(dp3366
g10
(ics475_types
FeatureVector
p3367
(dp3368
g13
(dp3369
I33
F1.0
sI2
F21.67
sI3
F1.165
sI7
F1.0
sI8
F2.5
sI10
F1.0
sI11
F1.0
sI13
F1.0
sI14
F180.0
sI15
F20.0
sI16
F1.0
sI17
F1.0
sI18
F1.0
sI19
F1.0
sI21
F1.0
ssbsg15
g0
(g16
g2
Ntp3370
Rp3371
(dp3372
g20
I0
sbsba(ics475_types
Instance
p3373
(dp3374
g10
(ics475_types
FeatureVector
p3375
(dp3376
g13
(dp3377
I33
F1.0
sI2
F23.25
sI3
F1.5
sI4
F1.0
sI5
F1.0
sI7
F1.0
sI8
F2.375
sI10
F1.0
sI11
F3.0
sI12
F1.0
sI13
F1.0
sI15
F582.0
sI16
F1.0
sI30
F1.0
ssbsg15
g0
(g16
g2
Ntp3378
Rp3379
(dp3380
g20
I1
sbsba(ics475_types
Instance
p3381
(dp3382
g10
(ics475_types
FeatureVector
p3383
(dp3384
g13
(dp3385
I1
F1.0
sI2
F40.83
sI3
F10.0
sI4
F1.0
sI5
F1.0
sI33
F1.0
sI8
F1.75
sI13
F1.0
sI14
F29.0
sI15
F837.0
sI20
F1.0
sI21
F1.0
sI27
F1.0
sI30
F1.0
ssbsg15
g0
(g16
g2
Ntp3386
Rp3387
(dp3388
g20
I1
sbsba(ics475_types
Instance
p3389
(dp3390
g10
(ics475_types
FeatureVector
p3391
(dp3392
g13
(dp3393
I33
F1.0
sI2
F27.25
sI3
F0.625
sI4
F1.0
sI5
F1.0
sI7
F1.0
sI8
F0.455
sI12
F1.0
sI13
F1.0
sI14
F200.0
sI16
F1.0
sI20
F1.0
sI37
F1.0
ssbsg15
g0
(g16
g2
Ntp3394
Rp3395
(dp3396
g20
I0
sbsba(ics475_types
Instance
p3397
(dp3398
g10
(ics475_types
FeatureVector
p3399
(dp3400
g13
(dp3401
I1
F1.0
sI2
F21.75
sI3
F11.75
sI4
F1.0
sI5
F1.0
sI6
F1.0
sI7
F1.0
sI8
F0.25
sI9
F1.0
sI12
F1.0
sI13
F1.0
sI14
F180.0
sI20
F1.0
ssbsg15
g0
(g16
g2
Ntp3402
Rp3403
(dp3404
g20
I0
sbsba(ics475_types
Instance
p3405
(dp3406
g10
(ics475_types
FeatureVector
p3407
(dp3408
g13
(dp3409
I1
F1.0
sI2
F21.92
sI3
F11.665
sI4
F1.0
sI5
F1.0
sI8
F0.085
sI9
F1.0
sI13
F1.0
sI14
F320.0
sI15
F5.0
sI19
F1.0
sI20
F1.0
sI21
F1.0
sI27
F1.0
ssbsg15
g0
(g16
g2
Ntp3410
Rp3411
(dp3412
g20
I0
sbsba(ics475_types
Instance
p3413
(dp3414
g10
(ics475_types
FeatureVector
p3415
(dp3416
g13
(dp3417
I1
F1.0
sI2
F31.92
sI3
F3.125
sI4
F1.0
sI5
F1.0
sI8
F3.04
sI9
F1.0
sI10
F1.0
sI11
F2.0
sI12
F1.0
sI13
F1.0
sI14
F200.0
sI15
F4.0
sI23
F1.0
sI24
F1.0
ssbsg15
g0
(g16
g2
Ntp3418
Rp3419
(dp3420
g20
I0
sbsba(ics475_types
Instance
p3421
(dp3422
g10
(ics475_types
FeatureVector
p3423
(dp3424
g13
(dp3425
I33
F1.0
sI2
F29.92
sI3
F1.835
sI4
F1.0
sI5
F1.0
sI6
F1.0
sI8
F4.335
sI13
F1.0
sI14
F260.0
sI15
F200.0
sI16
F1.0
sI20
F1.0
sI21
F1.0
sI27
F1.0
ssbsg15
g0
(g16
g2
Ntp3426
Rp3427
(dp3428
g20
I1
sbsba(ics475_types
Instance
p3429
(dp3430
g10
(ics475_types
FeatureVector
p3431
(dp3432
g13
(dp3433
I1
F1.0
sI2
F21.75
sI3
F1.75
sI9
F1.0
sI13
F1.0
sI14
F160.0
sI17
F1.0
sI18
F1.0
sI20
F1.0
sI21
F1.0
sI28
F1.0
sI29
F1.0
ssbsg15
g0
(g16
g2
Ntp3434
Rp3435
(dp3436
g20
I0
sbsba(ics475_types
Instance
p3437
(dp3438
g10
(ics475_types
FeatureVector
p3439
(dp3440
g13
(dp3441
I2
F37.33
sI3
F2.665
sI4
F1.0
sI5
F1.0
sI7
F1.0
sI8
F0.165
sI9
F1.0
sI12
F1.0
sI13
F1.0
sI15
F501.0
sI16
F1.0
sI20
F1.0
sI36
F1.0
ssbsg15
g0
(g16
g2
Ntp3442
Rp3443
(dp3444
g20
I0
sbsba(ics475_types
Instance
p3445
(dp3446
g10
(ics475_types
FeatureVector
p3447
(dp3448
g13
(dp3449
I1
F1.0
sI2
F47.75
sI3
F8.0
sI4
F1.0
sI5
F1.0
sI6
F1.0
sI7
F1.0
sI8
F7.875
sI10
F1.0
sI11
F6.0
sI12
F1.0
sI13
F1.0
sI15
F1260.0
sI33
F1.0
ssbsg15
g0
(g16
g2
Ntp3450
Rp3451
(dp3452
g20
I1
sbsba(ics475_types
Instance
p3453
(dp3454
g10
(ics475_types
FeatureVector
p3455
(dp3456
g13
(dp3457
I1
F1.0
sI2
F22.5
sI3
F11.0
sI33
F1.0
sI7
F1.0
sI8
F3.0
sI12
F1.0
sI13
F1.0
sI14
F268.0
sI17
F1.0
sI18
F1.0
sI20
F1.0
sI30
F1.0
ssbsg15
g0
(g16
g2
Ntp3458
Rp3459
(dp3460
g20
I0
sbsba(ics475_types
Instance
p3461
(dp3462
g10
(ics475_types
FeatureVector
p3463
(dp3464
g13
(dp3465
I2
F29.5
sI3
F0.58
sI4
F1.0
sI5
F1.0
sI7
F1.0
sI8
F0.29
sI9
F1.0
sI10
F1.0
sI11
F1.0
sI13
F1.0
sI14
F340.0
sI15
F2803.0
sI16
F1.0
sI21
F1.0
sI31
F1.0
ssbsg15
g0
(g16
g2
Ntp3466
Rp3467
(dp3468
g20
I0
sbsba(ics475_types
Instance
p3469
(dp3470
g10
(ics475_types
FeatureVector
p3471
(dp3472
g13
(dp3473
I32
F1.0
sI33
F1.0
sI2
F51.33
sI3
F10.0
sI4
F1.0
sI5
F1.0
sI10
F1.0
sI11
F11.0
sI13
F1.0
sI15
F1249.0
sI16
F1.0
sI21
F1.0
sI25
F1.0
ssbsg15
g0
(g16
g2
Ntp3474
Rp3475
(dp3476
g20
I1
sbsba(ics475_types
Instance
p3477
(dp3478
g10
(ics475_types
FeatureVector
p3479
(dp3480
g13
(dp3481
I2
F24.08
sI3
F0.875
sI4
F1.0
sI5
F1.0
sI7
F1.0
sI8
F0.085
sI9
F1.0
sI10
F1.0
sI11
F4.0
sI13
F1.0
sI14
F254.0
sI15
F1950.0
sI16
F1.0
sI35
F1.0
sI21
F1.0
ssbsg15
g0
(g16
g2
Ntp3482
Rp3483
(dp3484
g20
I0
sbsba(ics475_types
Instance
p3485
(dp3486
g10
(ics475_types
FeatureVector
p3487
(dp3488
g13
(dp3489
I32
F1.0
sI2
F47.83
sI3
F4.165
sI4
F1.0
sI5
F1.0
sI39
F1.0
sI8
F0.085
sI9
F1.0
sI12
F1.0
sI13
F1.0
sI14
F520.0
sI16
F1.0
sI20
F1.0
ssbsg15
g0
(g16
g2
Ntp3490
Rp3491
(dp3492
g20
I0
sbsba(ics475_types
Instance
p3493
(dp3494
g10
(ics475_types
FeatureVector
p3495
(dp3496
g13
(dp3497
I2
F18.25
sI3
F0.165
sI4
F1.0
sI5
F1.0
sI7
F1.0
sI8
F0.25
sI9
F1.0
sI12
F1.0
sI34
F1.0
sI14
F280.0
sI16
F1.0
sI20
F1.0
sI22
F1.0
ssbsg15
g0
(g16
g2
Ntp3498
Rp3499
(dp3500
g20
I0
sbsba(ics475_types
Instance
p3501
(dp3502
g10
(ics475_types
FeatureVector
p3503
(dp3504
g13
(dp3505
I33
F1.0
sI2
F48.75
sI3
F26.335
sI12
F1.0
sI13
F1.0
sI16
F1.0
sI17
F1.0
sI18
F1.0
sI20
F1.0
sI23
F1.0
sI24
F1.0
ssbsg15
g0
(g16
g2
Ntp3506
Rp3507
(dp3508
g20
I0
sbsba(ics475_types
Instance
p3509
(dp3510
g10
(ics475_types
FeatureVector
p3511
(dp3512
g13
(dp3513
I33
F1.0
sI2
F34.75
sI3
F15.0
sI4
F1.0
sI5
F1.0
sI38
F1.0
sI8
F5.375
sI10
F1.0
sI11
F9.0
sI12
F1.0
sI13
F1.0
sI15
F134.0
sI16
F1.0
sI40
F1.0
ssbsg15
g0
(g16
g2
Ntp3514
Rp3515
(dp3516
g20
I1
sbsba(ics475_types
Instance
p3517
(dp3518
g10
(ics475_types
FeatureVector
p3519
(dp3520
g13
(dp3521
I1
F1.0
sI2
F18.83
sI3
F4.415
sI6
F1.0
sI33
F1.0
sI8
F3.0
sI13
F1.0
sI14
F240.0
sI17
F1.0
sI18
F1.0
sI20
F1.0
sI21
F1.0
sI27
F1.0
ssbsg15
g0
(g16
g2
Ntp3522
Rp3523
(dp3524
g20
I1
sbsba(ics475_types
Instance
p3525
(dp3526
g10
(ics475_types
FeatureVector
p3527
(dp3528
g13
(dp3529
I2
F21.25
sI3
F1.5
sI4
F1.0
sI5
F1.0
sI7
F1.0
sI8
F1.5
sI9
F1.0
sI13
F1.0
sI14
F150.0
sI15
F8.0
sI16
F1.0
sI20
F1.0
sI21
F1.0
sI31
F1.0
ssbsg15
g0
(g16
g2
Ntp3530
Rp3531
(dp3532
g20
I1
sbsba(ics475_types
Instance
p3533
(dp3534
g10
(ics475_types
FeatureVector
p3535
(dp3536
g13
(dp3537
I33
F1.0
sI2
F48.58
sI3
F6.5
sI4
F1.0
sI5
F1.0
sI8
F6.0
sI12
F1.0
sI13
F1.0
sI14
F350.0
sI16
F1.0
sI20
F1.0
sI27
F1.0
sI30
F1.0
ssbsg15
g0
(g16
g2
Ntp3538
Rp3539
(dp3540
g20
I1
sbsba(ics475_types
Instance
p3541
(dp3542
g10
(ics475_types
FeatureVector
p3543
(dp3544
g13
(dp3545
I32
F1.0
sI33
F1.0
sI2
F25.75
sI3
F0.75
sI4
F1.0
sI5
F1.0
sI6
F1.0
sI8
F0.25
sI13
F1.0
sI14
F349.0
sI15
F23.0
sI16
F1.0
sI20
F1.0
sI21
F1.0
ssbsg15
g0
(g16
g2
Ntp3546
Rp3547
(dp3548
g20
I1
sbsba(ics475_types
Instance
p3549
(dp3550
g10
(ics475_types
FeatureVector
p3551
(dp3552
g13
(dp3553
I1
F1.0
sI2
F46.08
sI3
F3.0
sI4
F1.0
sI5
F1.0
sI6
F1.0
sI7
F1.0
sI8
F2.375
sI10
F1.0
sI11
F8.0
sI12
F1.0
sI13
F1.0
sI14
F396.0
sI15
F4159.0
sI33
F1.0
ssbsg15
g0
(g16
g2
Ntp3554
Rp3555
(dp3556
g20
I1
sbsba(ics475_types
Instance
p3557
(dp3558
g10
(ics475_types
FeatureVector
p3559
(dp3560
g13
(dp3561
I2
F30.33
sI3
F0.5
sI4
F1.0
sI5
F1.0
sI8
F0.085
sI9
F1.0
sI12
F1.0
sI34
F1.0
sI14
F252.0
sI16
F1.0
sI20
F1.0
sI22
F1.0
sI27
F1.0
ssbsg15
g0
(g16
g2
Ntp3562
Rp3563
(dp3564
g20
I0
sbsba(ics475_types
Instance
p3565
(dp3566
g10
(ics475_types
FeatureVector
p3567
(dp3568
g13
(dp3569
I33
F1.0
sI2
F34.0
sI3
F4.5
sI4
F1.0
sI5
F1.0
sI7
F1.0
sI8
F1.0
sI12
F1.0
sI13
F1.0
sI14
F240.0
sI16
F1.0
sI20
F1.0
sI37
F1.0
ssbsg15
g0
(g16
g2
Ntp3570
Rp3571
(dp3572
g20
I0
sbsba(ics475_types
Instance
p3573
(dp3574
g10
(ics475_types
FeatureVector
p3575
(dp3576
g13
(dp3577
I33
F1.0
sI2
F24.58
sI3
F12.5
sI4
F1.0
sI5
F1.0
sI7
F1.0
sI8
F0.875
sI12
F1.0
sI13
F1.0
sI14
F260.0
sI16
F1.0
sI20
F1.0
sI31
F1.0
ssbsg15
g0
(g16
g2
Ntp3578
Rp3579
(dp3580
g20
I0
sbsba(ics475_types
Instance
p3581
(dp3582
g10
(ics475_types
FeatureVector
p3583
(dp3584
g13
(dp3585
I2
F32.33
sI3
F2.5
sI4
F1.0
sI5
F1.0
sI6
F1.0
sI7
F1.0
sI8
F1.25
sI9
F1.0
sI12
F1.0
sI13
F1.0
sI14
F280.0
sI16
F1.0
sI20
F1.0
ssbsg15
g0
(g16
g2
Ntp3586
Rp3587
(dp3588
g20
I0
sbsba(ics475_types
Instance
p3589
(dp3590
g10
(ics475_types
FeatureVector
p3591
(dp3592
g13
(dp3593
I33
F1.0
sI2
F20.42
sI3
F1.835
sI4
F1.0
sI5
F1.0
sI6
F1.0
sI7
F1.0
sI8
F2.25
sI10
F1.0
sI11
F1.0
sI13
F1.0
sI14
F100.0
sI15
F150.0
sI16
F1.0
sI21
F1.0
ssbsg15
g0
(g16
g2
Ntp3594
Rp3595
(dp3596
g20
I1
sbsba(ics475_types
Instance
p3597
(dp3598
g10
(ics475_types
FeatureVector
p3599
(dp3600
g13
(dp3601
I33
F1.0
sI2
F29.17
sI3
F3.5
sI4
F1.0
sI5
F1.0
sI7
F1.0
sI8
F3.5
sI10
F1.0
sI11
F3.0
sI12
F1.0
sI13
F1.0
sI14
F329.0
sI16
F1.0
sI31
F1.0
ssbsg15
g0
(g16
g2
Ntp3602
Rp3603
(dp3604
g20
I0
sbsba(ics475_types
Instance
p3605
(dp3606
g10
(ics475_types
FeatureVector
p3607
(dp3608
g13
(dp3609
I2
F51.83
sI3
F3.0
sI8
F1.5
sI9
F1.0
sI13
F1.0
sI14
F180.0
sI15
F4.0
sI16
F1.0
sI17
F1.0
sI18
F1.0
sI20
F1.0
sI21
F1.0
sI23
F1.0
sI24
F1.0
ssbsg15
g0
(g16
g2
Ntp3610
Rp3611
(dp3612
g20
I0
sbsba(ics475_types
Instance
p3613
(dp3614
g10
(ics475_types
FeatureVector
p3615
(dp3616
g13
(dp3617
I1
F1.0
sI2
F29.5
sI3
F0.46
sI4
F1.0
sI5
F1.0
sI7
F1.0
sI8
F0.54
sI10
F1.0
sI11
F4.0
sI13
F1.0
sI14
F380.0
sI15
F500.0
sI19
F1.0
sI21
F1.0
sI33
F1.0
ssbsg15
g0
(g16
g2
Ntp3618
Rp3619
(dp3620
g20
I1
sbsba(ics475_types
Instance
p3621
(dp3622
g10
(ics475_types
FeatureVector
p3623
(dp3624
g13
(dp3625
I2
F33.58
sI3
F0.335
sI36
F1.0
sI7
F1.0
sI8
F0.085
sI9
F1.0
sI13
F1.0
sI14
F180.0
sI16
F1.0
sI17
F1.0
sI18
F1.0
sI20
F1.0
sI21
F1.0
ssbsg15
g0
(g16
g2
Ntp3626
Rp3627
(dp3628
g20
I0
sbsba(ics475_types
Instance
p3629
(dp3630
g10
(ics475_types
FeatureVector
p3631
(dp3632
g13
(dp3633
I1
F1.0
sI2
F45.83
sI3
F10.5
sI4
F1.0
sI5
F1.0
sI7
F1.0
sI8
F5.0
sI10
F1.0
sI11
F7.0
sI12
F1.0
sI13
F1.0
sI33
F1.0
sI30
F1.0
ssbsg15
g0
(g16
g2
Ntp3634
Rp3635
(dp3636
g20
I1
sbsba(ics475_types
Instance
p3637
(dp3638
g10
(ics475_types
FeatureVector
p3639
(dp3640
g13
(dp3641
I2
F48.08
sI3
F6.04
sI4
F1.0
sI5
F1.0
sI7
F1.0
sI8
F0.04
sI9
F1.0
sI13
F1.0
sI15
F2690.0
sI16
F1.0
sI19
F1.0
sI20
F1.0
sI21
F1.0
ssbsg15
g0
(g16
g2
Ntp3642
Rp3643
(dp3644
g20
I1
sbsba(ics475_types
Instance
p3645
(dp3646
g10
(ics475_types
FeatureVector
p3647
(dp3648
g13
(dp3649
I32
F1.0
sI2
F33.58
sI3
F0.25
sI4
F1.0
sI5
F1.0
sI8
F4.0
sI9
F1.0
sI12
F1.0
sI14
F420.0
sI16
F1.0
sI20
F1.0
sI22
F1.0
sI25
F1.0
ssbsg15
g0
(g16
g2
Ntp3650
Rp3651
(dp3652
g20
I0
sbsba(ics475_types
Instance
p3653
(dp3654
g10
(ics475_types
FeatureVector
p3655
(dp3656
g13
(dp3657
I32
F1.0
sI2
F34.42
sI3
F1.335
sI4
F1.0
sI5
F1.0
sI8
F0.125
sI9
F1.0
sI12
F1.0
sI13
F1.0
sI14
F440.0
sI15
F4500.0
sI16
F1.0
sI20
F1.0
sI25
F1.0
ssbsg15
g0
(g16
g2
Ntp3658
Rp3659
(dp3660
g20
I0
sbsba(ics475_types
Instance
p3661
(dp3662
g10
(ics475_types
FeatureVector
p3663
(dp3664
g13
(dp3665
I2
F22.5
sI3
F0.125
sI7
F1.0
sI8
F0.125
sI9
F1.0
sI13
F1.0
sI14
F200.0
sI15
F70.0
sI16
F1.0
sI17
F1.0
sI18
F1.0
sI19
F1.0
sI20
F1.0
sI21
F1.0
ssbsg15
g0
(g16
g2
Ntp3666
Rp3667
(dp3668
g20
I0
sbsba(ics475_types
Instance
p3669
(dp3670
g10
(ics475_types
FeatureVector
p3671
(dp3672
g13
(dp3673
I1
F1.0
sI2
F68.67
sI3
F15.0
sI4
F1.0
sI5
F1.0
sI33
F1.0
sI41
F1.0
sI10
F1.0
sI11
F14.0
sI13
F1.0
sI15
F3376.0
sI21
F1.0
sI42
F1.0
ssbsg15
g0
(g16
g2
Ntp3674
Rp3675
(dp3676
g20
I1
sbsba(ics475_types
Instance
p3677
(dp3678
g10
(ics475_types
FeatureVector
p3679
(dp3680
g13
(dp3681
I1
F1.0
sI2
F30.25
sI3
F5.5
sI4
F1.0
sI5
F1.0
sI7
F1.0
sI8
F5.5
sI9
F1.0
sI12
F1.0
sI14
F100.0
sI19
F1.0
sI20
F1.0
sI22
F1.0
ssbsg15
g0
(g16
g2
Ntp3682
Rp3683
(dp3684
g20
I0
sbsba(ics475_types
Instance
p3685
(dp3686
g10
(ics475_types
FeatureVector
p3687
(dp3688
g13
(dp3689
I32
F1.0
sI2
F19.17
sI35
F1.0
sI9
F1.0
sI12
F1.0
sI14
F500.0
sI15
F1.0
sI16
F1.0
sI17
F1.0
sI18
F1.0
sI20
F1.0
sI22
F1.0
ssbsg15
g0
(g16
g2
Ntp3690
Rp3691
(dp3692
g20
I1
sbsba(ics475_types
Instance
p3693
(dp3694
g10
(ics475_types
FeatureVector
p3695
(dp3696
g13
(dp3697
I33
F1.0
sI2
F28.25
sI3
F5.125
sI4
F1.0
sI5
F1.0
sI7
F1.0
sI8
F4.75
sI10
F1.0
sI11
F2.0
sI13
F1.0
sI14
F420.0
sI15
F7.0
sI16
F1.0
sI21
F1.0
sI39
F1.0
ssbsg15
g0
(g16
g2
Ntp3698
Rp3699
(dp3700
g20
I1
sbsba(ics475_types
Instance
p3701
(dp3702
g10
(ics475_types
FeatureVector
p3703
(dp3704
g13
(dp3705
I33
F1.0
sI2
F23.92
sI3
F1.5
sI4
F1.0
sI5
F1.0
sI8
F1.875
sI10
F1.0
sI11
F6.0
sI13
F1.0
sI14
F200.0
sI15
F327.0
sI16
F1.0
sI34
F1.0
sI21
F1.0
sI27
F1.0
ssbsg15
g0
(g16
g2
Ntp3706
Rp3707
(dp3708
g20
I1
sbsba(ics475_types
Instance
p3709
(dp3710
g10
(ics475_types
FeatureVector
p3711
(dp3712
g13
(dp3713
I2
F25.58
sI3
F0.335
sI4
F1.0
sI5
F1.0
sI8
F3.5
sI9
F1.0
sI12
F1.0
sI13
F1.0
sI14
F340.0
sI16
F1.0
sI19
F1.0
sI20
F1.0
sI27
F1.0
ssbsg15
g0
(g16
g2
Ntp3714
Rp3715
(dp3716
g20
I0
sbsba(ics475_types
Instance
p3717
(dp3718
g10
(ics475_types
FeatureVector
p3719
(dp3720
g13
(dp3721
I33
F1.0
sI2
F51.42
sI3
F0.04
sI4
F1.0
sI5
F1.0
sI39
F1.0
sI8
F0.04
sI13
F1.0
sI15
F3000.0
sI16
F1.0
sI20
F1.0
sI21
F1.0
sI27
F1.0
ssbsg15
g0
(g16
g2
Ntp3722
Rp3723
(dp3724
g20
I1
sbsba(ics475_types
Instance
p3725
(dp3726
g10
(ics475_types
FeatureVector
p3727
(dp3728
g13
(dp3729
I1
F1.0
sI2
F23.58
sI3
F0.585
sI8
F0.125
sI9
F1.0
sI13
F1.0
sI14
F120.0
sI15
F87.0
sI17
F1.0
sI18
F1.0
sI20
F1.0
sI21
F1.0
sI23
F1.0
sI24
F1.0
ssbsg15
g0
(g16
g2
Ntp3730
Rp3731
(dp3732
g20
I0
sbsba(ics475_types
Instance
p3733
(dp3734
g10
(ics475_types
FeatureVector
p3735
(dp3736
g13
(dp3737
I33
F1.0
sI2
F36.67
sI3
F4.415
sI7
F1.0
sI8
F0.25
sI10
F1.0
sI11
F10.0
sI12
F1.0
sI13
F1.0
sI14
F320.0
sI16
F1.0
sI17
F1.0
sI18
F1.0
sI19
F1.0
ssbsg15
g0
(g16
g2
Ntp3738
Rp3739
(dp3740
g20
I1
sbsba(ics475_types
Instance
p3741
(dp3742
g10
(ics475_types
FeatureVector
p3743
(dp3744
g13
(dp3745
I2
F30.17
sI3
F1.085
sI6
F1.0
sI7
F1.0
sI8
F0.04
sI9
F1.0
sI13
F1.0
sI14
F170.0
sI15
F179.0
sI16
F1.0
sI17
F1.0
sI18
F1.0
sI20
F1.0
sI21
F1.0
ssbsg15
g0
(g16
g2
Ntp3746
Rp3747
(dp3748
g20
I0
sbsba(ics475_types
Instance
p3749
(dp3750
g10
(ics475_types
FeatureVector
p3751
(dp3752
g13
(dp3753
I2
F50.75
sI3
F0.585
sI4
F1.0
sI5
F1.0
sI9
F1.0
sI13
F1.0
sI14
F145.0
sI16
F1.0
sI20
F1.0
sI21
F1.0
sI23
F1.0
sI24
F1.0
ssbsg15
g0
(g16
g2
Ntp3754
Rp3755
(dp3756
g20
I0
sbsba(ics475_types
Instance
p3757
(dp3758
g10
(ics475_types
FeatureVector
p3759
(dp3760
g13
(dp3761
I1
F1.0
sI2
F20.75
sI3
F9.54
sI4
F1.0
sI5
F1.0
sI7
F1.0
sI8
F0.04
sI9
F1.0
sI13
F1.0
sI14
F200.0
sI15
F1000.0
sI20
F1.0
sI21
F1.0
sI25
F1.0
ssbsg15
g0
(g16
g2
Ntp3762
Rp3763
(dp3764
g20
I0
sbsba(ics475_types
Instance
p3765
(dp3766
g10
(ics475_types
FeatureVector
p3767
(dp3768
g13
(dp3769
I33
F1.0
sI2
F49.58
sI3
F19.0
sI4
F1.0
sI5
F1.0
sI10
F1.0
sI11
F1.0
sI13
F1.0
sI14
F94.0
sI16
F1.0
sI21
F1.0
sI23
F1.0
sI24
F1.0
ssbsg15
g0
(g16
g2
Ntp3770
Rp3771
(dp3772
g20
I0
sbsba(ics475_types
Instance
p3773
(dp3774
g10
(ics475_types
FeatureVector
p3775
(dp3776
g13
(dp3777
I2
F39.5
sI3
F1.625
sI4
F1.0
sI5
F1.0
sI6
F1.0
sI7
F1.0
sI8
F1.5
sI9
F1.0
sI13
F1.0
sI15
F316.0
sI16
F1.0
sI20
F1.0
sI21
F1.0
ssbsg15
g0
(g16
g2
Ntp3778
Rp3779
(dp3780
g20
I0
sbsba(ics475_types
Instance
p3781
(dp3782
g10
(ics475_types
FeatureVector
p3783
(dp3784
g13
(dp3785
I1
F1.0
sI2
F23.0
sI3
F11.75
sI4
F1.0
sI5
F1.0
sI33
F1.0
sI8
F0.5
sI10
F1.0
sI11
F2.0
sI12
F1.0
sI13
F1.0
sI14
F300.0
sI15
F551.0
sI39
F1.0
sI27
F1.0
ssbsg15
g0
(g16
g2
Ntp3786
Rp3787
(dp3788
g20
I1
sbsba(ics475_types
Instance
p3789
(dp3790
g10
(ics475_types
FeatureVector
p3791
(dp3792
g13
(dp3793
I1
F1.0
sI2
F36.75
sI3
F5.125
sI4
F1.0
sI5
F1.0
sI7
F1.0
sI8
F5.0
sI41
F1.0
sI12
F1.0
sI13
F1.0
sI15
F4000.0
sI20
F1.0
sI33
F1.0
ssbsg15
g0
(g16
g2
Ntp3794
Rp3795
(dp3796
g20
I1
sbsba(ics475_types
Instance
p3797
(dp3798
g10
(ics475_types
FeatureVector
p3799
(dp3800
g13
(dp3801
I2
F36.75
sI3
F0.125
sI6
F1.0
sI7
F1.0
sI8
F1.5
sI9
F1.0
sI12
F1.0
sI13
F1.0
sI14
F232.0
sI15
F113.0
sI16
F1.0
sI17
F1.0
sI18
F1.0
sI20
F1.0
ssbsg15
g0
(g16
g2
Ntp3802
Rp3803
(dp3804
g20
I1
sbsba(ics475_types
Instance
p3805
(dp3806
g10
(ics475_types
FeatureVector
p3807
(dp3808
g13
(dp3809
I2
F22.75
sI3
F11.5
sI4
F1.0
sI5
F1.0
sI7
F1.0
sI8
F0.415
sI9
F1.0
sI13
F1.0
sI16
F1.0
sI20
F1.0
sI21
F1.0
sI25
F1.0
ssbsg15
g0
(g16
g2
Ntp3810
Rp3811
(dp3812
g20
I0
sbsba(ics475_types
Instance
p3813
(dp3814
g10
(ics475_types
FeatureVector
p3815
(dp3816
g13
(dp3817
I33
F1.0
sI2
F37.33
sI3
F6.5
sI4
F1.0
sI5
F1.0
sI8
F4.25
sI10
F1.0
sI11
F12.0
sI12
F1.0
sI13
F1.0
sI14
F93.0
sI16
F1.0
sI35
F1.0
sI27
F1.0
ssbsg15
g0
(g16
g2
Ntp3818
Rp3819
(dp3820
g20
I1
sbsba(ics475_types
Instance
p3821
(dp3822
g10
(ics475_types
FeatureVector
p3823
(dp3824
g13
(dp3825
I33
F1.0
sI2
F23.58
sI3
F0.46
sI7
F1.0
sI8
F2.625
sI10
F1.0
sI11
F6.0
sI12
F1.0
sI13
F1.0
sI14
F208.0
sI15
F347.0
sI16
F1.0
sI17
F1.0
sI18
F1.0
sI31
F1.0
ssbsg15
g0
(g16
g2
Ntp3826
Rp3827
(dp3828
g20
I0
sbsba(ics475_types
Instance
p3829
(dp3830
g10
(ics475_types
FeatureVector
p3831
(dp3832
g13
(dp3833
I2
F22.5
sI3
F11.5
sI7
F1.0
sI8
F1.5
sI9
F1.0
sI12
F1.0
sI13
F1.0
sI15
F4000.0
sI16
F1.0
sI17
F1.0
sI18
F1.0
sI35
F1.0
sI20
F1.0
ssbsg15
g0
(g16
g2
Ntp3834
Rp3835
(dp3836
g20
I0
sbsba(ics475_types
Instance
p3837
(dp3838
g10
(ics475_types
FeatureVector
p3839
(dp3840
g13
(dp3841
I1
F1.0
sI2
F18.58
sI3
F10.0
sI4
F1.0
sI5
F1.0
sI7
F1.0
sI8
F0.415
sI9
F1.0
sI13
F1.0
sI14
F80.0
sI15
F42.0
sI34
F1.0
sI20
F1.0
sI21
F1.0
ssbsg15
g0
(g16
g2
Ntp3842
Rp3843
(dp3844
g20
I0
sbsba(ics475_types
Instance
p3845
(dp3846
g10
(ics475_types
FeatureVector
p3847
(dp3848
g13
(dp3849
I32
F1.0
sI1
F1.0
sI2
F33.75
sI3
F0.75
sI4
F1.0
sI5
F1.0
sI33
F1.0
sI8
F1.0
sI10
F1.0
sI11
F3.0
sI12
F1.0
sI13
F1.0
sI14
F212.0
sI19
F1.0
ssbsg15
g0
(g16
g2
Ntp3850
Rp3851
(dp3852
g20
I0
sbsba(ics475_types
Instance
p3853
(dp3854
g10
(ics475_types
FeatureVector
p3855
(dp3856
g13
(dp3857
I1
F1.0
sI2
F36.0
sI3
F1.0
sI4
F1.0
sI5
F1.0
sI6
F1.0
sI7
F1.0
sI8
F2.0
sI10
F1.0
sI11
F11.0
sI13
F1.0
sI15
F456.0
sI21
F1.0
sI33
F1.0
ssbsg15
g0
(g16
g2
Ntp3858
Rp3859
(dp3860
g20
I1
sbsba(ics475_types
Instance
p3861
(dp3862
g10
(ics475_types
FeatureVector
p3863
(dp3864
g13
(dp3865
I2
F31.83
sI3
F0.04
sI7
F1.0
sI8
F0.04
sI9
F1.0
sI13
F1.0
sI16
F1.0
sI17
F1.0
sI18
F1.0
sI35
F1.0
sI20
F1.0
sI21
F1.0
ssbsg15
g0
(g16
g2
Ntp3866
Rp3867
(dp3868
g20
I0
sbsba(ics475_types
Instance
p3869
(dp3870
g10
(ics475_types
FeatureVector
p3871
(dp3872
g13
(dp3873
I33
F1.0
sI2
F59.67
sI3
F1.54
sI4
F1.0
sI5
F1.0
sI7
F1.0
sI8
F0.125
sI12
F1.0
sI13
F1.0
sI14
F260.0
sI16
F1.0
sI20
F1.0
sI30
F1.0
ssbsg15
g0
(g16
g2
Ntp3874
Rp3875
(dp3876
g20
I1
sbsba(ics475_types
Instance
p3877
(dp3878
g10
(ics475_types
FeatureVector
p3879
(dp3880
g13
(dp3881
I2
F42.75
sI3
F4.085
sI4
F1.0
sI5
F1.0
sI7
F1.0
sI8
F0.04
sI9
F1.0
sI13
F1.0
sI14
F108.0
sI15
F100.0
sI16
F1.0
sI20
F1.0
sI21
F1.0
sI37
F1.0
ssbsg15
g0
(g16
g2
Ntp3882
Rp3883
(dp3884
g20
I0
sbsba(ics475_types
Instance
p3885
(dp3886
g10
(ics475_types
FeatureVector
p3887
(dp3888
g13
(dp3889
I33
F1.0
sI2
F76.75
sI3
F22.29
sI4
F1.0
sI5
F1.0
sI8
F12.75
sI41
F1.0
sI10
F1.0
sI11
F1.0
sI12
F1.0
sI13
F1.0
sI15
F109.0
sI16
F1.0
sI42
F1.0
ssbsg15
g0
(g16
g2
Ntp3890
Rp3891
(dp3892
g20
I1
sbsba(ics475_types
Instance
p3893
(dp3894
g10
(ics475_types
FeatureVector
p3895
(dp3896
g13
(dp3897
I33
F1.0
sI2
F21.33
sI3
F10.5
sI4
F1.0
sI5
F1.0
sI6
F1.0
sI7
F1.0
sI8
F3.0
sI12
F1.0
sI13
F1.0
sI16
F1.0
sI20
F1.0
ssbsg15
g0
(g16
g2
Ntp3898
Rp3899
(dp3900
g20
I1
sbsba(ics475_types
Instance
p3901
(dp3902
g10
(ics475_types
FeatureVector
p3903
(dp3904
g13
(dp3905
I33
F1.0
sI2
F30.17
sI3
F6.5
sI4
F1.0
sI5
F1.0
sI7
F1.0
sI8
F3.125
sI10
F1.0
sI11
F8.0
sI13
F1.0
sI14
F330.0
sI15
F1200.0
sI16
F1.0
sI21
F1.0
sI36
F1.0
ssbsg15
g0
(g16
g2
Ntp3906
Rp3907
(dp3908
g20
I1
sbsba(ics475_types
Instance
p3909
(dp3910
g10
(ics475_types
FeatureVector
p3911
(dp3912
g13
(dp3913
I1
F1.0
sI2
F26.92
sI3
F13.5
sI4
F1.0
sI5
F1.0
sI33
F1.0
sI8
F5.0
sI10
F1.0
sI11
F2.0
sI13
F1.0
sI15
F5000.0
sI21
F1.0
sI27
F1.0
sI30
F1.0
ssbsg15
g0
(g16
g2
Ntp3914
Rp3915
(dp3916
g20
I1
sbsba(ics475_types
Instance
p3917
(dp3918
g10
(ics475_types
FeatureVector
p3919
(dp3920
g13
(dp3921
I32
F1.0
sI33
F1.0
sI2
F49.5
sI3
F7.585
sI4
F1.0
sI5
F1.0
sI8
F7.585
sI10
F1.0
sI11
F15.0
sI12
F1.0
sI13
F1.0
sI15
F5000.0
sI16
F1.0
sI25
F1.0
ssbsg15
g0
(g16
g2
Ntp3922
Rp3923
(dp3924
g20
I1
sbsba(ics475_types
Instance
p3925
(dp3926
g10
(ics475_types
FeatureVector
p3927
(dp3928
g13
(dp3929
I1
F1.0
sI2
F38.58
sI3
F5.0
sI4
F1.0
sI5
F1.0
sI7
F1.0
sI8
F13.5
sI12
F1.0
sI13
F1.0
sI14
F980.0
sI20
F1.0
sI36
F1.0
sI33
F1.0
ssbsg15
g0
(g16
g2
Ntp3930
Rp3931
(dp3932
g20
I0
sbsba(ics475_types
Instance
p3933
(dp3934
g10
(ics475_types
FeatureVector
p3935
(dp3936
g13
(dp3937
I2
F33.67
sI3
F2.165
sI4
F1.0
sI5
F1.0
sI6
F1.0
sI7
F1.0
sI8
F1.5
sI9
F1.0
sI46
F1.0
sI14
F120.0
sI16
F1.0
sI20
F1.0
sI21
F1.0
ssbsg15
g0
(g16
g2
Ntp3938
Rp3939
(dp3940
g20
I0
sbsba(ics475_types
Instance
p3941
(dp3942
g10
(ics475_types
FeatureVector
p3943
(dp3944
g13
(dp3945
I2
F19.5
sI3
F0.29
sI4
F1.0
sI5
F1.0
sI7
F1.0
sI8
F0.29
sI9
F1.0
sI13
F1.0
sI14
F280.0
sI15
F364.0
sI16
F1.0
sI19
F1.0
sI20
F1.0
sI21
F1.0
ssbsg15
g0
(g16
g2
Ntp3946
Rp3947
(dp3948
g20
I0
sbsba(ics475_types
Instance
p3949
(dp3950
g10
(ics475_types
FeatureVector
p3951
(dp3952
g13
(dp3953
I32
F1.0
sI33
F1.0
sI2
F28.25
sI3
F5.04
sI6
F1.0
sI8
F1.5
sI10
F1.0
sI11
F8.0
sI12
F1.0
sI13
F1.0
sI14
F144.0
sI15
F7.0
sI16
F1.0
sI17
F1.0
sI18
F1.0
ssbsg15
g0
(g16
g2
Ntp3954
Rp3955
(dp3956
g20
I1
sbsba(ics475_types
Instance
p3957
(dp3958
g10
(ics475_types
FeatureVector
p3959
(dp3960
g13
(dp3961
I1
F1.0
sI2
F22.67
sI3
F7.0
sI4
F1.0
sI5
F1.0
sI6
F1.0
sI7
F1.0
sI8
F0.165
sI9
F1.0
sI13
F1.0
sI14
F160.0
sI20
F1.0
sI21
F1.0
ssbsg15
g0
(g16
g2
Ntp3962
Rp3963
(dp3964
g20
I0
sbsba(ics475_types
Instance
p3965
(dp3966
g10
(ics475_types
FeatureVector
p3967
(dp3968
g13
(dp3969
I2
F36.17
sI3
F18.125
sI4
F1.0
sI5
F1.0
sI7
F1.0
sI8
F0.085
sI9
F1.0
sI13
F1.0
sI14
F320.0
sI15
F3552.0
sI16
F1.0
sI20
F1.0
sI21
F1.0
sI31
F1.0
ssbsg15
g0
(g16
g2
Ntp3970
Rp3971
(dp3972
g20
I0
sbsba(ics475_types
Instance
p3973
(dp3974
g10
(ics475_types
FeatureVector
p3975
(dp3976
g13
(dp3977
I33
F1.0
sI2
F45.17
sI3
F1.5
sI4
F1.0
sI5
F1.0
sI6
F1.0
sI7
F1.0
sI8
F2.5
sI12
F1.0
sI13
F1.0
sI14
F140.0
sI16
F1.0
sI20
F1.0
ssbsg15
g0
(g16
g2
Ntp3978
Rp3979
(dp3980
g20
I0
sbsba(ics475_types
Instance
p3981
(dp3982
g10
(ics475_types
FeatureVector
p3983
(dp3984
g13
(dp3985
I2
F52.42
sI3
F1.5
sI4
F1.0
sI5
F1.0
sI7
F1.0
sI8
F3.75
sI9
F1.0
sI12
F1.0
sI13
F1.0
sI15
F350.0
sI16
F1.0
sI34
F1.0
sI20
F1.0
ssbsg15
g0
(g16
g2
Ntp3986
Rp3987
(dp3988
g20
I0
sbsba(ics475_types
Instance
p3989
(dp3990
g10
(ics475_types
FeatureVector
p3991
(dp3992
g13
(dp3993
I2
F29.67
sI3
F0.75
sI6
F1.0
sI7
F1.0
sI8
F0.04
sI9
F1.0
sI13
F1.0
sI14
F240.0
sI16
F1.0
sI17
F1.0
sI18
F1.0
sI20
F1.0
sI21
F1.0
ssbsg15
g0
(g16
g2
Ntp3994
Rp3995
(dp3996
g20
I0
sbsba(ics475_types
Instance
p3997
(dp3998
g10
(ics475_types
FeatureVector
p3999
(dp4000
g13
(dp4001
I33
F1.0
sI2
F56.75
sI3
F12.25
sI4
F1.0
sI5
F1.0
sI7
F1.0
sI8
F1.25
sI10
F1.0
sI11
F4.0
sI12
F1.0
sI13
F1.0
sI14
F200.0
sI16
F1.0
sI35
F1.0
ssbsg15
g0
(g16
g2
Ntp4002
Rp4003
(dp4004
g20
I1
sbsba(ics475_types
Instance
p4005
(dp4006
g10
(ics475_types
FeatureVector
p4007
(dp4008
g13
(dp4009
I33
F1.0
sI2
F26.67
sI3
F4.25
sI4
F1.0
sI5
F1.0
sI7
F1.0
sI8
F4.29
sI10
F1.0
sI11
F1.0
sI12
F1.0
sI13
F1.0
sI14
F120.0
sI16
F1.0
sI36
F1.0
ssbsg15
g0
(g16
g2
Ntp4010
Rp4011
(dp4012
g20
I1
sbsba(ics475_types
Instance
p4013
(dp4014
g10
(ics475_types
FeatureVector
p4015
(dp4016
g13
(dp4017
I1
F1.0
sI2
F35.75
sI3
F0.915
sI4
F1.0
sI5
F1.0
sI7
F1.0
sI8
F0.75
sI10
F1.0
sI11
F4.0
sI13
F1.0
sI15
F1583.0
sI21
F1.0
sI33
F1.0
sI37
F1.0
ssbsg15
g0
(g16
g2
Ntp4018
Rp4019
(dp4020
g20
I1
sbsba(ics475_types
Instance
p4021
(dp4022
g10
(ics475_types
FeatureVector
p4023
(dp4024
g13
(dp4025
I2
F41.17
sI3
F1.25
sI7
F1.0
sI8
F0.25
sI9
F1.0
sI13
F1.0
sI15
F195.0
sI16
F1.0
sI17
F1.0
sI18
F1.0
sI20
F1.0
sI21
F1.0
sI31
F1.0
ssbsg15
g0
(g16
g2
Ntp4026
Rp4027
(dp4028
g20
I0
sbsba(ics475_types
Instance
p4029
(dp4030
g10
(ics475_types
FeatureVector
p4031
(dp4032
g13
(dp4033
I1
F1.0
sI2
F23.25
sI3
F5.875
sI4
F1.0
sI5
F1.0
sI7
F1.0
sI8
F3.17
sI10
F1.0
sI11
F10.0
sI13
F1.0
sI14
F120.0
sI15
F245.0
sI21
F1.0
sI33
F1.0
sI30
F1.0
ssbsg15
g0
(g16
g2
Ntp4034
Rp4035
(dp4036
g20
I1
sbsba(ics475_types
Instance
p4037
(dp4038
g10
(ics475_types
FeatureVector
p4039
(dp4040
g13
(dp4041
I2
F28.0
sI3
F3.0
sI4
F1.0
sI5
F1.0
sI7
F1.0
sI8
F0.75
sI9
F1.0
sI12
F1.0
sI13
F1.0
sI14
F300.0
sI15
F67.0
sI16
F1.0
sI20
F1.0
sI31
F1.0
ssbsg15
g0
(g16
g2
Ntp4042
Rp4043
(dp4044
g20
I0
sbsba(ics475_types
Instance
p4045
(dp4046
g10
(ics475_types
FeatureVector
p4047
(dp4048
g13
(dp4049
I2
F16.25
sI37
F1.0
sI7
F1.0
sI8
F0.25
sI9
F1.0
sI13
F1.0
sI14
F60.0
sI16
F1.0
sI17
F1.0
sI18
F1.0
sI20
F1.0
sI21
F1.0
ssbsg15
g0
(g16
g2
Ntp4050
Rp4051
(dp4052
g20
I0
sbsba(ics475_types
Instance
p4053
(dp4054
g10
(ics475_types
FeatureVector
p4055
(dp4056
g13
(dp4057
I1
F1.0
sI2
F23.0
sI3
F1.835
sI4
F1.0
sI5
F1.0
sI9
F1.0
sI10
F1.0
sI11
F1.0
sI13
F1.0
sI14
F200.0
sI15
F53.0
sI21
F1.0
sI28
F1.0
sI29
F1.0
ssbsg15
g0
(g16
g2
Ntp4058
Rp4059
(dp4060
g20
I0
sbsba(ics475_types
Instance
p4061
(dp4062
g10
(ics475_types
FeatureVector
p4063
(dp4064
g13
(dp4065
I33
F1.0
sI2
F23.33
sI3
F1.5
sI4
F1.0
sI5
F1.0
sI6
F1.0
sI8
F1.415
sI13
F1.0
sI14
F422.0
sI15
F200.0
sI16
F1.0
sI20
F1.0
sI21
F1.0
sI27
F1.0
ssbsg15
g0
(g16
g2
Ntp4066
Rp4067
(dp4068
g20
I1
sbsba(ics475_types
Instance
p4069
(dp4070
g10
(ics475_types
FeatureVector
p4071
(dp4072
g13
(dp4073
I1
F1.0
sI2
F18.08
sI3
F0.375
sI36
F1.0
sI8
F10.0
sI9
F1.0
sI12
F1.0
sI45
F1.0
sI14
F300.0
sI44
F1.0
sI20
F1.0
sI22
F1.0
sI24
F1.0
ssbsg15
g0
(g16
g2
Ntp4074
Rp4075
(dp4076
g20
I1
sbsba(ics475_types
Instance
p4077
(dp4078
g10
(ics475_types
FeatureVector
p4079
(dp4080
g13
(dp4081
I33
F1.0
sI2
F35.25
sI3
F3.165
sI4
F1.0
sI5
F1.0
sI39
F1.0
sI8
F3.75
sI12
F1.0
sI13
F1.0
sI14
F680.0
sI16
F1.0
sI20
F1.0
sI27
F1.0
ssbsg15
g0
(g16
g2
Ntp4082
Rp4083
(dp4084
g20
I0
sbsba(ics475_types
Instance
p4085
(dp4086
g10
(ics475_types
FeatureVector
p4087
(dp4088
g13
(dp4089
I2
F34.83
sI3
F2.5
sI7
F1.0
sI8
F3.0
sI9
F1.0
sI14
F200.0
sI16
F1.0
sI17
F1.0
sI18
F1.0
sI20
F1.0
sI21
F1.0
sI22
F1.0
sI31
F1.0
ssbsg15
g0
(g16
g2
Ntp4090
Rp4091
(dp4092
g20
I0
sbsba(ics475_types
Instance
p4093
(dp4094
g10
(ics475_types
FeatureVector
p4095
(dp4096
g13
(dp4097
I33
F1.0
sI2
F73.42
sI3
F17.75
sI4
F1.0
sI5
F1.0
sI12
F1.0
sI13
F1.0
sI16
F1.0
sI20
F1.0
sI23
F1.0
sI24
F1.0
ssbsg15
g0
(g16
g2
Ntp4098
Rp4099
(dp4100
g20
I1
sbsba(ics475_types
Instance
p4101
(dp4102
g10
(ics475_types
FeatureVector
p4103
(dp4104
g13
(dp4105
I2
F23.0
sI3
F0.75
sI4
F1.0
sI5
F1.0
sI7
F1.0
sI8
F0.5
sI9
F1.0
sI12
F1.0
sI14
F320.0
sI16
F1.0
sI35
F1.0
sI20
F1.0
sI22
F1.0
ssbsg15
g0
(g16
g2
Ntp4106
Rp4107
(dp4108
g20
I0
sbsba(ics475_types
Instance
p4109
(dp4110
g10
(ics475_types
FeatureVector
p4111
(dp4112
g13
(dp4113
I1
F1.0
sI2
F28.17
sI3
F0.375
sI4
F1.0
sI5
F1.0
sI7
F1.0
sI8
F0.585
sI10
F1.0
sI11
F4.0
sI13
F1.0
sI14
F80.0
sI21
F1.0
sI33
F1.0
sI30
F1.0
ssbsg15
g0
(g16
g2
Ntp4114
Rp4115
(dp4116
g20
I1
sbsba(ics475_types
Instance
p4117
(dp4118
g10
(ics475_types
FeatureVector
p4119
(dp4120
g13
(dp4121
I2
F18.08
sI3
F6.75
sI7
F1.0
sI8
F0.04
sI9
F1.0
sI13
F1.0
sI14
F140.0
sI16
F1.0
sI17
F1.0
sI18
F1.0
sI35
F1.0
sI20
F1.0
sI21
F1.0
ssbsg15
g0
(g16
g2
Ntp4122
Rp4123
(dp4124
g20
I0
sbsba(ics475_types
Instance
p4125
(dp4126
g10
(ics475_types
FeatureVector
p4127
(dp4128
g13
(dp4129
I33
F1.0
sI2
F21.5
sI3
F9.75
sI4
F1.0
sI5
F1.0
sI6
F1.0
sI7
F1.0
sI8
F0.25
sI13
F1.0
sI14
F140.0
sI16
F1.0
sI20
F1.0
sI21
F1.0
ssbsg15
g0
(g16
g2
Ntp4130
Rp4131
(dp4132
g20
I0
sbsba(ics475_types
Instance
p4133
(dp4134
g10
(ics475_types
FeatureVector
p4135
(dp4136
g13
(dp4137
I2
F39.58
sI3
F5.0
sI4
F1.0
sI5
F1.0
sI9
F1.0
sI10
F1.0
sI11
F2.0
sI13
F1.0
sI14
F17.0
sI15
F1.0
sI16
F1.0
sI21
F1.0
sI23
F1.0
sI24
F1.0
ssbsg15
g0
(g16
g2
Ntp4138
Rp4139
(dp4140
g20
I0
sbsba(ics475_types
Instance
p4141
(dp4142
g10
(ics475_types
FeatureVector
p4143
(dp4144
g13
(dp4145
I1
F1.0
sI2
F28.75
sI3
F3.75
sI4
F1.0
sI5
F1.0
sI6
F1.0
sI7
F1.0
sI8
F1.085
sI10
F1.0
sI11
F1.0
sI12
F1.0
sI13
F1.0
sI14
F371.0
sI33
F1.0
ssbsg15
g0
(g16
g2
Ntp4146
Rp4147
(dp4148
g20
I1
sbsba(ics475_types
Instance
p4149
(dp4150
g10
(ics475_types
FeatureVector
p4151
(dp4152
g13
(dp4153
I1
F1.0
sI2
F20.08
sI3
F1.25
sI4
F1.0
sI5
F1.0
sI6
F1.0
sI7
F1.0
sI9
F1.0
sI13
F1.0
sI20
F1.0
sI21
F1.0
ssbsg15
g0
(g16
g2
Ntp4154
Rp4155
(dp4156
g20
I0
sbsba(ics475_types
Instance
p4157
(dp4158
g10
(ics475_types
FeatureVector
p4159
(dp4160
g13
(dp4161
I32
F1.0
sI2
F41.5
sI3
F1.54
sI4
F1.0
sI5
F1.0
sI8
F3.5
sI9
F1.0
sI13
F1.0
sI14
F216.0
sI16
F1.0
sI20
F1.0
sI21
F1.0
sI25
F1.0
ssbsg15
g0
(g16
g2
Ntp4162
Rp4163
(dp4164
g20
I1
sbsba(ics475_types
Instance
p4165
(dp4166
g10
(ics475_types
FeatureVector
p4167
(dp4168
g13
(dp4169
I2
F23.58
sI3
F0.835
sI4
F1.0
sI5
F1.0
sI8
F0.085
sI9
F1.0
sI12
F1.0
sI13
F1.0
sI14
F220.0
sI15
F5.0
sI16
F1.0
sI20
F1.0
sI25
F1.0
sI27
F1.0
ssbsg15
g0
(g16
g2
Ntp4170
Rp4171
(dp4172
g20
I0
sbsba(ics475_types
Instance
p4173
(dp4174
g10
(ics475_types
FeatureVector
p4175
(dp4176
g13
(dp4177
I2
F37.5
sI3
F0.835
sI4
F1.0
sI5
F1.0
sI7
F1.0
sI8
F0.04
sI9
F1.0
sI13
F1.0
sI14
F120.0
sI15
F5.0
sI16
F1.0
sI20
F1.0
sI21
F1.0
sI41
F1.0
ssbsg15
g0
(g16
g2
Ntp4178
Rp4179
(dp4180
g20
I0
sbsba(ics475_types
Instance
p4181
(dp4182
g10
(ics475_types
FeatureVector
p4183
(dp4184
g13
(dp4185
I33
F1.0
sI2
F48.33
sI3
F12.0
sI4
F1.0
sI5
F1.0
sI7
F1.0
sI8
F16.0
sI14
F110.0
sI16
F1.0
sI35
F1.0
sI20
F1.0
sI21
F1.0
sI22
F1.0
ssbsg15
g0
(g16
g2
Ntp4186
Rp4187
(dp4188
g20
I1
sbsba(ics475_types
Instance
p4189
(dp4190
g10
(ics475_types
FeatureVector
p4191
(dp4192
g13
(dp4193
I1
F1.0
sI2
F49.0
sI3
F1.5
sI4
F1.0
sI5
F1.0
sI33
F1.0
sI12
F1.0
sI13
F1.0
sI14
F100.0
sI15
F27.0
sI20
F1.0
sI28
F1.0
sI29
F1.0
ssbsg15
g0
(g16
g2
Ntp4194
Rp4195
(dp4196
g20
I0
sbsba(ics475_types
Instance
p4197
(dp4198
g10
(ics475_types
FeatureVector
p4199
(dp4200
g13
(dp4201
I1
F1.0
sI2
F28.67
sI3
F1.04
sI4
F1.0
sI5
F1.0
sI6
F1.0
sI7
F1.0
sI8
F2.5
sI10
F1.0
sI11
F5.0
sI12
F1.0
sI13
F1.0
sI14
F300.0
sI15
F1430.0
sI33
F1.0
ssbsg15
g0
(g16
g2
Ntp4202
Rp4203
(dp4204
g20
I1
sbsba(ics475_types
Instance
p4205
(dp4206
g10
(ics475_types
FeatureVector
p4207
(dp4208
g13
(dp4209
I1
F1.0
sI2
F22.75
sI3
F6.165
sI4
F1.0
sI5
F1.0
sI7
F1.0
sI8
F0.165
sI9
F1.0
sI13
F1.0
sI14
F220.0
sI15
F1000.0
sI20
F1.0
sI21
F1.0
sI37
F1.0
ssbsg15
g0
(g16
g2
Ntp4210
Rp4211
(dp4212
g20
I0
sbsba(ics475_types
Instance
p4213
(dp4214
g10
(ics475_types
FeatureVector
p4215
(dp4216
g13
(dp4217
I1
F1.0
sI2
F16.92
sI3
F0.5
sI4
F1.0
sI5
F1.0
sI7
F1.0
sI8
F0.165
sI9
F1.0
sI10
F1.0
sI11
F6.0
sI12
F1.0
sI13
F1.0
sI14
F240.0
sI15
F35.0
sI25
F1.0
ssbsg15
g0
(g16
g2
Ntp4218
Rp4219
(dp4220
g20
I0
sbsba(ics475_types
Instance
p4221
(dp4222
g10
(ics475_types
FeatureVector
p4223
(dp4224
g13
(dp4225
I1
F1.0
sI2
F20.42
sI3
F10.5
sI39
F1.0
sI9
F1.0
sI12
F1.0
sI13
F1.0
sI14
F154.0
sI15
F32.0
sI17
F1.0
sI18
F1.0
sI20
F1.0
sI27
F1.0
ssbsg15
g0
(g16
g2
Ntp4226
Rp4227
(dp4228
g20
I0
sbsba(ics475_types
Instance
p4229
(dp4230
g10
(ics475_types
FeatureVector
p4231
(dp4232
g13
(dp4233
I32
F1.0
sI2
F40.58
sI3
F1.5
sI4
F1.0
sI5
F1.0
sI9
F1.0
sI14
F300.0
sI16
F1.0
sI20
F1.0
sI21
F1.0
sI22
F1.0
sI25
F1.0
ssbsg15
g0
(g16
g2
Ntp4234
Rp4235
(dp4236
g20
I0
sbsba(ics475_types
Instance
p4237
(dp4238
g10
(ics475_types
FeatureVector
p4239
(dp4240
g13
(dp4241
I33
F1.0
sI2
F55.92
sI3
F11.5
sI4
F1.0
sI5
F1.0
sI8
F5.0
sI10
F1.0
sI11
F5.0
sI13
F1.0
sI15
F8851.0
sI16
F1.0
sI21
F1.0
sI23
F1.0
sI24
F1.0
ssbsg15
g0
(g16
g2
Ntp4242
Rp4243
(dp4244
g20
I1
sbsba(ics475_types
Instance
p4245
(dp4246
g10
(ics475_types
FeatureVector
p4247
(dp4248
g13
(dp4249
I32
F1.0
sI33
F1.0
sI2
F34.08
sI3
F0.08
sI8
F0.04
sI10
F1.0
sI11
F1.0
sI12
F1.0
sI13
F1.0
sI14
F280.0
sI15
F2000.0
sI16
F1.0
sI17
F1.0
sI18
F1.0
sI35
F1.0
ssbsg15
g0
(g16
g2
Ntp4250
Rp4251
(dp4252
g20
I1
sbsba(ics475_types
Instance
p4253
(dp4254
g10
(ics475_types
FeatureVector
p4255
(dp4256
g13
(dp4257
I32
F1.0
sI2
F43.17
sI3
F5.0
sI4
F1.0
sI5
F1.0
sI8
F2.25
sI9
F1.0
sI12
F1.0
sI13
F1.0
sI14
F141.0
sI16
F1.0
sI20
F1.0
sI25
F1.0
ssbsg15
g0
(g16
g2
Ntp4258
Rp4259
(dp4260
g20
I0
sbsba(ics475_types
Instance
p4261
(dp4262
g10
(ics475_types
FeatureVector
p4263
(dp4264
g13
(dp4265
I2
F29.58
sI3
F4.75
sI4
F1.0
sI5
F1.0
sI7
F1.0
sI8
F2.0
sI9
F1.0
sI10
F1.0
sI11
F1.0
sI12
F1.0
sI13
F1.0
sI14
F460.0
sI15
F68.0
sI16
F1.0
sI35
F1.0
ssbsg15
g0
(g16
g2
Ntp4266
Rp4267
(dp4268
g20
I0
sbsba(ics475_types
Instance
p4269
(dp4270
g10
(ics475_types
FeatureVector
p4271
(dp4272
g13
(dp4273
I1
F1.0
sI2
F41.58
sI3
F1.04
sI4
F1.0
sI5
F1.0
sI7
F1.0
sI8
F0.665
sI9
F1.0
sI13
F1.0
sI14
F240.0
sI15
F237.0
sI20
F1.0
sI21
F1.0
sI37
F1.0
ssbsg15
g0
(g16
g2
Ntp4274
Rp4275
(dp4276
g20
I0
sbsba(ics475_types
Instance
p4277
(dp4278
g10
(ics475_types
FeatureVector
p4279
(dp4280
g13
(dp4281
I2
F22.08
sI3
F2.335
sI4
F1.0
sI5
F1.0
sI7
F1.0
sI8
F0.75
sI9
F1.0
sI13
F1.0
sI14
F180.0
sI16
F1.0
sI19
F1.0
sI20
F1.0
sI21
F1.0
ssbsg15
g0
(g16
g2
Ntp4282
Rp4283
(dp4284
g20
I0
sbsba(ics475_types
Instance
p4285
(dp4286
g10
(ics475_types
FeatureVector
p4287
(dp4288
g13
(dp4289
I2
F26.33
sI3
F13.0
sI4
F1.0
sI5
F1.0
sI9
F1.0
sI43
F1.0
sI12
F1.0
sI13
F1.0
sI14
F140.0
sI15
F1110.0
sI16
F1.0
sI20
F1.0
sI41
F1.0
ssbsg15
g0
(g16
g2
Ntp4290
Rp4291
(dp4292
g20
I0
sbsba(ics475_types
Instance
p4293
(dp4294
g10
(ics475_types
FeatureVector
p4295
(dp4296
g13
(dp4297
I33
F1.0
sI2
F62.5
sI3
F12.75
sI6
F1.0
sI8
F5.0
sI13
F1.0
sI14
F112.0
sI16
F1.0
sI17
F1.0
sI18
F1.0
sI20
F1.0
sI21
F1.0
sI27
F1.0
ssbsg15
g0
(g16
g2
Ntp4298
Rp4299
(dp4300
g20
I0
sbsba(ics475_types
Instance
p4301
(dp4302
g10
(ics475_types
FeatureVector
p4303
(dp4304
g13
(dp4305
I33
F1.0
sI2
F40.25
sI3
F21.5
sI4
F1.0
sI5
F1.0
sI8
F20.0
sI41
F1.0
sI10
F1.0
sI11
F11.0
sI13
F1.0
sI15
F1200.0
sI16
F1.0
sI21
F1.0
sI42
F1.0
ssbsg15
g0
(g16
g2
Ntp4306
Rp4307
(dp4308
g20
I1
sbsba(ics475_types
Instance
p4309
(dp4310
g10
(ics475_types
FeatureVector
p4311
(dp4312
g13
(dp4313
I32
F1.0
sI1
F1.0
sI2
F47.0
sI3
F13.0
sI4
F1.0
sI5
F1.0
sI33
F1.0
sI8
F5.165
sI10
F1.0
sI11
F9.0
sI12
F1.0
sI13
F1.0
sI25
F1.0
ssbsg15
g0
(g16
g2
Ntp4314
Rp4315
(dp4316
g20
I1
sbsba(ics475_types
Instance
p4317
(dp4318
g10
(ics475_types
FeatureVector
p4319
(dp4320
g13
(dp4321
I1
F1.0
sI2
F25.75
sI3
F0.5
sI4
F1.0
sI5
F1.0
sI6
F1.0
sI33
F1.0
sI8
F0.875
sI12
F1.0
sI13
F1.0
sI14
F491.0
sI20
F1.0
sI27
F1.0
ssbsg15
g0
(g16
g2
Ntp4322
Rp4323
(dp4324
g20
I1
sbsba(ics475_types
Instance
p4325
(dp4326
g10
(ics475_types
FeatureVector
p4327
(dp4328
g13
(dp4329
I2
F16.33
sI3
F2.75
sI4
F1.0
sI5
F1.0
sI7
F1.0
sI8
F0.665
sI9
F1.0
sI10
F1.0
sI11
F1.0
sI13
F1.0
sI14
F80.0
sI15
F21.0
sI16
F1.0
sI21
F1.0
sI37
F1.0
ssbsg15
g0
(g16
g2
Ntp4330
Rp4331
(dp4332
g20
I0
sbsba(ics475_types
Instance
p4333
(dp4334
g10
(ics475_types
FeatureVector
p4335
(dp4336
g13
(dp4337
I33
F1.0
sI2
F25.75
sI3
F0.5
sI4
F1.0
sI5
F1.0
sI6
F1.0
sI7
F1.0
sI8
F1.46
sI10
F1.0
sI11
F5.0
sI12
F1.0
sI13
F1.0
sI14
F312.0
sI16
F1.0
ssbsg15
g0
(g16
g2
Ntp4338
Rp4339
(dp4340
g20
I1
sbsba(ics475_types
Instance
p4341
(dp4342
g10
(ics475_types
FeatureVector
p4343
(dp4344
g13
(dp4345
I2
F24.75
sI3
F0.54
sI4
F1.0
sI5
F1.0
sI7
F1.0
sI8
F1.0
sI9
F1.0
sI12
F1.0
sI13
F1.0
sI14
F120.0
sI15
F1.0
sI16
F1.0
sI35
F1.0
sI20
F1.0
ssbsg15
g0
(g16
g2
Ntp4346
Rp4347
(dp4348
g20
I0
sbsba(ics475_types
Instance
p4349
(dp4350
g10
(ics475_types
FeatureVector
p4351
(dp4352
g13
(dp4353
I33
F1.0
sI2
F21.0
sI3
F4.79
sI7
F1.0
sI8
F2.25
sI10
F1.0
sI11
F1.0
sI12
F1.0
sI13
F1.0
sI14
F80.0
sI15
F300.0
sI16
F1.0
sI17
F1.0
sI18
F1.0
sI31
F1.0
ssbsg15
g0
(g16
g2
Ntp4354
Rp4355
(dp4356
g20
I1
sbsba(ics475_types
Instance
p4357
(dp4358
g10
(ics475_types
FeatureVector
p4359
(dp4360
g13
(dp4361
I2
F21.08
sI3
F4.125
sI8
F0.04
sI9
F1.0
sI13
F1.0
sI14
F140.0
sI15
F100.0
sI16
F1.0
sI17
F1.0
sI18
F1.0
sI20
F1.0
sI21
F1.0
sI25
F1.0
sI27
F1.0
ssbsg15
g0
(g16
g2
Ntp4362
Rp4363
(dp4364
g20
I0
sbsba(ics475_types
Instance
p4365
(dp4366
g10
(ics475_types
FeatureVector
p4367
(dp4368
g13
(dp4369
I33
F1.0
sI2
F24.33
sI3
F6.625
sI7
F1.0
sI8
F5.5
sI12
F1.0
sI34
F1.0
sI14
F100.0
sI16
F1.0
sI17
F1.0
sI18
F1.0
sI20
F1.0
sI22
F1.0
ssbsg15
g0
(g16
g2
Ntp4370
Rp4371
(dp4372
g20
I1
sbsba(ics475_types
Instance
p4373
(dp4374
g10
(ics475_types
FeatureVector
p4375
(dp4376
g13
(dp4377
I2
F27.83
sI3
F1.5
sI4
F1.0
sI5
F1.0
sI7
F1.0
sI8
F2.25
sI9
F1.0
sI10
F1.0
sI11
F1.0
sI12
F1.0
sI13
F1.0
sI14
F100.0
sI15
F3.0
sI16
F1.0
sI31
F1.0
ssbsg15
g0
(g16
g2
Ntp4378
Rp4379
(dp4380
g20
I0
sbsba(ics475_types
Instance
p4381
(dp4382
g10
(ics475_types
FeatureVector
p4383
(dp4384
g13
(dp4385
I33
F1.0
sI2
F28.92
sI3
F15.0
sI4
F1.0
sI5
F1.0
sI6
F1.0
sI8
F5.335
sI10
F1.0
sI11
F11.0
sI13
F1.0
sI15
F2283.0
sI16
F1.0
sI21
F1.0
sI27
F1.0
ssbsg15
g0
(g16
g2
Ntp4386
Rp4387
(dp4388
g20
I1
sbsba(ics475_types
Instance
p4389
(dp4390
g10
(ics475_types
FeatureVector
p4391
(dp4392
g13
(dp4393
I1
F1.0
sI2
F33.08
sI3
F1.625
sI4
F1.0
sI5
F1.0
sI7
F1.0
sI8
F0.54
sI9
F1.0
sI12
F1.0
sI13
F1.0
sI34
F1.0
sI20
F1.0
ssbsg15
g0
(g16
g2
Ntp4394
Rp4395
(dp4396
g20
I0
sbsba(ics475_types
Instance
p4397
(dp4398
g10
(ics475_types
FeatureVector
p4399
(dp4400
g13
(dp4401
I32
F1.0
sI2
F26.75
sI3
F4.5
sI6
F1.0
sI8
F2.5
sI9
F1.0
sI13
F1.0
sI14
F200.0
sI15
F1210.0
sI16
F1.0
sI17
F1.0
sI18
F1.0
sI20
F1.0
sI21
F1.0
ssbsg15
g0
(g16
g2
Ntp4402
Rp4403
(dp4404
g20
I0
sbsba(ics475_types
Instance
p4405
(dp4406
g10
(ics475_types
FeatureVector
p4407
(dp4408
g13
(dp4409
I32
F1.0
sI33
F1.0
sI2
F56.58
sI3
F18.5
sI4
F1.0
sI5
F1.0
sI8
F15.0
sI10
F1.0
sI11
F17.0
sI12
F1.0
sI13
F1.0
sI16
F1.0
sI34
F1.0
ssbsg15
g0
(g16
g2
Ntp4410
Rp4411
(dp4412
g20
I1
sbsbasS't'
p4413
I2750
sS'high_idx'
p4414
I46
sS'weights'
p4415
cnumpy.core.multiarray
_reconstruct
p4416
(cnumpy
ndarray
p4417
(I0
tp4418
S'b'
p4419
tp4420
Rp4421
(I1
(I230
tp4422
cnumpy
dtype
p4423
(S'f8'
p4424
I0
I1
tp4425
Rp4426
(I3
S'<'
p4427
NNNI-1
I-1
I0
tp4428
bI00
S'\xbb\xe8\xa2\x8b.\xbaV\xc0\xdd\xb9\xe8\xa2\x8b\xaee\xc0n\xd1E\x17]D\x83@\xceE\x17]t\xd1U@\xceE\x17]t\xd1U@\xf8\\t\xd1E\x17M\xc0)\xba\xe8\xa2\x8b.r\xc0\x06\xd6\xbea\xed\x11\xa9@y\xd1E\x17]\x94\x97\xc0\x1f]t\xd1E\x97z@6\x17]t\xd1\xb5\xae@w\xd1E\x17]tY@\xc2E\x17]tQs\xc0\x00\x00\x00\x00\x000\xa6\xc0Ut\xd1E\x17\x17\xd5@C\xba\xe8\xa2\x8b.\\\xc0\xcdE\x17]tQs\xc0\xcdE\x17]tQs\xc0)\xba\xe8\xa2\x8b.B\xc0\xe6\xa2\x8b.\xba\xa8\x83\xc0\x17]t\xd1E\x17s\xc0Wt\xd1E\x17]Z@\xff\xff\xff\xff\xff\xffm\xc0\xa5\x8b.\xba\xe8\xa2l\xc0\xc7\xe8\xa2\x8b.\xbak\xc0 \xba\xe8\xa2\x8b.2\xc0\xc2E\x17]tQs@\x13]t\xd1E\x17=\xc0\x12]t\xd1E\x17\x1d@)\xba\xe8\xa2\x8b.b@\x13]t\xd1E\x17=@\x05]t\xd1E\x17\x1d\xc0?\x17]t\xd1e\x94@\x18]t\xd1E\x17=\xc0j\xd1E\x17]t9@\xb7\xe8\xa2\x8b.\xbaV@\xdbE\x17]t\xd1_\xc0/\xba\xe8\xa2\x8b.2@\x01\x00\x00\x00\x00\x00i@\r]t\xd1E\x17\r@\x1d]t\xd1E\x17=@M\x17]t\xd1EK@bt\xd1E\x17]@\xc01\xba\xe8\xa2\x8b.2@1\xba\xe8\xa2\x8b.2@\x00\x00\x00\x00\x00\x00\x00\x00\x00\x00\x00\x00\x00\x00\x00\x00\x00\x00\x00\x00\x00\x00\x00\x00\x00\x00\x00\x00\x00\x00\x00\x00\x00\x00\x00\x00\x00\x00\x00\x00\x00\x00\x00\x00\x00\x00\x00\x00\x00\x00\x00\x00\x00\x00\x00\x00\x00\x00\x00\x00\x00\x00\x00\x00\x00\x00\x00\x00\x00\x00\x00\x00\x00\x00\x00\x00\x00\x00\x00\x00\x00\x00\x00\x00\x00\x00\x00\x00\x00\x00\x00\x00\x00\x00\x00\x00\x00\x00\x00\x00\x00\x00\x00\x00\x00\x00\x00\x00\x00\x00\x00\x00\x00\x00\x00\x00\x00\x00\x00\x00\x00\x00\x00\x00\x00\x00\x00\x00\x00\x00\x00\x00\x00\x00\x00\x00\x00\x00\x00\x00\x00\x00\x00\x00\x00\x00\x00\x00\x00\x00\x00\x00\x00\x00\x00\x00\x00\x00\x00\x00\x00\x00\x00\x00\x00\x00\x00\x00\x00\x00\x00\x00\x00\x00\x00\x00\x00\x00\x00\x00\x00\x00\x00\x00\x00\x00\x00\x00\x00\x00\x00\x00\x00\x00\x00\x00\x00\x00\x00\x00\x00\x00\x00\x00\x00\x00\x00\x00\x00\x00\x00\x00\x00\x00\x00\x00\x00\x00\x00\x00\x00\x00\x00\x00\x00\x00\x00\x00\x00\x00\x00\x00\x00\x00\x00\x00\x00\x00\x00\x00\x00\x00\x00\x00\x00\x00\x00\x00\x00\x00\x00\x00\x00\x00\x00\x00\x00\x00\x00\x00\x00\x00\x00\x00\x00\x00\x00\x00\x00\x00\x00\x00\x00\x00\x00\x00\x00\x00\x00\x00\x00\x00\x00\x00\x00\x00\x00\x00\x00\x00\x00\x00\x00\x00\x00\x00\x00\x00\x00\x00\x00\x00\x00\x00\x00\x00\x00\x00\x00\x00\x00\x00\x00\x00\x00\x00\x00\x00\x00\x00\x00\x00\x00\x00\x00\x00\x00\x00\x00\x00\x00\x00\x00\x00\x00\x00\x00\x00\x00\x00\x00\x00\x00\x00\x00\x00\x00\x00\x00\x00\x00\x00\x00\x00\x00\x00\x00\x00\x00\x00\x00\x00\x00\x00\x00\x00\x00\x00\x00\x00\x00\x00\x00\x00\x00\x00\x00\x00\x00\x00\x00\x00\x00\x00\x00\x00\x00\x00\x00\x00\x00\x00\x00\x00\x00\x00\x00\x00\x00\x00\x00\x00\x00\x00\x00\x00\x00\x00\x00\x00\x00\x00\x00\x00\x00\x00\x00\x00\x00\x00\x00\x00\x00\x00\x00\x00\x00\x00\x00\x00\x00\x00\x00\x00\x00\x00\x00\x00\x00\x00\x00\x00\x00\x00\x00\x00\x00\x00\x00\x00\x00\x00\x00\x00\x00\x00\x00\x00\x00\x00\x00\x00\x00\x00\x00\x00\x00\x00\x00\x00\x00\x00\x00\x00\x00\x00\x00\x00\x00\x00\x00\x00\x00\x00\x00\x00\x00\x00\x00\x00\x00\x00\x00\x00\x00\x00\x00\x00\x00\x00\x00\x00\x00\x00\x00\x00\x00\x00\x00\x00\x00\x00\x00\x00\x00\x00\x00\x00\x00\x00\x00\x00\x00\x00\x00\x00\x00\x00\x00\x00\x00\x00\x00\x00\x00\x00\x00\x00\x00\x00\x00\x00\x00\x00\x00\x00\x00\x00\x00\x00\x00\x00\x00\x00\x00\x00\x00\x00\x00\x00\x00\x00\x00\x00\x00\x00\x00\x00\x00\x00\x00\x00\x00\x00\x00\x00\x00\x00\x00\x00\x00\x00\x00\x00\x00\x00\x00\x00\x00\x00\x00\x00\x00\x00\x00\x00\x00\x00\x00\x00\x00\x00\x00\x00\x00\x00\x00\x00\x00\x00\x00\x00\x00\x00\x00\x00\x00\x00\x00\x00\x00\x00\x00\x00\x00\x00\x00\x00\x00\x00\x00\x00\x00\x00\x00\x00\x00\x00\x00\x00\x00\x00\x00\x00\x00\x00\x00\x00\x00\x00\x00\x00\x00\x00\x00\x00\x00\x00\x00\x00\x00\x00\x00\x00\x00\x00\x00\x00\x00\x00\x00\x00\x00\x00\x00\x00\x00\x00\x00\x00\x00\x00\x00\x00\x00\x00\x00\x00\x00\x00\x00\x00\x00\x00\x00\x00\x00\x00\x00\x00\x00\x00\x00\x00\x00\x00\x00\x00\x00\x00\x00\x00\x00\x00\x00\x00\x00\x00\x00\x00\x00\x00\x00\x00\x00\x00\x00\x00\x00\x00\x00\x00\x00\x00\x00\x00\x00\x00\x00\x00\x00\x00\x00\x00\x00\x00\x00\x00\x00\x00\x00\x00\x00\x00\x00\x00\x00\x00\x00\x00\x00\x00\x00\x00\x00\x00\x00\x00\x00\x00\x00\x00\x00\x00\x00\x00\x00\x00\x00\x00\x00\x00\x00\x00\x00\x00\x00\x00\x00\x00\x00\x00\x00\x00\x00\x00\x00\x00\x00\x00\x00\x00\x00\x00\x00\x00\x00\x00\x00\x00\x00\x00\x00\x00\x00\x00\x00\x00\x00\x00\x00\x00\x00\x00\x00\x00\x00\x00\x00\x00\x00\x00\x00\x00\x00\x00\x00\x00\x00\x00\x00\x00\x00\x00\x00\x00\x00\x00\x00\x00\x00\x00\x00\x00\x00\x00\x00\x00\x00\x00\x00\x00\x00\x00\x00\x00\x00\x00\x00\x00\x00\x00\x00\x00\x00\x00\x00\x00\x00\x00\x00\x00\x00\x00\x00\x00\x00\x00\x00\x00\x00\x00\x00\x00\x00\x00\x00\x00\x00\x00\x00\x00\x00\x00\x00\x00\x00\x00\x00\x00\x00\x00\x00\x00\x00\x00\x00\x00\x00\x00\x00\x00\x00\x00\x00\x00\x00\x00\x00\x00\x00\x00\x00\x00\x00\x00\x00\x00\x00\x00\x00\x00\x00\x00\x00\x00\x00\x00\x00\x00\x00\x00\x00\x00\x00\x00\x00\x00\x00\x00\x00\x00\x00\x00\x00\x00\x00\x00\x00\x00\x00\x00\x00\x00\x00\x00\x00\x00\x00\x00\x00\x00\x00\x00\x00\x00\x00\x00\x00\x00\x00\x00\x00\x00\x00\x00\x00\x00\x00\x00\x00\x00\x00\x00\x00\x00\x00\x00\x00\x00\x00\x00\x00\x00\x00\x00\x00\x00\x00\x00\x00\x00\x00\x00\x00\x00\x00\x00\x00\x00\x00\x00\x00\x00\x00\x00\x00\x00\x00\x00\x00\x00\x00\x00\x00\x00\x00\x00\x00\x00\x00\x00\x00\x00\x00\x00\x00\x00\x00\x00\x00\x00\x00\x00\x00\x00\x00\x00\x00\x00\x00\x00\x00\x00\x00\x00\x00\x00\x00\x00\x00\x00\x00\x00\x00\x00\x00\x00\x00\x00\x00\x00\x00\x00\x00\x00\x00\x00\x00\x00\x00\x00\x00\x00\x00\x00\x00\x00\x00\x00\x00\x00\x00\x00\x00\x00\x00\x00\x00\x00\x00\x00\x00\x00\x00\x00\x00\x00\x00\x00\x00\x00\x00\x00\x00\x00\x00\x00\x00\x00\x00\x00\x00\x00\x00\x00\x00\x00\x00\x00\x00\x00\x00\x00\x00\x00\x00\x00\x00\x00\x00\x00\x00\x00\x00\x00\x00\x00\x00\x00\x00\x00\x00\x00\x00\x00\x00\x00\x00\x00\x00\x00\x00\x00\x00\x00\x00\x00\x00\x00\x00\x00\x00\x00\x00\x00\x00\x00\x00\x00\x00\x00\x00\x00\x00\x00\x00\x00\x00\x00\x00\x00\x00\x00\x00\x00\x00\x00\x00\x00\x00\x00\x00\x00\x00\x00\x00\x00\x00\x00\x00\x00\x00\x00\x00\x00\x00\x00\x00\x00\x00\x00\x00\x00\x00\x00\x00\x00\x00\x00\x00\x00\x00\x00\x00\x00\x00\x00\x00\x00\x00\x00\x00\x00\x00\x00\x00\x00\x00\x00\x00\x00\x00\x00\x00\x00\x00\x00\x00\x00\x00\x00\x00\x00\x00\x00\x00\x00\x00\x00\x00\x00\x00\x00\x00\x00\x00\x00\x00\x00\x00\x00\x00\x00\x00\x00\x00\x00\x00\x00\x00\x00\x00\x00\x00\x00\x00\x00\x00\x00\x00\x00\x00\x00\x00\x00\x00\x00\x00\x00\x00\x00\x00\x00\x00\x00\x00\x00\x00\x00\x00\x00\x00\x00\x00\x00\x00\x00\x00\x00\x00\x00\x00\x00\x00\x00\x00\x00\x00\x00\x00\x00\x00\x00\x00\x00\x00\x00\x00\x00\x00\x00\x00\x00\x00\x00\x00\x00\x00\x00\x00\x00\x00\x00\x00\x00\x00\x00\x00\x00\x00\x00\x00\x00\x00\x00\x00\x00\x00\x00\x00\x00\x00\x00\x00\x00\x00\x00\x00\x00\x00\x00\x00\x00\x00\x00\x00\x00\x00\x00\x00\x00\x00\x00\x00\x00\x00\x00\x00\x00\x00\x00\x00\x00\x00\x00\x00\x00\x00\x00\x00\x00\x00\x00\x00\x00\x00\x00\x00\x00\x00\x00\x00\x00\x00\x00\x00\x00\x00\x00\x00\x00\x00\x00\x00\x00\x00\x00\x00\x00\x00\x00\x00\x00\x00\x00\x00\x00\x00\x00'
p4429
tp4430
bsS'my_lambda'
p4431
F0.0001
sb.