ccopy_reg
_reconstructor
p0
(cperceptron
AveragePerceptron
p1
c__builtin__
object
p2
Ntp3
Rp4
(dp5
S'count'
p6
I2750
sS'learn_rate'
p7
F1.0
sS'sum_weights'
p8
cnumpy.core.multiarray
_reconstruct
p9
(cnumpy
ndarray
p10
(I0
tp11
S'b'
p12
tp13
Rp14
(I1
(I230
tp15
cnumpy
dtype
p16
(S'f8'
p17
I0
I1
tp18
Rp19
(I3
S'<'
p20
NNNI-1
I-1
I0
tp21
bI00
S'\x00\x00\x00\x00\xc0\xa0\xe0\xc0\xdc\xf5(\\\xda<\x13\xc1\xe0Q\xb8\x1e\xa9\xd7\x05A\x00\x00\x00\x00\xc0\xc5\xde@\x00\x00\x00\x00\xc0\xc5\xde@\x00\x00\x00\x00\x00q\xdc\xc0\x00\x00\x00\x00P9\xfc\xc0u\xe1zT\xe8\xe82A\x00\x00\x00\x00Lg!\xc1\x00\x00\x00\x00\xa0\xd9\x03A\x00\x00\x00\x00\xda\x087A\x00\x00\x00\x00@\xd7\xdd@\x00\x00\x00\x00pA\xfc\xc0\x00\x00\x00\x00\xf9\xa10\xc1\x00\x00\x00@\xd0.^A\x00\x00\x00\x00@\x9c\xe7\xc0\x00\x00\x00\x00 5\xfd\xc0\x00\x00\x00\x00 5\xfd\xc0\x00\x00\x00\x00\x80\xb4\xc5\xc0\x00\x00\x00\x00\xe0\xe8\r\xc1\x00\x00\x00\x00P\x94\xfb\xc0\x00\x00\x00\x00\xe0E\xe0@\x00\x00\x00\x00 \xb5\xf8\xc0\x00\x00\x00\x00\xf0\xd2\xf7\xc0\x00\x00\x00\x00\x80\xf4\xf3\xc0\x00\x00\x00\x00\x00\xd0\xbb\xc0\x00\x00\x00\x00 \x05\xfe@\x00\x00\x00\x00\x00\x1e\xc0\xc0\x00\x00\x00\x00\x00H\xb5@\x00\x00\x00\x00@\xa2\xe9@\x00\x00\x00\x00\xc0\xb5\xd1@\x00\x00\x00\x00\x00f\xaa\xc0\x00\x00\x00\x00\xf8\xc6\x1dA\x00\x00\x00\x00\x80m\xc6\xc0\x00\x00\x00\x00\x00\x15\xc0@\x00\x00\x00\x00\xa0]\xe0@\x00\x00\x00\x00\xc0>\xe6\xc0\x00\x00\x00\x00\x00\xb1\xb7@\x00\x00\x00\x00@\xda\xf1@\x00\x00\x00\x00\x00\xdc\x97@\x00\x00\x00\x00\x80K\xcc@\x00\x00\x00\x00\x00\xfa\xd4@\x00\x00\x00\x00\x00\xcd\xc3\xc0\x00\x00\x00\x00\x00S\xb6@\x00\x00\x00\x00\x00S\xb6@\x00\x00\x00\x00\x00\x00\x00\x00\x00\x00\x00\x00\x00\x00\x00\x00\x00\x00\x00\x00\x00\x00\x00\x00\x00\x00\x00\x00\x00\x00\x00\x00\x00\x00\x00\x00\x00\x00\x00\x00\x00\x00\x00\x00\x00\x00\x00\x00\x00\x00\x00\x00\x00\x00\x00\x00\x00\x00\x00\x00\x00\x00\x00\x00\x00\x00\x00\x00\x00\x00\x00\x00\x00\x00\x00\x00\x00\x00\x00\x00\x00\x00\x00\x00\x00\x00\x00\x00\x00\x00\x00\x00\x00\x00\x00\x00\x00\x00\x00\x00\x00\x00\x00\x00\x00\x00\x00\x00\x00\x00\x00\x00\x00\x00\x00\x00\x00\x00\x00\x00\x00\x00\x00\x00\x00\x00\x00\x00\x00\x00\x00\x00\x00\x00\x00\x00\x00\x00\x00\x00\x00\x00\x00\x00\x00\x00\x00\x00\x00\x00\x00\x00\x00\x00\x00\x00\x00\x00\x00\x00\x00\x00\x00\x00\x00\x00\x00\x00\x00\x00\x00\x00\x00\x00\x00\x00\x00\x00\x00\x00\x00\x00\x00\x00\x00\x00\x00\x00\x00\x00\x00\x00\x00\x00\x00\x00\x00\x00\x00\x00\x00\x00\x00\x00\x00\x00\x00\x00\x00\x00\x00\x00\x00\x00\x00\x00\x00\x00\x00\x00\x00\x00\x00\x00\x00\x00\x00\x00\x00\x00\x00\x00\x00\x00\x00\x00\x00\x00\x00\x00\x00\x00\x00\x00\x00\x00\x00\x00\x00\x00\x00\x00\x00\x00\x00\x00\x00\x00\x00\x00\x00\x00\x00\x00\x00\x00\x00\x00\x00\x00\x00\x00\x00\x00\x00\x00\x00\x00\x00\x00\x00\x00\x00\x00\x00\x00\x00\x00\x00\x00\x00\x00\x00\x00\x00\x00\x00\x00\x00\x00\x00\x00\x00\x00\x00\x00\x00\x00\x00\x00\x00\x00\x00\x00\x00\x00\x00\x00\x00\x00\x00\x00\x00\x00\x00\x00\x00\x00\x00\x00\x00\x00\x00\x00\x00\x00\x00\x00\x00\x00\x00\x00\x00\x00\x00\x00\x00\x00\x00\x00\x00\x00\x00\x00\x00\x00\x00\x00\x00\x00\x00\x00\x00\x00\x00\x00\x00\x00\x00\x00\x00\x00\x00\x00\x00\x00\x00\x00\x00\x00\x00\x00\x00\x00\x00\x00\x00\x00\x00\x00\x00\x00\x00\x00\x00\x00\x00\x00\x00\x00\x00\x00\x00\x00\x00\x00\x00\x00\x00\x00\x00\x00\x00\x00\x00\x00\x00\x00\x00\x00\x00\x00\x00\x00\x00\x00\x00\x00\x00\x00\x00\x00\x00\x00\x00\x00\x00\x00\x00\x00\x00\x00\x00\x00\x00\x00\x00\x00\x00\x00\x00\x00\x00\x00\x00\x00\x00\x00\x00\x00\x00\x00\x00\x00\x00\x00\x00\x00\x00\x00\x00\x00\x00\x00\x00\x00\x00\x00\x00\x00\x00\x00\x00\x00\x00\x00\x00\x00\x00\x00\x00\x00\x00\x00\x00\x00\x00\x00\x00\x00\x00\x00\x00\x00\x00\x00\x00\x00\x00\x00\x00\x00\x00\x00\x00\x00\x00\x00\x00\x00\x00\x00\x00\x00\x00\x00\x00\x00\x00\x00\x00\x00\x00\x00\x00\x00\x00\x00\x00\x00\x00\x00\x00\x00\x00\x00\x00\x00\x00\x00\x00\x00\x00\x00\x00\x00\x00\x00\x00\x00\x00\x00\x00\x00\x00\x00\x00\x00\x00\x00\x00\x00\x00\x00\x00\x00\x00\x00\x00\x00\x00\x00\x00\x00\x00\x00\x00\x00\x00\x00\x00\x00\x00\x00\x00\x00\x00\x00\x00\x00\x00\x00\x00\x00\x00\x00\x00\x00\x00\x00\x00\x00\x00\x00\x00\x00\x00\x00\x00\x00\x00\x00\x00\x00\x00\x00\x00\x00\x00\x00\x00\x00\x00\x00\x00\x00\x00\x00\x00\x00\x00\x00\x00\x00\x00\x00\x00\x00\x00\x00\x00\x00\x00\x00\x00\x00\x00\x00\x00\x00\x00\x00\x00\x00\x00\x00\x00\x00\x00\x00\x00\x00\x00\x00\x00\x00\x00\x00\x00\x00\x00\x00\x00\x00\x00\x00\x00\x00\x00\x00\x00\x00\x00\x00\x00\x00\x00\x00\x00\x00\x00\x00\x00\x00\x00\x00\x00\x00\x00\x00\x00\x00\x00\x00\x00\x00\x00\x00\x00\x00\x00\x00\x00\x00\x00\x00\x00\x00\x00\x00\x00\x00\x00\x00\x00\x00\x00\x00\x00\x00\x00\x00\x00\x00\x00\x00\x00\x00\x00\x00\x00\x00\x00\x00\x00\x00\x00\x00\x00\x00\x00\x00\x00\x00\x00\x00\x00\x00\x00\x00\x00\x00\x00\x00\x00\x00\x00\x00\x00\x00\x00\x00\x00\x00\x00\x00\x00\x00\x00\x00\x00\x00\x00\x00\x00\x00\x00\x00\x00\x00\x00\x00\x00\x00\x00\x00\x00\x00\x00\x00\x00\x00\x00\x00\x00\x00\x00\x00\x00\x00\x00\x00\x00\x00\x00\x00\x00\x00\x00\x00\x00\x00\x00\x00\x00\x00\x00\x00\x00\x00\x00\x00\x00\x00\x00\x00\x00\x00\x00\x00\x00\x00\x00\x00\x00\x00\x00\x00\x00\x00\x00\x00\x00\x00\x00\x00\x00\x00\x00\x00\x00\x00\x00\x00\x00\x00\x00\x00\x00\x00\x00\x00\x00\x00\x00\x00\x00\x00\x00\x00\x00\x00\x00\x00\x00\x00\x00\x00\x00\x00\x00\x00\x00\x00\x00\x00\x00\x00\x00\x00\x00\x00\x00\x00\x00\x00\x00\x00\x00\x00\x00\x00\x00\x00\x00\x00\x00\x00\x00\x00\x00\x00\x00\x00\x00\x00\x00\x00\x00\x00\x00\x00\x00\x00\x00\x00\x00\x00\x00\x00\x00\x00\x00\x00\x00\x00\x00\x00\x00\x00\x00\x00\x00\x00\x00\x00\x00\x00\x00\x00\x00\x00\x00\x00\x00\x00\x00\x00\x00\x00\x00\x00\x00\x00\x00\x00\x00\x00\x00\x00\x00\x00\x00\x00\x00\x00\x00\x00\x00\x00\x00\x00\x00\x00\x00\x00\x00\x00\x00\x00\x00\x00\x00\x00\x00\x00\x00\x00\x00\x00\x00\x00\x00\x00\x00\x00\x00\x00\x00\x00\x00\x00\x00\x00\x00\x00\x00\x00\x00\x00\x00\x00\x00\x00\x00\x00\x00\x00\x00\x00\x00\x00\x00\x00\x00\x00\x00\x00\x00\x00\x00\x00\x00\x00\x00\x00\x00\x00\x00\x00\x00\x00\x00\x00\x00\x00\x00\x00\x00\x00\x00\x00\x00\x00\x00\x00\x00\x00\x00\x00\x00\x00\x00\x00\x00\x00\x00\x00\x00\x00\x00\x00\x00\x00\x00\x00\x00\x00\x00\x00\x00\x00\x00\x00\x00\x00\x00\x00\x00\x00\x00\x00\x00\x00\x00\x00\x00\x00\x00\x00\x00\x00\x00\x00\x00\x00\x00\x00\x00\x00\x00\x00\x00\x00\x00\x00\x00\x00\x00\x00\x00\x00\x00\x00\x00\x00\x00\x00\x00\x00\x00\x00\x00\x00\x00\x00\x00\x00\x00\x00\x00\x00\x00\x00\x00\x00\x00\x00\x00\x00\x00\x00\x00\x00\x00\x00\x00\x00\x00\x00\x00\x00\x00\x00\x00\x00\x00\x00\x00\x00\x00\x00\x00\x00\x00\x00\x00\x00\x00\x00\x00\x00\x00\x00\x00\x00\x00\x00\x00\x00\x00\x00\x00\x00\x00\x00\x00\x00\x00\x00\x00\x00\x00\x00\x00\x00\x00\x00\x00\x00\x00\x00\x00\x00\x00\x00\x00\x00\x00\x00\x00\x00\x00\x00\x00\x00\x00\x00\x00\x00\x00\x00\x00\x00\x00\x00\x00\x00\x00\x00\x00\x00\x00\x00\x00\x00\x00\x00\x00\x00\x00\x00\x00\x00\x00\x00\x00\x00\x00\x00\x00\x00\x00\x00\x00\x00\x00\x00\x00\x00\x00\x00\x00\x00\x00\x00\x00\x00\x00\x00\x00\x00\x00\x00\x00\x00\x00\x00\x00\x00\x00\x00\x00\x00\x00\x00\x00\x00\x00\x00\x00\x00\x00\x00\x00\x00\x00\x00\x00\x00\x00\x00\x00\x00\x00\x00\x00\x00\x00\x00\x00\x00\x00\x00\x00\x00\x00\x00\x00\x00\x00\x00\x00\x00\x00\x00\x00\x00\x00\x00\x00\x00\x00\x00\x00\x00\x00\x00\x00\x00\x00\x00\x00\x00\x00\x00\x00\x00\x00\x00\x00\x00\x00\x00\x00\x00\x00\x00\x00\x00\x00\x00\x00\x00\x00\x00\x00\x00\x00\x00\x00\x00\x00\x00\x00\x00\x00\x00\x00\x00\x00\x00\x00\x00\x00\x00\x00\x00\x00\x00\x00\x00\x00\x00\x00\x00\x00\x00\x00\x00\x00\x00\x00\x00\x00\x00\x00\x00\x00\x00\x00\x00\x00\x00\x00\x00\x00\x00\x00\x00\x00\x00\x00\x00\x00\x00\x00\x00\x00\x00\x00\x00\x00\x00\x00\x00\x00\x00\x00\x00'
p22
tp23
bsS'instances'
p24
(lp25
(ics475_types
Instance
p26
(dp27
S'_feature_vector'
p28
(ics475_types
FeatureVector
p29
(dp30
S'features'
p31
(dp32
I1
F1.0
sI2
F22.25
sI3
F1.25
sI8
F3.25
sI9
F1.0
sI13
F1.0
sI14
F280.0
sI17
F1.0
sI18
F1.0
sI20
F1.0
sI21
F1.0
sI23
F1.0
sI24
F1.0
ssbsS'_label'
p33
g0
(ccs475_types
ClassificationLabel
p34
g2
Ntp35
Rp36
(dp37
S'label'
p38
I0
sbsba(ics475_types
Instance
p39
(dp40
g28
(ics475_types
FeatureVector
p41
(dp42
g31
(dp43
I33
F1.0
sI2
F16.25
sI3
F0.835
sI4
F1.0
sI5
F1.0
sI7
F1.0
sI8
F0.085
sI14
F200.0
sI16
F1.0
sI35
F1.0
sI20
F1.0
sI21
F1.0
sI22
F1.0
ssbsg33
g0
(g34
g2
Ntp44
Rp45
(dp46
g38
I0
sbsba(ics475_types
Instance
p47
(dp48
g28
(ics475_types
FeatureVector
p49
(dp50
g31
(dp51
I1
F1.0
sI2
F55.75
sI3
F7.08
sI4
F1.0
sI5
F1.0
sI33
F1.0
sI8
F6.75
sI10
F1.0
sI11
F3.0
sI12
F1.0
sI13
F1.0
sI14
F100.0
sI15
F50.0
sI19
F1.0
sI27
F1.0
ssbsg33
g0
(g34
g2
Ntp52
Rp53
(dp54
g38
I0
sbsba(ics475_types
Instance
p55
(dp56
g28
(ics475_types
FeatureVector
p57
(dp58
g31
(dp59
I2
F44.83
sI3
F7.0
sI6
F1.0
sI7
F1.0
sI8
F1.625
sI9
F1.0
sI13
F1.0
sI14
F160.0
sI15
F2.0
sI16
F1.0
sI17
F1.0
sI18
F1.0
sI20
F1.0
sI21
F1.0
ssbsg33
g0
(g34
g2
Ntp60
Rp61
(dp62
g38
I0
sbsba(ics475_types
Instance
p63
(dp64
g28
(ics475_types
FeatureVector
p65
(dp66
g31
(dp67
I1
F1.0
sI2
F24.08
sI3
F0.5
sI4
F1.0
sI5
F1.0
sI33
F1.0
sI8
F1.25
sI10
F1.0
sI11
F1.0
sI13
F1.0
sI15
F678.0
sI21
F1.0
sI27
F1.0
sI30
F1.0
ssbsg33
g0
(g34
g2
Ntp68
Rp69
(dp70
g38
I1
sbsba(ics475_types
Instance
p71
(dp72
g28
(ics475_types
FeatureVector
p73
(dp74
g31
(dp75
I33
F1.0
sI2
F40.58
sI3
F5.0
sI4
F1.0
sI5
F1.0
sI6
F1.0
sI7
F1.0
sI8
F5.0
sI10
F1.0
sI11
F7.0
sI13
F1.0
sI15
F3065.0
sI16
F1.0
sI21
F1.0
ssbsg33
g0
(g34
g2
Ntp76
Rp77
(dp78
g38
I1
sbsba(ics475_types
Instance
p79
(dp80
g28
(ics475_types
FeatureVector
p81
(dp82
g31
(dp83
I33
F1.0
sI2
F25.0
sI3
F12.5
sI4
F1.0
sI5
F1.0
sI7
F1.0
sI8
F3.0
sI12
F1.0
sI14
F20.0
sI16
F1.0
sI20
F1.0
sI22
F1.0
sI37
F1.0
ssbsg33
g0
(g34
g2
Ntp84
Rp85
(dp86
g38
I1
sbsba(ics475_types
Instance
p87
(dp88
g28
(ics475_types
FeatureVector
p89
(dp90
g31
(dp91
I2
F29.83
sI3
F1.25
sI7
F1.0
sI8
F0.25
sI9
F1.0
sI13
F1.0
sI14
F224.0
sI16
F1.0
sI17
F1.0
sI18
F1.0
sI19
F1.0
sI20
F1.0
sI21
F1.0
ssbsg33
g0
(g34
g2
Ntp92
Rp93
(dp94
g38
I0
sbsba(ics475_types
Instance
p95
(dp96
g28
(ics475_types
FeatureVector
p97
(dp98
g31
(dp99
I2
F23.58
sI3
F1.79
sI4
F1.0
sI5
F1.0
sI6
F1.0
sI7
F1.0
sI8
F0.54
sI9
F1.0
sI12
F1.0
sI13
F1.0
sI14
F136.0
sI15
F1.0
sI16
F1.0
sI20
F1.0
ssbsg33
g0
(g34
g2
Ntp100
Rp101
(dp102
g38
I0
sbsba(ics475_types
Instance
p103
(dp104
g28
(ics475_types
FeatureVector
p105
(dp106
g31
(dp107
I33
F1.0
sI2
F27.58
sI3
F2.04
sI37
F1.0
sI7
F1.0
sI8
F2.0
sI10
F1.0
sI11
F3.0
sI12
F1.0
sI13
F1.0
sI14
F370.0
sI15
F560.0
sI16
F1.0
sI17
F1.0
sI18
F1.0
ssbsg33
g0
(g34
g2
Ntp108
Rp109
(dp110
g38
I1
sbsba(ics475_types
Instance
p111
(dp112
g28
(ics475_types
FeatureVector
p113
(dp114
g31
(dp115
I33
F1.0
sI2
F18.42
sI3
F10.415
sI37
F1.0
sI7
F1.0
sI8
F0.125
sI13
F1.0
sI14
F120.0
sI15
F375.0
sI16
F1.0
sI17
F1.0
sI18
F1.0
sI20
F1.0
sI21
F1.0
ssbsg33
g0
(g34
g2
Ntp116
Rp117
(dp118
g38
I0
sbsba(ics475_types
Instance
p119
(dp120
g28
(ics475_types
FeatureVector
p121
(dp122
g31
(dp123
I33
F1.0
sI2
F32.08
sI3
F4.0
sI4
F1.0
sI5
F1.0
sI7
F1.0
sI8
F2.5
sI12
F1.0
sI13
F1.0
sI14
F360.0
sI16
F1.0
sI35
F1.0
sI20
F1.0
ssbsg33
g0
(g34
g2
Ntp124
Rp125
(dp126
g38
I1
sbsba(ics475_types
Instance
p127
(dp128
g28
(ics475_types
FeatureVector
p129
(dp130
g31
(dp131
I33
F1.0
sI2
F44.25
sI3
F11.0
sI7
F1.0
sI8
F1.5
sI34
F1.0
sI16
F1.0
sI17
F1.0
sI18
F1.0
sI20
F1.0
sI21
F1.0
sI22
F1.0
ssbsg33
g0
(g34
g2
Ntp132
Rp133
(dp134
g38
I0
sbsba(ics475_types
Instance
p135
(dp136
g28
(ics475_types
FeatureVector
p137
(dp138
g31
(dp139
I2
F24.5
sI3
F13.335
sI37
F1.0
sI7
F1.0
sI8
F0.04
sI9
F1.0
sI12
F1.0
sI13
F1.0
sI14
F120.0
sI15
F475.0
sI16
F1.0
sI17
F1.0
sI18
F1.0
sI20
F1.0
ssbsg33
g0
(g34
g2
Ntp140
Rp141
(dp142
g38
I0
sbsba(ics475_types
Instance
p143
(dp144
g28
(ics475_types
FeatureVector
p145
(dp146
g31
(dp147
I33
F1.0
sI2
F42.0
sI3
F9.79
sI4
F1.0
sI5
F1.0
sI39
F1.0
sI8
F7.96
sI10
F1.0
sI11
F8.0
sI13
F1.0
sI16
F1.0
sI21
F1.0
sI27
F1.0
ssbsg33
g0
(g34
g2
Ntp148
Rp149
(dp150
g38
I1
sbsba(ics475_types
Instance
p151
(dp152
g28
(ics475_types
FeatureVector
p153
(dp154
g31
(dp155
I32
F1.0
sI33
F1.0
sI2
F36.25
sI3
F5.0
sI4
F1.0
sI5
F1.0
sI6
F1.0
sI8
F2.5
sI10
F1.0
sI11
F6.0
sI13
F1.0
sI15
F367.0
sI16
F1.0
sI21
F1.0
ssbsg33
g0
(g34
g2
Ntp156
Rp157
(dp158
g38
I1
sbsba(ics475_types
Instance
p159
(dp160
g28
(ics475_types
FeatureVector
p161
(dp162
g31
(dp163
I33
F1.0
sI2
F23.17
sI4
F1.0
sI5
F1.0
sI7
F1.0
sI8
F0.085
sI13
F1.0
sI16
F1.0
sI20
F1.0
sI21
F1.0
sI36
F1.0
ssbsg33
g0
(g34
g2
Ntp164
Rp165
(dp166
g38
I1
sbsba(ics475_types
Instance
p167
(dp168
g28
(ics475_types
FeatureVector
p169
(dp170
g31
(dp171
I2
F34.17
sI3
F5.25
sI4
F1.0
sI5
F1.0
sI7
F1.0
sI8
F0.085
sI9
F1.0
sI12
F1.0
sI13
F1.0
sI14
F290.0
sI15
F6.0
sI16
F1.0
sI20
F1.0
sI31
F1.0
ssbsg33
g0
(g34
g2
Ntp172
Rp173
(dp174
g38
I1
sbsba(ics475_types
Instance
p175
(dp176
g28
(ics475_types
FeatureVector
p177
(dp178
g31
(dp179
I33
F1.0
sI2
F26.67
sI3
F2.71
sI36
F1.0
sI7
F1.0
sI8
F5.25
sI10
F1.0
sI11
F1.0
sI13
F1.0
sI14
F211.0
sI16
F1.0
sI17
F1.0
sI18
F1.0
sI21
F1.0
ssbsg33
g0
(g34
g2
Ntp180
Rp181
(dp182
g38
I1
sbsba(ics475_types
Instance
p183
(dp184
g28
(ics475_types
FeatureVector
p185
(dp186
g31
(dp187
I2
F25.42
sI3
F0.54
sI4
F1.0
sI5
F1.0
sI7
F1.0
sI8
F0.165
sI9
F1.0
sI10
F1.0
sI11
F1.0
sI13
F1.0
sI14
F272.0
sI15
F444.0
sI16
F1.0
sI21
F1.0
sI31
F1.0
ssbsg33
g0
(g34
g2
Ntp188
Rp189
(dp190
g38
I0
sbsba(ics475_types
Instance
p191
(dp192
g28
(ics475_types
FeatureVector
p193
(dp194
g31
(dp195
I1
F1.0
sI2
F19.58
sI3
F0.665
sI6
F1.0
sI7
F1.0
sI8
F1.0
sI9
F1.0
sI10
F1.0
sI11
F1.0
sI13
F1.0
sI14
F2000.0
sI15
F2.0
sI17
F1.0
sI18
F1.0
sI21
F1.0
ssbsg33
g0
(g34
g2
Ntp196
Rp197
(dp198
g38
I0
sbsba(ics475_types
Instance
p199
(dp200
g28
(ics475_types
FeatureVector
p201
(dp202
g31
(dp203
I33
F1.0
sI2
F39.0
sI3
F5.0
sI4
F1.0
sI5
F1.0
sI7
F1.0
sI8
F3.5
sI10
F1.0
sI11
F10.0
sI12
F1.0
sI13
F1.0
sI16
F1.0
sI36
F1.0
ssbsg33
g0
(g34
g2
Ntp204
Rp205
(dp206
g38
I1
sbsba(ics475_types
Instance
p207
(dp208
g28
(ics475_types
FeatureVector
p209
(dp210
g31
(dp211
I1
F1.0
sI2
F30.67
sI3
F12.0
sI4
F1.0
sI5
F1.0
sI6
F1.0
sI7
F1.0
sI8
F2.0
sI10
F1.0
sI11
F1.0
sI13
F1.0
sI14
F220.0
sI15
F19.0
sI21
F1.0
sI33
F1.0
ssbsg33
g0
(g34
g2
Ntp212
Rp213
(dp214
g38
I1
sbsba(ics475_types
Instance
p215
(dp216
g28
(ics475_types
FeatureVector
p217
(dp218
g31
(dp219
I1
F1.0
sI2
F19.17
sI3
F5.415
sI4
F1.0
sI5
F1.0
sI8
F0.29
sI9
F1.0
sI13
F1.0
sI14
F80.0
sI15
F484.0
sI20
F1.0
sI21
F1.0
sI25
F1.0
sI27
F1.0
ssbsg33
g0
(g34
g2
Ntp220
Rp221
(dp222
g38
I0
sbsba(ics475_types
Instance
p223
(dp224
g28
(ics475_types
FeatureVector
p225
(dp226
g31
(dp227
I1
F1.0
sI2
F49.83
sI3
F13.585
sI4
F1.0
sI5
F1.0
sI33
F1.0
sI8
F8.5
sI12
F1.0
sI13
F1.0
sI19
F1.0
sI20
F1.0
sI27
F1.0
ssbsg33
g0
(g34
g2
Ntp228
Rp229
(dp230
g38
I1
sbsba(ics475_types
Instance
p231
(dp232
g28
(ics475_types
FeatureVector
p233
(dp234
g31
(dp235
I1
F1.0
sI2
F18.83
sI3
F9.5
sI4
F1.0
sI5
F1.0
sI7
F1.0
sI8
F1.625
sI10
F1.0
sI11
F6.0
sI12
F1.0
sI13
F1.0
sI14
F40.0
sI15
F600.0
sI33
F1.0
sI31
F1.0
ssbsg33
g0
(g34
g2
Ntp236
Rp237
(dp238
g38
I1
sbsba(ics475_types
Instance
p239
(dp240
g28
(ics475_types
FeatureVector
p241
(dp242
g31
(dp243
I2
F38.42
sI3
F0.705
sI4
F1.0
sI5
F1.0
sI6
F1.0
sI7
F1.0
sI8
F0.375
sI9
F1.0
sI10
F1.0
sI11
F2.0
sI13
F1.0
sI14
F225.0
sI15
F500.0
sI16
F1.0
sI21
F1.0
ssbsg33
g0
(g34
g2
Ntp244
Rp245
(dp246
g38
I0
sbsba(ics475_types
Instance
p247
(dp248
g28
(ics475_types
FeatureVector
p249
(dp250
g31
(dp251
I33
F1.0
sI2
F31.92
sI3
F4.46
sI4
F1.0
sI5
F1.0
sI8
F6.04
sI10
F1.0
sI11
F3.0
sI13
F1.0
sI14
F311.0
sI15
F300.0
sI16
F1.0
sI21
F1.0
sI36
F1.0
sI27
F1.0
ssbsg33
g0
(g34
g2
Ntp252
Rp253
(dp254
g38
I1
sbsba(ics475_types
Instance
p255
(dp256
g28
(ics475_types
FeatureVector
p257
(dp258
g31
(dp259
I1
F1.0
sI2
F22.5
sI3
F8.46
sI7
F1.0
sI8
F2.46
sI9
F1.0
sI39
F1.0
sI13
F1.0
sI14
F164.0
sI17
F1.0
sI18
F1.0
sI20
F1.0
sI21
F1.0
ssbsg33
g0
(g34
g2
Ntp260
Rp261
(dp262
g38
I1
sbsba(ics475_types
Instance
p263
(dp264
g28
(ics475_types
FeatureVector
p265
(dp266
g31
(dp267
I1
F1.0
sI2
F17.58
sI3
F9.0
sI4
F1.0
sI5
F1.0
sI7
F1.0
sI8
F1.375
sI12
F1.0
sI13
F1.0
sI20
F1.0
sI33
F1.0
sI37
F1.0
ssbsg33
g0
(g34
g2
Ntp268
Rp269
(dp270
g38
I1
sbsba(ics475_types
Instance
p271
(dp272
g28
(ics475_types
FeatureVector
p273
(dp274
g31
(dp275
I33
F1.0
sI2
F57.83
sI3
F7.04
sI4
F1.0
sI5
F1.0
sI7
F1.0
sI8
F14.0
sI10
F1.0
sI11
F6.0
sI12
F1.0
sI13
F1.0
sI14
F360.0
sI15
F1332.0
sI16
F1.0
sI35
F1.0
ssbsg33
g0
(g34
g2
Ntp276
Rp277
(dp278
g38
I1
sbsba(ics475_types
Instance
p279
(dp280
g28
(ics475_types
FeatureVector
p281
(dp282
g31
(dp283
I1
F1.0
sI2
F25.17
sI3
F2.875
sI4
F1.0
sI5
F1.0
sI33
F1.0
sI8
F0.875
sI39
F1.0
sI13
F1.0
sI14
F360.0
sI20
F1.0
sI21
F1.0
sI27
F1.0
ssbsg33
g0
(g34
g2
Ntp284
Rp285
(dp286
g38
I1
sbsba(ics475_types
Instance
p287
(dp288
g28
(ics475_types
FeatureVector
p289
(dp290
g31
(dp291
I2
F36.08
sI3
F2.54
sI4
F1.0
sI5
F1.0
sI9
F1.0
sI13
F1.0
sI15
F1000.0
sI16
F1.0
sI20
F1.0
sI21
F1.0
sI23
F1.0
sI24
F1.0
ssbsg33
g0
(g34
g2
Ntp292
Rp293
(dp294
g38
I0
sbsba(ics475_types
Instance
p295
(dp296
g28
(ics475_types
FeatureVector
p297
(dp298
g31
(dp299
I2
F26.25
sI3
F1.54
sI4
F1.0
sI5
F1.0
sI7
F1.0
sI8
F0.125
sI9
F1.0
sI13
F1.0
sI14
F100.0
sI16
F1.0
sI20
F1.0
sI21
F1.0
sI31
F1.0
ssbsg33
g0
(g34
g2
Ntp300
Rp301
(dp302
g38
I0
sbsba(ics475_types
Instance
p303
(dp304
g28
(ics475_types
FeatureVector
p305
(dp306
g31
(dp307
I1
F1.0
sI2
F20.83
sI3
F3.0
sI4
F1.0
sI5
F1.0
sI7
F1.0
sI8
F0.04
sI13
F1.0
sI14
F100.0
sI20
F1.0
sI21
F1.0
sI33
F1.0
sI37
F1.0
ssbsg33
g0
(g34
g2
Ntp308
Rp309
(dp310
g38
I1
sbsba(ics475_types
Instance
p311
(dp312
g28
(ics475_types
FeatureVector
p313
(dp314
g31
(dp315
I33
F1.0
sI2
F48.5
sI3
F4.25
sI4
F1.0
sI5
F1.0
sI7
F1.0
sI8
F0.125
sI12
F1.0
sI13
F1.0
sI14
F225.0
sI16
F1.0
sI35
F1.0
sI20
F1.0
ssbsg33
g0
(g34
g2
Ntp316
Rp317
(dp318
g38
I1
sbsba(ics475_types
Instance
p319
(dp320
g28
(ics475_types
FeatureVector
p321
(dp322
g31
(dp323
I1
F1.0
sI2
F32.17
sI3
F1.46
sI4
F1.0
sI5
F1.0
sI7
F1.0
sI8
F1.085
sI10
F1.0
sI11
F16.0
sI13
F1.0
sI14
F120.0
sI15
F2079.0
sI21
F1.0
sI33
F1.0
sI31
F1.0
ssbsg33
g0
(g34
g2
Ntp324
Rp325
(dp326
g38
I1
sbsba(ics475_types
Instance
p327
(dp328
g28
(ics475_types
FeatureVector
p329
(dp330
g31
(dp331
I1
F1.0
sI2
F25.08
sI3
F2.54
sI33
F1.0
sI7
F1.0
sI8
F0.25
sI12
F1.0
sI13
F1.0
sI14
F370.0
sI17
F1.0
sI18
F1.0
sI20
F1.0
sI37
F1.0
ssbsg33
g0
(g34
g2
Ntp332
Rp333
(dp334
g38
I1
sbsba(ics475_types
Instance
p335
(dp336
g28
(ics475_types
FeatureVector
p337
(dp338
g31
(dp339
I33
F1.0
sI2
F33.5
sI3
F1.75
sI4
F1.0
sI5
F1.0
sI39
F1.0
sI8
F4.5
sI10
F1.0
sI11
F4.0
sI12
F1.0
sI13
F1.0
sI14
F253.0
sI15
F857.0
sI16
F1.0
sI27
F1.0
ssbsg33
g0
(g34
g2
Ntp340
Rp341
(dp342
g38
I1
sbsba(ics475_types
Instance
p343
(dp344
g28
(ics475_types
FeatureVector
p345
(dp346
g31
(dp347
I33
F1.0
sI2
F19.17
sI3
F9.5
sI4
F1.0
sI5
F1.0
sI7
F1.0
sI8
F1.5
sI13
F1.0
sI14
F120.0
sI15
F2206.0
sI16
F1.0
sI20
F1.0
sI21
F1.0
sI31
F1.0
ssbsg33
g0
(g34
g2
Ntp348
Rp349
(dp350
g38
I1
sbsba(ics475_types
Instance
p351
(dp352
g28
(ics475_types
FeatureVector
p353
(dp354
g31
(dp355
I33
F1.0
sI2
F26.67
sI3
F1.75
sI6
F1.0
sI7
F1.0
sI8
F1.0
sI10
F1.0
sI11
F5.0
sI12
F1.0
sI13
F1.0
sI14
F160.0
sI15
F5777.0
sI16
F1.0
sI17
F1.0
sI18
F1.0
ssbsg33
g0
(g34
g2
Ntp356
Rp357
(dp358
g38
I1
sbsba(ics475_types
Instance
p359
(dp360
g28
(ics475_types
FeatureVector
p361
(dp362
g31
(dp363
I33
F1.0
sI2
F23.0
sI3
F0.75
sI4
F1.0
sI5
F1.0
sI7
F1.0
sI8
F0.5
sI12
F1.0
sI14
F320.0
sI16
F1.0
sI35
F1.0
sI20
F1.0
sI22
F1.0
ssbsg33
g0
(g34
g2
Ntp364
Rp365
(dp366
g38
I0
sbsba(ics475_types
Instance
p367
(dp368
g28
(ics475_types
FeatureVector
p369
(dp370
g31
(dp371
I33
F1.0
sI2
F57.42
sI3
F8.5
sI4
F1.0
sI5
F1.0
sI8
F7.0
sI41
F1.0
sI10
F1.0
sI11
F3.0
sI13
F1.0
sI16
F1.0
sI21
F1.0
sI27
F1.0
ssbsg33
g0
(g34
g2
Ntp372
Rp373
(dp374
g38
I1
sbsba(ics475_types
Instance
p375
(dp376
g28
(ics475_types
FeatureVector
p377
(dp378
g31
(dp379
I33
F1.0
sI2
F20.67
sI3
F5.29
sI4
F1.0
sI5
F1.0
sI7
F1.0
sI8
F0.375
sI10
F1.0
sI11
F1.0
sI13
F1.0
sI14
F160.0
sI16
F1.0
sI21
F1.0
sI30
F1.0
ssbsg33
g0
(g34
g2
Ntp380
Rp381
(dp382
g38
I0
sbsba(ics475_types
Instance
p383
(dp384
g28
(ics475_types
FeatureVector
p385
(dp386
g31
(dp387
I33
F1.0
sI2
F21.83
sI3
F11.0
sI4
F1.0
sI5
F1.0
sI7
F1.0
sI8
F0.29
sI10
F1.0
sI11
F6.0
sI13
F1.0
sI14
F121.0
sI16
F1.0
sI21
F1.0
sI39
F1.0
ssbsg33
g0
(g34
g2
Ntp388
Rp389
(dp390
g38
I1
sbsba(ics475_types
Instance
p391
(dp392
g28
(ics475_types
FeatureVector
p393
(dp394
g31
(dp395
I2
F15.17
sI3
F7.0
sI4
F1.0
sI5
F1.0
sI7
F1.0
sI8
F1.0
sI9
F1.0
sI13
F1.0
sI14
F600.0
sI16
F1.0
sI20
F1.0
sI21
F1.0
sI41
F1.0
ssbsg33
g0
(g34
g2
Ntp396
Rp397
(dp398
g38
I0
sbsba(ics475_types
Instance
p399
(dp400
g28
(ics475_types
FeatureVector
p401
(dp402
g31
(dp403
I2
F22.25
sI3
F9.0
sI4
F1.0
sI5
F1.0
sI7
F1.0
sI8
F0.085
sI9
F1.0
sI13
F1.0
sI16
F1.0
sI20
F1.0
sI21
F1.0
sI37
F1.0
ssbsg33
g0
(g34
g2
Ntp404
Rp405
(dp406
g38
I0
sbsba(ics475_types
Instance
p407
(dp408
g28
(ics475_types
FeatureVector
p409
(dp410
g31
(dp411
I33
F1.0
sI2
F25.17
sI3
F6.0
sI4
F1.0
sI5
F1.0
sI6
F1.0
sI7
F1.0
sI8
F1.0
sI10
F1.0
sI11
F3.0
sI13
F1.0
sI16
F1.0
sI21
F1.0
ssbsg33
g0
(g34
g2
Ntp412
Rp413
(dp414
g38
I1
sbsba(ics475_types
Instance
p415
(dp416
g28
(ics475_types
FeatureVector
p417
(dp418
g31
(dp419
I2
F38.92
sI3
F1.75
sI4
F1.0
sI5
F1.0
sI7
F1.0
sI8
F0.5
sI9
F1.0
sI12
F1.0
sI13
F1.0
sI14
F300.0
sI15
F2.0
sI16
F1.0
sI19
F1.0
sI20
F1.0
ssbsg33
g0
(g34
g2
Ntp420
Rp421
(dp422
g38
I0
sbsba(ics475_types
Instance
p423
(dp424
g28
(ics475_types
FeatureVector
p425
(dp426
g31
(dp427
I2
F20.08
sI3
F0.25
sI4
F1.0
sI5
F1.0
sI7
F1.0
sI8
F0.125
sI9
F1.0
sI13
F1.0
sI14
F200.0
sI16
F1.0
sI20
F1.0
sI21
F1.0
sI30
F1.0
ssbsg33
g0
(g34
g2
Ntp428
Rp429
(dp430
g38
I0
sbsba(ics475_types
Instance
p431
(dp432
g28
(ics475_types
FeatureVector
p433
(dp434
g31
(dp435
I2
F22.08
sI3
F11.46
sI4
F1.0
sI5
F1.0
sI7
F1.0
sI8
F1.585
sI9
F1.0
sI12
F1.0
sI13
F1.0
sI14
F100.0
sI15
F1212.0
sI16
F1.0
sI19
F1.0
sI20
F1.0
ssbsg33
g0
(g34
g2
Ntp436
Rp437
(dp438
g38
I0
sbsba(ics475_types
Instance
p439
(dp440
g28
(ics475_types
FeatureVector
p441
(dp442
g31
(dp443
I33
F1.0
sI2
F42.0
sI3
F0.205
sI4
F1.0
sI5
F1.0
sI8
F5.125
sI13
F1.0
sI14
F400.0
sI16
F1.0
sI20
F1.0
sI21
F1.0
sI25
F1.0
sI27
F1.0
ssbsg33
g0
(g34
g2
Ntp444
Rp445
(dp446
g38
I1
sbsba(ics475_types
Instance
p447
(dp448
g28
(ics475_types
FeatureVector
p449
(dp450
g31
(dp451
I2
F26.83
sI3
F0.54
sI4
F1.0
sI5
F1.0
sI9
F1.0
sI13
F1.0
sI14
F100.0
sI16
F1.0
sI19
F1.0
sI20
F1.0
sI21
F1.0
sI24
F1.0
ssbsg33
g0
(g34
g2
Ntp452
Rp453
(dp454
g38
I0
sbsba(ics475_types
Instance
p455
(dp456
g28
(ics475_types
FeatureVector
p457
(dp458
g31
(dp459
I32
F1.0
sI2
F27.42
sI3
F12.5
sI4
F1.0
sI5
F1.0
sI8
F0.25
sI9
F1.0
sI12
F1.0
sI13
F1.0
sI14
F720.0
sI16
F1.0
sI20
F1.0
sI37
F1.0
ssbsg33
g0
(g34
g2
Ntp460
Rp461
(dp462
g38
I0
sbsba(ics475_types
Instance
p463
(dp464
g28
(ics475_types
FeatureVector
p465
(dp466
g31
(dp467
I33
F1.0
sI2
F41.58
sI3
F1.75
sI4
F1.0
sI5
F1.0
sI7
F1.0
sI8
F0.21
sI13
F1.0
sI14
F160.0
sI16
F1.0
sI19
F1.0
sI20
F1.0
sI21
F1.0
ssbsg33
g0
(g34
g2
Ntp468
Rp469
(dp470
g38
I0
sbsba(ics475_types
Instance
p471
(dp472
g28
(ics475_types
FeatureVector
p473
(dp474
g31
(dp475
I1
F1.0
sI2
F39.08
sI3
F4.0
sI4
F1.0
sI5
F1.0
sI6
F1.0
sI7
F1.0
sI8
F3.0
sI9
F1.0
sI13
F1.0
sI14
F480.0
sI20
F1.0
sI21
F1.0
ssbsg33
g0
(g34
g2
Ntp476
Rp477
(dp478
g38
I0
sbsba(ics475_types
Instance
p479
(dp480
g28
(ics475_types
FeatureVector
p481
(dp482
g31
(dp483
I1
F1.0
sI2
F33.25
sI3
F2.5
sI6
F1.0
sI7
F1.0
sI8
F2.5
sI9
F1.0
sI12
F1.0
sI13
F1.0
sI15
F2.0
sI17
F1.0
sI18
F1.0
sI20
F1.0
ssbsg33
g0
(g34
g2
Ntp484
Rp485
(dp486
g38
I0
sbsba(ics475_types
Instance
p487
(dp488
g28
(ics475_types
FeatureVector
p489
(dp490
g31
(dp491
I33
F1.0
sI2
F32.0
sI3
F1.75
sI8
F0.04
sI41
F1.0
sI12
F1.0
sI13
F1.0
sI14
F393.0
sI16
F1.0
sI17
F1.0
sI18
F1.0
sI20
F1.0
sI27
F1.0
ssbsg33
g0
(g34
g2
Ntp492
Rp493
(dp494
g38
I1
sbsba(ics475_types
Instance
p495
(dp496
g28
(ics475_types
FeatureVector
p497
(dp498
g31
(dp499
I1
F1.0
sI2
F36.75
sI3
F4.71
sI4
F1.0
sI5
F1.0
sI9
F1.0
sI13
F1.0
sI14
F160.0
sI20
F1.0
sI21
F1.0
sI23
F1.0
sI24
F1.0
ssbsg33
g0
(g34
g2
Ntp500
Rp501
(dp502
g38
I0
sbsba(ics475_types
Instance
p503
(dp504
g28
(ics475_types
FeatureVector
p505
(dp506
g31
(dp507
I1
F1.0
sI2
F35.42
sI3
F12.0
sI4
F1.0
sI5
F1.0
sI33
F1.0
sI8
F14.0
sI10
F1.0
sI11
F8.0
sI13
F1.0
sI15
F6590.0
sI21
F1.0
sI27
F1.0
sI30
F1.0
ssbsg33
g0
(g34
g2
Ntp508
Rp509
(dp510
g38
I1
sbsba(ics475_types
Instance
p511
(dp512
g28
(ics475_types
FeatureVector
p513
(dp514
g31
(dp515
I1
F1.0
sI2
F26.17
sI3
F2.0
sI4
F1.0
sI5
F1.0
sI9
F1.0
sI12
F1.0
sI13
F1.0
sI14
F276.0
sI15
F1.0
sI20
F1.0
sI28
F1.0
sI29
F1.0
ssbsg33
g0
(g34
g2
Ntp516
Rp517
(dp518
g38
I0
sbsba(ics475_types
Instance
p519
(dp520
g28
(ics475_types
FeatureVector
p521
(dp522
g31
(dp523
I2
F25.83
sI3
F12.835
sI4
F1.0
sI5
F1.0
sI7
F1.0
sI8
F0.5
sI9
F1.0
sI13
F1.0
sI15
F2.0
sI16
F1.0
sI20
F1.0
sI21
F1.0
sI36
F1.0
ssbsg33
g0
(g34
g2
Ntp524
Rp525
(dp526
g38
I0
sbsba(ics475_types
Instance
p527
(dp528
g28
(ics475_types
FeatureVector
p529
(dp530
g31
(dp531
I2
F22.58
sI3
F1.5
sI37
F1.0
sI7
F1.0
sI8
F0.54
sI9
F1.0
sI12
F1.0
sI13
F1.0
sI14
F120.0
sI15
F67.0
sI16
F1.0
sI17
F1.0
sI18
F1.0
sI20
F1.0
ssbsg33
g0
(g34
g2
Ntp532
Rp533
(dp534
g38
I0
sbsba(ics475_types
Instance
p535
(dp536
g28
(ics475_types
FeatureVector
p537
(dp538
g31
(dp539
I33
F1.0
sI2
F22.67
sI3
F10.5
sI4
F1.0
sI5
F1.0
sI8
F1.335
sI13
F1.0
sI14
F100.0
sI16
F1.0
sI20
F1.0
sI21
F1.0
sI27
F1.0
sI30
F1.0
ssbsg33
g0
(g34
g2
Ntp540
Rp541
(dp542
g38
I1
sbsba(ics475_types
Instance
p543
(dp544
g28
(ics475_types
FeatureVector
p545
(dp546
g31
(dp547
I32
F1.0
sI2
F34.17
sI3
F2.75
sI4
F1.0
sI5
F1.0
sI8
F2.5
sI9
F1.0
sI12
F1.0
sI13
F1.0
sI14
F232.0
sI15
F200.0
sI16
F1.0
sI20
F1.0
sI25
F1.0
ssbsg33
g0
(g34
g2
Ntp548
Rp549
(dp550
g38
I0
sbsba(ics475_types
Instance
p551
(dp552
g28
(ics475_types
FeatureVector
p553
(dp554
g31
(dp555
I1
F1.0
sI2
F28.08
sI3
F15.0
sI33
F1.0
sI41
F1.0
sI42
F1.0
sI13
F1.0
sI15
F13212.0
sI17
F1.0
sI18
F1.0
sI20
F1.0
sI21
F1.0
ssbsg33
g0
(g34
g2
Ntp556
Rp557
(dp558
g38
I1
sbsba(ics475_types
Instance
p559
(dp560
g28
(ics475_types
FeatureVector
p561
(dp562
g31
(dp563
I33
F1.0
sI2
F25.5
sI3
F0.375
sI4
F1.0
sI5
F1.0
sI7
F1.0
sI8
F0.25
sI10
F1.0
sI11
F3.0
sI13
F1.0
sI14
F260.0
sI15
F15108.0
sI16
F1.0
sI35
F1.0
sI21
F1.0
ssbsg33
g0
(g34
g2
Ntp564
Rp565
(dp566
g38
I1
sbsba(ics475_types
Instance
p567
(dp568
g28
(ics475_types
FeatureVector
p569
(dp570
g31
(dp571
I2
F17.08
sI3
F0.085
sI6
F1.0
sI7
F1.0
sI8
F0.04
sI9
F1.0
sI13
F1.0
sI14
F140.0
sI15
F722.0
sI16
F1.0
sI17
F1.0
sI18
F1.0
sI20
F1.0
sI21
F1.0
ssbsg33
g0
(g34
g2
Ntp572
Rp573
(dp574
g38
I0
sbsba(ics475_types
Instance
p575
(dp576
g28
(ics475_types
FeatureVector
p577
(dp578
g31
(dp579
I32
F1.0
sI33
F1.0
sI2
F41.33
sI4
F1.0
sI5
F1.0
sI6
F1.0
sI8
F15.0
sI13
F1.0
sI16
F1.0
sI20
F1.0
sI21
F1.0
ssbsg33
g0
(g34
g2
Ntp580
Rp581
(dp582
g38
I1
sbsba(ics475_types
Instance
p583
(dp584
g28
(ics475_types
FeatureVector
p585
(dp586
g31
(dp587
I2
F31.25
sI3
F2.835
sI4
F1.0
sI5
F1.0
sI9
F1.0
sI10
F1.0
sI11
F5.0
sI13
F1.0
sI14
F176.0
sI15
F146.0
sI16
F1.0
sI21
F1.0
sI23
F1.0
sI24
F1.0
ssbsg33
g0
(g34
g2
Ntp588
Rp589
(dp590
g38
I0
sbsba(ics475_types
Instance
p591
(dp592
g28
(ics475_types
FeatureVector
p593
(dp594
g31
(dp595
I33
F1.0
sI2
F31.42
sI3
F15.5
sI4
F1.0
sI5
F1.0
sI6
F1.0
sI7
F1.0
sI8
F0.5
sI13
F1.0
sI14
F120.0
sI16
F1.0
sI20
F1.0
sI21
F1.0
ssbsg33
g0
(g34
g2
Ntp596
Rp597
(dp598
g38
I0
sbsba(ics475_types
Instance
p599
(dp600
g28
(ics475_types
FeatureVector
p601
(dp602
g31
(dp603
I1
F1.0
sI2
F32.0
sI3
F6.0
sI4
F1.0
sI5
F1.0
sI7
F1.0
sI8
F1.25
sI9
F1.0
sI13
F1.0
sI14
F272.0
sI34
F1.0
sI20
F1.0
sI21
F1.0
ssbsg33
g0
(g34
g2
Ntp604
Rp605
(dp606
g38
I0
sbsba(ics475_types
Instance
p607
(dp608
g28
(ics475_types
FeatureVector
p609
(dp610
g31
(dp611
I33
F1.0
sI2
F22.83
sI3
F3.0
sI4
F1.0
sI5
F1.0
sI7
F1.0
sI8
F1.29
sI10
F1.0
sI11
F1.0
sI13
F1.0
sI14
F260.0
sI15
F800.0
sI16
F1.0
sI35
F1.0
sI21
F1.0
ssbsg33
g0
(g34
g2
Ntp612
Rp613
(dp614
g38
I1
sbsba(ics475_types
Instance
p615
(dp616
g28
(ics475_types
FeatureVector
p617
(dp618
g31
(dp619
I33
F1.0
sI2
F23.25
sI3
F1.0
sI4
F1.0
sI5
F1.0
sI6
F1.0
sI7
F1.0
sI8
F0.835
sI14
F300.0
sI16
F1.0
sI20
F1.0
sI21
F1.0
sI22
F1.0
ssbsg33
g0
(g34
g2
Ntp620
Rp621
(dp622
g38
I1
sbsba(ics475_types
Instance
p623
(dp624
g28
(ics475_types
FeatureVector
p625
(dp626
g31
(dp627
I1
F1.0
sI2
F31.25
sI3
F3.75
sI4
F1.0
sI5
F1.0
sI33
F1.0
sI8
F0.625
sI10
F1.0
sI11
F9.0
sI12
F1.0
sI13
F1.0
sI14
F181.0
sI36
F1.0
sI27
F1.0
ssbsg33
g0
(g34
g2
Ntp628
Rp629
(dp630
g38
I1
sbsba(ics475_types
Instance
p631
(dp632
g28
(ics475_types
FeatureVector
p633
(dp634
g31
(dp635
I33
F1.0
sI2
F37.42
sI3
F2.04
sI4
F1.0
sI5
F1.0
sI7
F1.0
sI8
F0.04
sI12
F1.0
sI13
F1.0
sI14
F400.0
sI15
F5800.0
sI16
F1.0
sI20
F1.0
sI31
F1.0
ssbsg33
g0
(g34
g2
Ntp636
Rp637
(dp638
g38
I1
sbsba(ics475_types
Instance
p639
(dp640
g28
(ics475_types
FeatureVector
p641
(dp642
g31
(dp643
I33
F1.0
sI2
F36.67
sI3
F3.25
sI4
F1.0
sI5
F1.0
sI8
F9.0
sI12
F1.0
sI13
F1.0
sI14
F102.0
sI15
F639.0
sI16
F1.0
sI20
F1.0
sI27
F1.0
sI30
F1.0
ssbsg33
g0
(g34
g2
Ntp644
Rp645
(dp646
g38
I1
sbsba(ics475_types
Instance
p647
(dp648
g28
(ics475_types
FeatureVector
p649
(dp650
g31
(dp651
I2
F34.67
sI3
F1.08
sI4
F1.0
sI5
F1.0
sI7
F1.0
sI8
F1.165
sI9
F1.0
sI14
F28.0
sI16
F1.0
sI35
F1.0
sI20
F1.0
sI21
F1.0
sI22
F1.0
ssbsg33
g0
(g34
g2
Ntp652
Rp653
(dp654
g38
I0
sbsba(ics475_types
Instance
p655
(dp656
g28
(ics475_types
FeatureVector
p657
(dp658
g31
(dp659
I1
F1.0
sI2
F33.08
sI3
F4.625
sI4
F1.0
sI5
F1.0
sI33
F1.0
sI8
F1.625
sI10
F1.0
sI11
F2.0
sI13
F1.0
sI21
F1.0
sI27
F1.0
sI30
F1.0
ssbsg33
g0
(g34
g2
Ntp660
Rp661
(dp662
g38
I1
sbsba(ics475_types
Instance
p663
(dp664
g28
(ics475_types
FeatureVector
p665
(dp666
g31
(dp667
I1
F1.0
sI2
F53.33
sI3
F0.165
sI4
F1.0
sI5
F1.0
sI9
F1.0
sI12
F1.0
sI14
F62.0
sI15
F27.0
sI20
F1.0
sI22
F1.0
sI23
F1.0
sI24
F1.0
ssbsg33
g0
(g34
g2
Ntp668
Rp669
(dp670
g38
I0
sbsba(ics475_types
Instance
p671
(dp672
g28
(ics475_types
FeatureVector
p673
(dp674
g31
(dp675
I2
F25.67
sI3
F0.29
sI6
F1.0
sI7
F1.0
sI8
F1.5
sI9
F1.0
sI12
F1.0
sI13
F1.0
sI14
F160.0
sI16
F1.0
sI17
F1.0
sI18
F1.0
sI20
F1.0
ssbsg33
g0
(g34
g2
Ntp676
Rp677
(dp678
g38
I0
sbsba(ics475_types
Instance
p679
(dp680
g28
(ics475_types
FeatureVector
p681
(dp682
g31
(dp683
I33
F1.0
sI2
F22.67
sI3
F1.585
sI7
F1.0
sI8
F3.085
sI10
F1.0
sI11
F6.0
sI13
F1.0
sI14
F80.0
sI16
F1.0
sI17
F1.0
sI18
F1.0
sI21
F1.0
sI31
F1.0
ssbsg33
g0
(g34
g2
Ntp684
Rp685
(dp686
g38
I1
sbsba(ics475_types
Instance
p687
(dp688
g28
(ics475_types
FeatureVector
p689
(dp690
g31
(dp691
I33
F1.0
sI2
F28.25
sI3
F0.875
sI4
F1.0
sI5
F1.0
sI7
F1.0
sI8
F0.96
sI10
F1.0
sI11
F3.0
sI12
F1.0
sI13
F1.0
sI14
F396.0
sI16
F1.0
sI35
F1.0
ssbsg33
g0
(g34
g2
Ntp692
Rp693
(dp694
g38
I1
sbsba(ics475_types
Instance
p695
(dp696
g28
(ics475_types
FeatureVector
p697
(dp698
g31
(dp699
I33
F1.0
sI2
F35.25
sI3
F16.5
sI6
F1.0
sI7
F1.0
sI8
F4.0
sI13
F1.0
sI14
F80.0
sI16
F1.0
sI17
F1.0
sI18
F1.0
sI20
F1.0
sI21
F1.0
ssbsg33
g0
(g34
g2
Ntp700
Rp701
(dp702
g38
I0
sbsba(ics475_types
Instance
p703
(dp704
g28
(ics475_types
FeatureVector
p705
(dp706
g31
(dp707
I2
F51.83
sI3
F2.04
sI8
F1.5
sI9
F1.0
sI13
F1.0
sI14
F120.0
sI15
F1.0
sI16
F1.0
sI17
F1.0
sI18
F1.0
sI20
F1.0
sI21
F1.0
sI23
F1.0
sI24
F1.0
ssbsg33
g0
(g34
g2
Ntp708
Rp709
(dp710
g38
I0
sbsba(ics475_types
Instance
p711
(dp712
g28
(ics475_types
FeatureVector
p713
(dp714
g31
(dp715
I1
F1.0
sI2
F22.83
sI3
F2.29
sI4
F1.0
sI5
F1.0
sI33
F1.0
sI8
F2.29
sI10
F1.0
sI11
F7.0
sI12
F1.0
sI13
F1.0
sI14
F140.0
sI15
F2384.0
sI27
F1.0
sI30
F1.0
ssbsg33
g0
(g34
g2
Ntp716
Rp717
(dp718
g38
I1
sbsba(ics475_types
Instance
p719
(dp720
g28
(ics475_types
FeatureVector
p721
(dp722
g31
(dp723
I2
F36.67
sI3
F2.0
sI4
F1.0
sI5
F1.0
sI7
F1.0
sI8
F0.25
sI9
F1.0
sI12
F1.0
sI13
F1.0
sI14
F221.0
sI16
F1.0
sI20
F1.0
sI25
F1.0
ssbsg33
g0
(g34
g2
Ntp724
Rp725
(dp726
g38
I0
sbsba(ics475_types
Instance
p727
(dp728
g28
(ics475_types
FeatureVector
p729
(dp730
g31
(dp731
I33
F1.0
sI2
F18.08
sI3
F5.5
sI4
F1.0
sI5
F1.0
sI7
F1.0
sI8
F0.5
sI13
F1.0
sI14
F80.0
sI16
F1.0
sI19
F1.0
sI20
F1.0
sI21
F1.0
ssbsg33
g0
(g34
g2
Ntp732
Rp733
(dp734
g38
I1
sbsba(ics475_types
Instance
p735
(dp736
g28
(ics475_types
FeatureVector
p737
(dp738
g31
(dp739
I33
F1.0
sI2
F54.42
sI3
F0.5
sI8
F3.96
sI13
F1.0
sI14
F180.0
sI15
F314.0
sI16
F1.0
sI17
F1.0
sI18
F1.0
sI19
F1.0
sI20
F1.0
sI21
F1.0
sI27
F1.0
ssbsg33
g0
(g34
g2
Ntp740
Rp741
(dp742
g38
I1
sbsba(ics475_types
Instance
p743
(dp744
g28
(ics475_types
FeatureVector
p745
(dp746
g31
(dp747
I2
F35.58
sI3
F0.75
sI4
F1.0
sI5
F1.0
sI7
F1.0
sI8
F1.5
sI9
F1.0
sI12
F1.0
sI13
F1.0
sI14
F231.0
sI16
F1.0
sI19
F1.0
sI20
F1.0
ssbsg33
g0
(g34
g2
Ntp748
Rp749
(dp750
g38
I0
sbsba(ics475_types
Instance
p751
(dp752
g28
(ics475_types
FeatureVector
p753
(dp754
g31
(dp755
I1
F1.0
sI2
F20.42
sI3
F0.835
sI4
F1.0
sI5
F1.0
sI7
F1.0
sI8
F1.585
sI10
F1.0
sI11
F1.0
sI13
F1.0
sI21
F1.0
sI33
F1.0
sI30
F1.0
ssbsg33
g0
(g34
g2
Ntp756
Rp757
(dp758
g38
I1
sbsba(ics475_types
Instance
p759
(dp760
g28
(ics475_types
FeatureVector
p761
(dp762
g31
(dp763
I1
F1.0
sI2
F38.75
sI3
F1.5
sI4
F1.0
sI5
F1.0
sI9
F1.0
sI13
F1.0
sI14
F76.0
sI20
F1.0
sI21
F1.0
sI23
F1.0
sI24
F1.0
ssbsg33
g0
(g34
g2
Ntp764
Rp765
(dp766
g38
I0
sbsba(ics475_types
Instance
p767
(dp768
g28
(ics475_types
FeatureVector
p769
(dp770
g31
(dp771
I1
F1.0
sI2
F25.42
sI3
F1.125
sI4
F1.0
sI5
F1.0
sI7
F1.0
sI8
F1.29
sI10
F1.0
sI11
F2.0
sI13
F1.0
sI14
F200.0
sI21
F1.0
sI33
F1.0
sI30
F1.0
ssbsg33
g0
(g34
g2
Ntp772
Rp773
(dp774
g38
I0
sbsba(ics475_types
Instance
p775
(dp776
g28
(ics475_types
FeatureVector
p777
(dp778
g31
(dp779
I32
F1.0
sI1
F1.0
sI2
F47.42
sI3
F8.0
sI4
F1.0
sI5
F1.0
sI33
F1.0
sI8
F6.5
sI41
F1.0
sI10
F1.0
sI11
F6.0
sI13
F1.0
sI14
F375.0
sI15
F51100.0
sI21
F1.0
ssbsg33
g0
(g34
g2
Ntp780
Rp781
(dp782
g38
I1
sbsba(ics475_types
Instance
p783
(dp784
g28
(ics475_types
FeatureVector
p785
(dp786
g31
(dp787
I33
F1.0
sI2
F36.33
sI3
F3.79
sI4
F1.0
sI5
F1.0
sI7
F1.0
sI8
F1.165
sI12
F1.0
sI13
F1.0
sI14
F200.0
sI16
F1.0
sI20
F1.0
sI31
F1.0
ssbsg33
g0
(g34
g2
Ntp788
Rp789
(dp790
g38
I0
sbsba(ics475_types
Instance
p791
(dp792
g28
(ics475_types
FeatureVector
p793
(dp794
g31
(dp795
I2
F20.42
sI3
F1.085
sI4
F1.0
sI5
F1.0
sI7
F1.0
sI8
F1.5
sI9
F1.0
sI13
F1.0
sI14
F108.0
sI15
F7.0
sI16
F1.0
sI20
F1.0
sI21
F1.0
sI30
F1.0
ssbsg33
g0
(g34
g2
Ntp796
Rp797
(dp798
g38
I0
sbsba(ics475_types
Instance
p799
(dp800
g28
(ics475_types
FeatureVector
p801
(dp802
g31
(dp803
I2
F17.92
sI3
F0.205
sI4
F1.0
sI5
F1.0
sI7
F1.0
sI8
F0.04
sI9
F1.0
sI13
F1.0
sI14
F280.0
sI15
F750.0
sI16
F1.0
sI20
F1.0
sI21
F1.0
sI37
F1.0
ssbsg33
g0
(g34
g2
Ntp804
Rp805
(dp806
g38
I0
sbsba(ics475_types
Instance
p807
(dp808
g28
(ics475_types
FeatureVector
p809
(dp810
g31
(dp811
I2
F35.0
sI3
F2.5
sI4
F1.0
sI5
F1.0
sI7
F1.0
sI8
F1.0
sI9
F1.0
sI12
F1.0
sI13
F1.0
sI14
F210.0
sI16
F1.0
sI20
F1.0
sI25
F1.0
ssbsg33
g0
(g34
g2
Ntp812
Rp813
(dp814
g38
I0
sbsba(ics475_types
Instance
p815
(dp816
g28
(ics475_types
FeatureVector
p817
(dp818
g31
(dp819
I33
F1.0
sI2
F34.92
sI3
F5.0
sI4
F1.0
sI5
F1.0
sI39
F1.0
sI8
F7.5
sI10
F1.0
sI11
F6.0
sI12
F1.0
sI13
F1.0
sI15
F1000.0
sI16
F1.0
sI27
F1.0
ssbsg33
g0
(g34
g2
Ntp820
Rp821
(dp822
g38
I1
sbsba(ics475_types
Instance
p823
(dp824
g28
(ics475_types
FeatureVector
p825
(dp826
g31
(dp827
I1
F1.0
sI2
F18.83
sI3
F9.54
sI4
F1.0
sI5
F1.0
sI7
F1.0
sI8
F0.085
sI13
F1.0
sI14
F100.0
sI20
F1.0
sI21
F1.0
sI33
F1.0
sI37
F1.0
ssbsg33
g0
(g34
g2
Ntp828
Rp829
(dp830
g38
I1
sbsba(ics475_types
Instance
p831
(dp832
g28
(ics475_types
FeatureVector
p833
(dp834
g31
(dp835
I2
F22.67
sI3
F0.75
sI4
F1.0
sI5
F1.0
sI7
F1.0
sI8
F1.585
sI9
F1.0
sI10
F1.0
sI11
F1.0
sI12
F1.0
sI13
F1.0
sI14
F400.0
sI15
F9.0
sI16
F1.0
sI25
F1.0
ssbsg33
g0
(g34
g2
Ntp836
Rp837
(dp838
g38
I0
sbsba(ics475_types
Instance
p839
(dp840
g28
(ics475_types
FeatureVector
p841
(dp842
g31
(dp843
I33
F1.0
sI2
F31.83
sI3
F2.5
sI4
F1.0
sI5
F1.0
sI7
F1.0
sI8
F7.5
sI12
F1.0
sI13
F1.0
sI14
F523.0
sI16
F1.0
sI20
F1.0
sI37
F1.0
ssbsg33
g0
(g34
g2
Ntp844
Rp845
(dp846
g38
I0
sbsba(ics475_types
Instance
p847
(dp848
g28
(ics475_types
FeatureVector
p849
(dp850
g31
(dp851
I33
F1.0
sI2
F23.17
sI3
F11.125
sI4
F1.0
sI5
F1.0
sI39
F1.0
sI8
F0.46
sI10
F1.0
sI11
F1.0
sI13
F1.0
sI14
F100.0
sI16
F1.0
sI21
F1.0
sI27
F1.0
ssbsg33
g0
(g34
g2
Ntp852
Rp853
(dp854
g38
I1
sbsba(ics475_types
Instance
p855
(dp856
g28
(ics475_types
FeatureVector
p857
(dp858
g31
(dp859
I33
F1.0
sI2
F41.92
sI3
F0.42
sI4
F1.0
sI5
F1.0
sI6
F1.0
sI8
F0.21
sI10
F1.0
sI11
F6.0
sI13
F1.0
sI14
F220.0
sI15
F948.0
sI16
F1.0
sI21
F1.0
sI27
F1.0
ssbsg33
g0
(g34
g2
Ntp860
Rp861
(dp862
g38
I1
sbsba(ics475_types
Instance
p863
(dp864
g28
(ics475_types
FeatureVector
p865
(dp866
g31
(dp867
I33
F1.0
sI2
F48.75
sI3
F8.5
sI4
F1.0
sI5
F1.0
sI6
F1.0
sI8
F12.5
sI10
F1.0
sI11
F9.0
sI13
F1.0
sI14
F181.0
sI15
F1655.0
sI16
F1.0
sI21
F1.0
sI27
F1.0
ssbsg33
g0
(g34
g2
Ntp868
Rp869
(dp870
g38
I1
sbsba(ics475_types
Instance
p871
(dp872
g28
(ics475_types
FeatureVector
p873
(dp874
g31
(dp875
I1
F1.0
sI2
F47.25
sI3
F0.75
sI4
F1.0
sI5
F1.0
sI33
F1.0
sI8
F2.75
sI10
F1.0
sI11
F1.0
sI13
F1.0
sI14
F333.0
sI15
F892.0
sI21
F1.0
sI27
F1.0
sI30
F1.0
ssbsg33
g0
(g34
g2
Ntp876
Rp877
(dp878
g38
I1
sbsba(ics475_types
Instance
p879
(dp880
g28
(ics475_types
FeatureVector
p881
(dp882
g31
(dp883
I33
F1.0
sI2
F18.67
sI3
F5.0
sI4
F1.0
sI5
F1.0
sI7
F1.0
sI8
F0.375
sI10
F1.0
sI11
F2.0
sI13
F1.0
sI15
F38.0
sI16
F1.0
sI21
F1.0
sI30
F1.0
ssbsg33
g0
(g34
g2
Ntp884
Rp885
(dp886
g38
I0
sbsba(ics475_types
Instance
p887
(dp888
g28
(ics475_types
FeatureVector
p889
(dp890
g31
(dp891
I1
F1.0
sI2
F29.58
sI3
F1.75
sI7
F1.0
sI8
F1.25
sI9
F1.0
sI12
F1.0
sI13
F1.0
sI14
F280.0
sI17
F1.0
sI18
F1.0
sI19
F1.0
sI20
F1.0
ssbsg33
g0
(g34
g2
Ntp892
Rp893
(dp894
g38
I0
sbsba(ics475_types
Instance
p895
(dp896
g28
(ics475_types
FeatureVector
p897
(dp898
g31
(dp899
I33
F1.0
sI2
F35.17
sI3
F25.125
sI4
F1.0
sI5
F1.0
sI39
F1.0
sI8
F1.625
sI10
F1.0
sI11
F1.0
sI12
F1.0
sI13
F1.0
sI14
F515.0
sI15
F500.0
sI16
F1.0
sI27
F1.0
ssbsg33
g0
(g34
g2
Ntp900
Rp901
(dp902
g38
I1
sbsba(ics475_types
Instance
p903
(dp904
g28
(ics475_types
FeatureVector
p905
(dp906
g31
(dp907
I2
F26.17
sI3
F12.5
sI8
F1.25
sI9
F1.0
sI12
F1.0
sI13
F1.0
sI15
F17.0
sI16
F1.0
sI17
F1.0
sI18
F1.0
sI19
F1.0
sI20
F1.0
sI27
F1.0
ssbsg33
g0
(g34
g2
Ntp908
Rp909
(dp910
g38
I0
sbsba(ics475_types
Instance
p911
(dp912
g28
(ics475_types
FeatureVector
p913
(dp914
g31
(dp915
I1
F1.0
sI2
F32.33
sI3
F0.54
sI4
F1.0
sI5
F1.0
sI7
F1.0
sI8
F0.04
sI13
F1.0
sI14
F440.0
sI15
F11177.0
sI20
F1.0
sI21
F1.0
sI36
F1.0
sI33
F1.0
ssbsg33
g0
(g34
g2
Ntp916
Rp917
(dp918
g38
I1
sbsba(ics475_types
Instance
p919
(dp920
g28
(ics475_types
FeatureVector
p921
(dp922
g31
(dp923
I33
F1.0
sI2
F40.92
sI3
F0.835
sI4
F1.0
sI5
F1.0
sI13
F1.0
sI14
F130.0
sI15
F1.0
sI16
F1.0
sI20
F1.0
sI21
F1.0
sI23
F1.0
sI24
F1.0
ssbsg33
g0
(g34
g2
Ntp924
Rp925
(dp926
g38
I0
sbsba(ics475_types
Instance
p927
(dp928
g28
(ics475_types
FeatureVector
p929
(dp930
g31
(dp931
I33
F1.0
sI2
F21.5
sI3
F11.5
sI4
F1.0
sI5
F1.0
sI7
F1.0
sI8
F0.5
sI12
F1.0
sI13
F1.0
sI14
F100.0
sI15
F68.0
sI16
F1.0
sI20
F1.0
sI25
F1.0
ssbsg33
g0
(g34
g2
Ntp932
Rp933
(dp934
g38
I0
sbsba(ics475_types
Instance
p935
(dp936
g28
(ics475_types
FeatureVector
p937
(dp938
g31
(dp939
I32
F1.0
sI33
F1.0
sI2
F34.5
sI3
F4.04
sI8
F8.5
sI10
F1.0
sI11
F7.0
sI12
F1.0
sI13
F1.0
sI14
F195.0
sI16
F1.0
sI17
F1.0
sI18
F1.0
sI25
F1.0
ssbsg33
g0
(g34
g2
Ntp940
Rp941
(dp942
g38
I1
sbsba(ics475_types
Instance
p943
(dp944
g28
(ics475_types
FeatureVector
p945
(dp946
g31
(dp947
I1
F1.0
sI2
F60.92
sI3
F5.0
sI4
F1.0
sI5
F1.0
sI7
F1.0
sI8
F4.0
sI10
F1.0
sI11
F4.0
sI13
F1.0
sI15
F99.0
sI21
F1.0
sI33
F1.0
sI37
F1.0
ssbsg33
g0
(g34
g2
Ntp948
Rp949
(dp950
g38
I1
sbsba(ics475_types
Instance
p951
(dp952
g28
(ics475_types
FeatureVector
p953
(dp954
g31
(dp955
I33
F1.0
sI2
F67.75
sI3
F5.5
sI4
F1.0
sI5
F1.0
sI8
F13.0
sI41
F1.0
sI10
F1.0
sI11
F1.0
sI12
F1.0
sI13
F1.0
sI16
F1.0
sI42
F1.0
ssbsg33
g0
(g34
g2
Ntp956
Rp957
(dp958
g38
I1
sbsba(ics475_types
Instance
p959
(dp960
g28
(ics475_types
FeatureVector
p961
(dp962
g31
(dp963
I1
F1.0
sI2
F41.17
sI3
F6.5
sI4
F1.0
sI5
F1.0
sI7
F1.0
sI8
F0.5
sI10
F1.0
sI11
F3.0
sI12
F1.0
sI13
F1.0
sI14
F145.0
sI33
F1.0
sI30
F1.0
ssbsg33
g0
(g34
g2
Ntp964
Rp965
(dp966
g38
I1
sbsba(ics475_types
Instance
p967
(dp968
g28
(ics475_types
FeatureVector
p969
(dp970
g31
(dp971
I33
F1.0
sI2
F39.92
sI3
F0.54
sI37
F1.0
sI7
F1.0
sI8
F0.5
sI10
F1.0
sI11
F3.0
sI13
F1.0
sI14
F200.0
sI15
F1000.0
sI16
F1.0
sI17
F1.0
sI18
F1.0
sI21
F1.0
ssbsg33
g0
(g34
g2
Ntp972
Rp973
(dp974
g38
I1
sbsba(ics475_types
Instance
p975
(dp976
g28
(ics475_types
FeatureVector
p977
(dp978
g31
(dp979
I33
F1.0
sI2
F48.25
sI3
F25.085
sI4
F1.0
sI5
F1.0
sI7
F1.0
sI8
F1.75
sI10
F1.0
sI11
F3.0
sI13
F1.0
sI14
F120.0
sI15
F14.0
sI16
F1.0
sI21
F1.0
sI31
F1.0
ssbsg33
g0
(g34
g2
Ntp980
Rp981
(dp982
g38
I1
sbsba(ics475_types
Instance
p983
(dp984
g28
(ics475_types
FeatureVector
p985
(dp986
g31
(dp987
I33
F1.0
sI2
F27.0
sI3
F1.5
sI7
F1.0
sI8
F0.375
sI12
F1.0
sI13
F1.0
sI14
F260.0
sI15
F1065.0
sI16
F1.0
sI17
F1.0
sI18
F1.0
sI20
F1.0
sI31
F1.0
ssbsg33
g0
(g34
g2
Ntp988
Rp989
(dp990
g38
I1
sbsba(ics475_types
Instance
p991
(dp992
g28
(ics475_types
FeatureVector
p993
(dp994
g31
(dp995
I2
F31.08
sI3
F1.5
sI7
F1.0
sI8
F0.04
sI9
F1.0
sI14
F160.0
sI16
F1.0
sI17
F1.0
sI18
F1.0
sI20
F1.0
sI21
F1.0
sI22
F1.0
sI31
F1.0
ssbsg33
g0
(g34
g2
Ntp996
Rp997
(dp998
g38
I0
sbsba(ics475_types
Instance
p999
(dp1000
g28
(ics475_types
FeatureVector
p1001
(dp1002
g31
(dp1003
I1
F1.0
sI2
F22.58
sI3
F10.75
sI4
F1.0
sI5
F1.0
sI7
F1.0
sI8
F0.415
sI10
F1.0
sI11
F5.0
sI12
F1.0
sI13
F1.0
sI15
F560.0
sI33
F1.0
sI30
F1.0
ssbsg33
g0
(g34
g2
Ntp1004
Rp1005
(dp1006
g38
I1
sbsba(ics475_types
Instance
p1007
(dp1008
g28
(ics475_types
FeatureVector
p1009
(dp1010
g31
(dp1011
I2
F17.08
sI3
F3.29
sI4
F1.0
sI5
F1.0
sI7
F1.0
sI8
F0.335
sI9
F1.0
sI12
F1.0
sI13
F1.0
sI14
F140.0
sI15
F2.0
sI16
F1.0
sI20
F1.0
sI25
F1.0
ssbsg33
g0
(g34
g2
Ntp1012
Rp1013
(dp1014
g38
I0
sbsba(ics475_types
Instance
p1015
(dp1016
g28
(ics475_types
FeatureVector
p1017
(dp1018
g31
(dp1019
I1
F1.0
sI2
F69.5
sI3
F6.0
sI4
F1.0
sI5
F1.0
sI9
F1.0
sI20
F1.0
sI21
F1.0
sI22
F1.0
sI23
F1.0
sI24
F1.0
ssbsg33
g0
(g34
g2
Ntp1020
Rp1021
(dp1022
g38
I0
sbsba(ics475_types
Instance
p1023
(dp1024
g28
(ics475_types
FeatureVector
p1025
(dp1026
g31
(dp1027
I1
F1.0
sI2
F47.42
sI3
F3.0
sI4
F1.0
sI5
F1.0
sI7
F1.0
sI8
F13.875
sI10
F1.0
sI11
F2.0
sI12
F1.0
sI13
F1.0
sI14
F519.0
sI15
F1704.0
sI39
F1.0
sI33
F1.0
ssbsg33
g0
(g34
g2
Ntp1028
Rp1029
(dp1030
g38
I1
sbsba(ics475_types
Instance
p1031
(dp1032
g28
(ics475_types
FeatureVector
p1033
(dp1034
g31
(dp1035
I2
F22.17
sI3
F0.585
sI9
F1.0
sI13
F1.0
sI14
F100.0
sI16
F1.0
sI17
F1.0
sI18
F1.0
sI20
F1.0
sI21
F1.0
sI23
F1.0
sI24
F1.0
ssbsg33
g0
(g34
g2
Ntp1036
Rp1037
(dp1038
g38
I0
sbsba(ics475_types
Instance
p1039
(dp1040
g28
(ics475_types
FeatureVector
p1041
(dp1042
g31
(dp1043
I32
F1.0
sI2
F26.67
sI3
F14.585
sI4
F1.0
sI5
F1.0
sI9
F1.0
sI12
F1.0
sI13
F1.0
sI14
F178.0
sI16
F1.0
sI20
F1.0
sI25
F1.0
ssbsg33
g0
(g34
g2
Ntp1044
Rp1045
(dp1046
g38
I0
sbsba(ics475_types
Instance
p1047
(dp1048
g28
(ics475_types
FeatureVector
p1049
(dp1050
g31
(dp1051
I33
F1.0
sI2
F25.33
sI3
F0.58
sI4
F1.0
sI5
F1.0
sI6
F1.0
sI7
F1.0
sI8
F0.29
sI10
F1.0
sI11
F7.0
sI12
F1.0
sI13
F1.0
sI14
F96.0
sI15
F5124.0
sI16
F1.0
ssbsg33
g0
(g34
g2
Ntp1052
Rp1053
(dp1054
g38
I1
sbsba(ics475_types
Instance
p1055
(dp1056
g28
(ics475_types
FeatureVector
p1057
(dp1058
g31
(dp1059
I33
F1.0
sI2
F18.5
sI3
F2.0
sI4
F1.0
sI5
F1.0
sI7
F1.0
sI8
F1.5
sI10
F1.0
sI11
F2.0
sI13
F1.0
sI14
F120.0
sI15
F300.0
sI16
F1.0
sI21
F1.0
sI25
F1.0
ssbsg33
g0
(g34
g2
Ntp1060
Rp1061
(dp1062
g38
I1
sbsba(ics475_types
Instance
p1063
(dp1064
g28
(ics475_types
FeatureVector
p1065
(dp1066
g31
(dp1067
I2
F17.42
sI3
F6.5
sI4
F1.0
sI5
F1.0
sI7
F1.0
sI8
F0.125
sI9
F1.0
sI13
F1.0
sI14
F60.0
sI15
F100.0
sI16
F1.0
sI20
F1.0
sI21
F1.0
sI25
F1.0
ssbsg33
g0
(g34
g2
Ntp1068
Rp1069
(dp1070
g38
I0
sbsba(ics475_types
Instance
p1071
(dp1072
g28
(ics475_types
FeatureVector
p1073
(dp1074
g31
(dp1075
I1
F1.0
sI2
F20.83
sI3
F8.5
sI4
F1.0
sI5
F1.0
sI6
F1.0
sI7
F1.0
sI8
F0.165
sI9
F1.0
sI13
F1.0
sI15
F351.0
sI20
F1.0
sI21
F1.0
ssbsg33
g0
(g34
g2
Ntp1076
Rp1077
(dp1078
g38
I0
sbsba(ics475_types
Instance
p1079
(dp1080
g28
(ics475_types
FeatureVector
p1081
(dp1082
g31
(dp1083
I1
F1.0
sI2
F27.42
sI3
F14.5
sI4
F1.0
sI5
F1.0
sI33
F1.0
sI8
F3.085
sI10
F1.0
sI11
F1.0
sI13
F1.0
sI14
F120.0
sI15
F11.0
sI21
F1.0
sI39
F1.0
sI27
F1.0
ssbsg33
g0
(g34
g2
Ntp1084
Rp1085
(dp1086
g38
I1
sbsba(ics475_types
Instance
p1087
(dp1088
g28
(ics475_types
FeatureVector
p1089
(dp1090
g31
(dp1091
I1
F1.0
sI2
F17.83
sI3
F11.0
sI4
F1.0
sI5
F1.0
sI33
F1.0
sI8
F1.0
sI10
F1.0
sI11
F11.0
sI13
F1.0
sI15
F3000.0
sI21
F1.0
sI39
F1.0
sI27
F1.0
ssbsg33
g0
(g34
g2
Ntp1092
Rp1093
(dp1094
g38
I1
sbsba(ics475_types
Instance
p1095
(dp1096
g28
(ics475_types
FeatureVector
p1097
(dp1098
g31
(dp1099
I1
F1.0
sI2
F24.58
sI3
F0.67
sI4
F1.0
sI5
F1.0
sI33
F1.0
sI8
F1.75
sI13
F1.0
sI14
F400.0
sI20
F1.0
sI21
F1.0
sI27
F1.0
sI37
F1.0
ssbsg33
g0
(g34
g2
Ntp1100
Rp1101
(dp1102
g38
I0
sbsba(ics475_types
Instance
p1103
(dp1104
g28
(ics475_types
FeatureVector
p1105
(dp1106
g31
(dp1107
I33
F1.0
sI2
F29.58
sI3
F4.5
sI4
F1.0
sI5
F1.0
sI7
F1.0
sI8
F7.5
sI10
F1.0
sI11
F2.0
sI12
F1.0
sI13
F1.0
sI14
F330.0
sI16
F1.0
sI31
F1.0
ssbsg33
g0
(g34
g2
Ntp1108
Rp1109
(dp1110
g38
I1
sbsba(ics475_types
Instance
p1111
(dp1112
g28
(ics475_types
FeatureVector
p1113
(dp1114
g31
(dp1115
I1
F1.0
sI2
F24.92
sI3
F1.25
sI4
F1.0
sI5
F1.0
sI33
F1.0
sI13
F1.0
sI14
F80.0
sI20
F1.0
sI21
F1.0
sI23
F1.0
sI24
F1.0
ssbsg33
g0
(g34
g2
Ntp1116
Rp1117
(dp1118
g38
I0
sbsba(ics475_types
Instance
p1119
(dp1120
g28
(ics475_types
FeatureVector
p1121
(dp1122
g31
(dp1123
I1
F1.0
sI2
F57.08
sI3
F19.5
sI4
F1.0
sI5
F1.0
sI6
F1.0
sI7
F1.0
sI8
F5.5
sI10
F1.0
sI11
F7.0
sI13
F1.0
sI15
F3000.0
sI21
F1.0
sI33
F1.0
ssbsg33
g0
(g34
g2
Ntp1124
Rp1125
(dp1126
g38
I1
sbsba(ics475_types
Instance
p1127
(dp1128
g28
(ics475_types
FeatureVector
p1129
(dp1130
g31
(dp1131
I33
F1.0
sI2
F34.17
sI3
F1.54
sI4
F1.0
sI5
F1.0
sI7
F1.0
sI8
F1.54
sI10
F1.0
sI11
F1.0
sI12
F1.0
sI13
F1.0
sI14
F520.0
sI15
F50000.0
sI16
F1.0
sI36
F1.0
ssbsg33
g0
(g34
g2
Ntp1132
Rp1133
(dp1134
g38
I1
sbsba(ics475_types
Instance
p1135
(dp1136
g28
(ics475_types
FeatureVector
p1137
(dp1138
g31
(dp1139
I1
F1.0
sI2
F24.5
sI3
F1.04
sI33
F1.0
sI8
F0.5
sI10
F1.0
sI11
F3.0
sI13
F1.0
sI14
F180.0
sI15
F147.0
sI17
F1.0
sI18
F1.0
sI21
F1.0
sI23
F1.0
sI24
F1.0
ssbsg33
g0
(g34
g2
Ntp1140
Rp1141
(dp1142
g38
I0
sbsba(ics475_types
Instance
p1143
(dp1144
g28
(ics475_types
FeatureVector
p1145
(dp1146
g31
(dp1147
I2
F32.08
sI3
F4.0
sI36
F1.0
sI7
F1.0
sI8
F1.5
sI9
F1.0
sI12
F1.0
sI13
F1.0
sI14
F120.0
sI16
F1.0
sI17
F1.0
sI18
F1.0
sI20
F1.0
ssbsg33
g0
(g34
g2
Ntp1148
Rp1149
(dp1150
g38
I0
sbsba(ics475_types
Instance
p1151
(dp1152
g28
(ics475_types
FeatureVector
p1153
(dp1154
g31
(dp1155
I33
F1.0
sI2
F28.0
sI3
F2.0
sI4
F1.0
sI5
F1.0
sI8
F4.165
sI10
F1.0
sI11
F2.0
sI12
F1.0
sI13
F1.0
sI14
F181.0
sI16
F1.0
sI19
F1.0
sI27
F1.0
ssbsg33
g0
(g34
g2
Ntp1156
Rp1157
(dp1158
g38
I1
sbsba(ics475_types
Instance
p1159
(dp1160
g28
(ics475_types
FeatureVector
p1161
(dp1162
g31
(dp1163
I33
F1.0
sI2
F32.67
sI3
F9.0
sI8
F5.25
sI12
F1.0
sI13
F1.0
sI14
F154.0
sI16
F1.0
sI17
F1.0
sI18
F1.0
sI20
F1.0
sI27
F1.0
sI31
F1.0
ssbsg33
g0
(g34
g2
Ntp1164
Rp1165
(dp1166
g38
I1
sbsba(ics475_types
Instance
p1167
(dp1168
g28
(ics475_types
FeatureVector
p1169
(dp1170
g31
(dp1171
I32
F1.0
sI33
F1.0
sI2
F37.5
sI3
F1.75
sI6
F1.0
sI8
F0.25
sI12
F1.0
sI13
F1.0
sI14
F164.0
sI15
F400.0
sI16
F1.0
sI17
F1.0
sI18
F1.0
sI20
F1.0
ssbsg33
g0
(g34
g2
Ntp1172
Rp1173
(dp1174
g38
I0
sbsba(ics475_types
Instance
p1175
(dp1176
g28
(ics475_types
FeatureVector
p1177
(dp1178
g31
(dp1179
I33
F1.0
sI2
F33.58
sI3
F2.75
sI4
F1.0
sI5
F1.0
sI7
F1.0
sI8
F4.25
sI10
F1.0
sI11
F6.0
sI13
F1.0
sI14
F204.0
sI16
F1.0
sI35
F1.0
sI21
F1.0
ssbsg33
g0
(g34
g2
Ntp1180
Rp1181
(dp1182
g38
I1
sbsba(ics475_types
Instance
p1183
(dp1184
g28
(ics475_types
FeatureVector
p1185
(dp1186
g31
(dp1187
I1
F1.0
sI2
F25.0
sI3
F0.875
sI4
F1.0
sI5
F1.0
sI33
F1.0
sI8
F1.04
sI39
F1.0
sI12
F1.0
sI13
F1.0
sI14
F160.0
sI15
F5860.0
sI20
F1.0
sI27
F1.0
ssbsg33
g0
(g34
g2
Ntp1188
Rp1189
(dp1190
g38
I1
sbsba(ics475_types
Instance
p1191
(dp1192
g28
(ics475_types
FeatureVector
p1193
(dp1194
g31
(dp1195
I1
F1.0
sI2
F23.58
sI3
F0.83
sI4
F1.0
sI5
F1.0
sI7
F1.0
sI8
F0.415
sI9
F1.0
sI10
F1.0
sI11
F1.0
sI12
F1.0
sI13
F1.0
sI14
F200.0
sI15
F11.0
sI30
F1.0
ssbsg33
g0
(g34
g2
Ntp1196
Rp1197
(dp1198
g38
I0
sbsba(ics475_types
Instance
p1199
(dp1200
g28
(ics475_types
FeatureVector
p1201
(dp1202
g31
(dp1203
I33
F1.0
sI2
F27.25
sI3
F1.665
sI4
F1.0
sI5
F1.0
sI8
F5.085
sI10
F1.0
sI11
F9.0
sI13
F1.0
sI14
F399.0
sI15
F827.0
sI16
F1.0
sI21
F1.0
sI36
F1.0
sI27
F1.0
ssbsg33
g0
(g34
g2
Ntp1204
Rp1205
(dp1206
g38
I1
sbsba(ics475_types
Instance
p1207
(dp1208
g28
(ics475_types
FeatureVector
p1209
(dp1210
g31
(dp1211
I33
F1.0
sI2
F23.33
sI3
F11.625
sI7
F1.0
sI8
F0.835
sI12
F1.0
sI13
F1.0
sI14
F160.0
sI15
F300.0
sI16
F1.0
sI17
F1.0
sI18
F1.0
sI20
F1.0
sI31
F1.0
ssbsg33
g0
(g34
g2
Ntp1212
Rp1213
(dp1214
g38
I1
sbsba(ics475_types
Instance
p1215
(dp1216
g28
(ics475_types
FeatureVector
p1217
(dp1218
g31
(dp1219
I33
F1.0
sI2
F27.67
sI3
F13.75
sI4
F1.0
sI5
F1.0
sI7
F1.0
sI8
F5.75
sI12
F1.0
sI13
F1.0
sI14
F487.0
sI15
F500.0
sI16
F1.0
sI20
F1.0
sI31
F1.0
ssbsg33
g0
(g34
g2
Ntp1220
Rp1221
(dp1222
g38
I1
sbsba(ics475_types
Instance
p1223
(dp1224
g28
(ics475_types
FeatureVector
p1225
(dp1226
g31
(dp1227
I33
F1.0
sI2
F34.92
sI3
F2.5
sI4
F1.0
sI5
F1.0
sI7
F1.0
sI12
F1.0
sI13
F1.0
sI14
F239.0
sI15
F200.0
sI16
F1.0
sI20
F1.0
sI31
F1.0
ssbsg33
g0
(g34
g2
Ntp1228
Rp1229
(dp1230
g38
I1
sbsba(ics475_types
Instance
p1231
(dp1232
g28
(ics475_types
FeatureVector
p1233
(dp1234
g31
(dp1235
I2
F18.83
sI3
F0.415
sI6
F1.0
sI7
F1.0
sI8
F0.165
sI9
F1.0
sI10
F1.0
sI11
F1.0
sI13
F1.0
sI14
F200.0
sI15
F1.0
sI16
F1.0
sI17
F1.0
sI18
F1.0
sI21
F1.0
ssbsg33
g0
(g34
g2
Ntp1236
Rp1237
(dp1238
g38
I0
sbsba(ics475_types
Instance
p1239
(dp1240
g28
(ics475_types
FeatureVector
p1241
(dp1242
g31
(dp1243
I1
F1.0
sI2
F20.67
sI3
F3.0
sI4
F1.0
sI5
F1.0
sI7
F1.0
sI8
F0.165
sI10
F1.0
sI11
F3.0
sI13
F1.0
sI14
F100.0
sI15
F6.0
sI21
F1.0
sI33
F1.0
sI30
F1.0
ssbsg33
g0
(g34
g2
Ntp1244
Rp1245
(dp1246
g38
I1
sbsba(ics475_types
Instance
p1247
(dp1248
g28
(ics475_types
FeatureVector
p1249
(dp1250
g31
(dp1251
I33
F1.0
sI2
F39.92
sI3
F6.21
sI4
F1.0
sI5
F1.0
sI7
F1.0
sI8
F0.04
sI10
F1.0
sI11
F1.0
sI13
F1.0
sI14
F200.0
sI15
F300.0
sI16
F1.0
sI21
F1.0
sI30
F1.0
ssbsg33
g0
(g34
g2
Ntp1252
Rp1253
(dp1254
g38
I1
sbsba(ics475_types
Instance
p1255
(dp1256
g28
(ics475_types
FeatureVector
p1257
(dp1258
g31
(dp1259
I32
F1.0
sI2
F33.75
sI3
F2.75
sI4
F1.0
sI5
F1.0
sI9
F1.0
sI13
F1.0
sI14
F180.0
sI16
F1.0
sI20
F1.0
sI21
F1.0
sI25
F1.0
ssbsg33
g0
(g34
g2
Ntp1260
Rp1261
(dp1262
g38
I0
sbsba(ics475_types
Instance
p1263
(dp1264
g28
(ics475_types
FeatureVector
p1265
(dp1266
g31
(dp1267
I2
F16.0
sI3
F3.125
sI4
F1.0
sI5
F1.0
sI7
F1.0
sI8
F0.085
sI9
F1.0
sI10
F1.0
sI11
F1.0
sI13
F1.0
sI15
F6.0
sI16
F1.0
sI21
F1.0
sI31
F1.0
ssbsg33
g0
(g34
g2
Ntp1268
Rp1269
(dp1270
g38
I0
sbsba(ics475_types
Instance
p1271
(dp1272
g28
(ics475_types
FeatureVector
p1273
(dp1274
g31
(dp1275
I2
F23.92
sI3
F0.665
sI4
F1.0
sI5
F1.0
sI6
F1.0
sI7
F1.0
sI8
F0.165
sI9
F1.0
sI13
F1.0
sI14
F100.0
sI16
F1.0
sI20
F1.0
sI21
F1.0
ssbsg33
g0
(g34
g2
Ntp1276
Rp1277
(dp1278
g38
I1
sbsba(ics475_types
Instance
p1279
(dp1280
g28
(ics475_types
FeatureVector
p1281
(dp1282
g31
(dp1283
I1
F1.0
sI2
F58.33
sI3
F10.0
sI4
F1.0
sI5
F1.0
sI7
F1.0
sI8
F4.0
sI10
F1.0
sI11
F14.0
sI13
F1.0
sI15
F1602.0
sI21
F1.0
sI33
F1.0
sI30
F1.0
ssbsg33
g0
(g34
g2
Ntp1284
Rp1285
(dp1286
g38
I1
sbsba(ics475_types
Instance
p1287
(dp1288
g28
(ics475_types
FeatureVector
p1289
(dp1290
g31
(dp1291
I33
F1.0
sI2
F28.75
sI3
F1.5
sI6
F1.0
sI7
F1.0
sI8
F1.5
sI12
F1.0
sI13
F1.0
sI15
F225.0
sI16
F1.0
sI17
F1.0
sI18
F1.0
sI20
F1.0
ssbsg33
g0
(g34
g2
Ntp1292
Rp1293
(dp1294
g38
I0
sbsba(ics475_types
Instance
p1295
(dp1296
g28
(ics475_types
FeatureVector
p1297
(dp1298
g31
(dp1299
I33
F1.0
sI2
F40.92
sI3
F2.25
sI39
F1.0
sI8
F10.0
sI12
F1.0
sI13
F1.0
sI14
F176.0
sI16
F1.0
sI17
F1.0
sI18
F1.0
sI20
F1.0
sI27
F1.0
ssbsg33
g0
(g34
g2
Ntp1300
Rp1301
(dp1302
g38
I0
sbsba(ics475_types
Instance
p1303
(dp1304
g28
(ics475_types
FeatureVector
p1305
(dp1306
g31
(dp1307
I1
F1.0
sI2
F22.67
sI3
F0.335
sI4
F1.0
sI5
F1.0
sI7
F1.0
sI8
F0.75
sI9
F1.0
sI14
F160.0
sI20
F1.0
sI21
F1.0
sI22
F1.0
sI30
F1.0
ssbsg33
g0
(g34
g2
Ntp1308
Rp1309
(dp1310
g38
I0
sbsba(ics475_types
Instance
p1311
(dp1312
g28
(ics475_types
FeatureVector
p1313
(dp1314
g31
(dp1315
I33
F1.0
sI2
F43.0
sI3
F0.29
sI36
F1.0
sI8
F1.75
sI10
F1.0
sI11
F8.0
sI13
F1.0
sI14
F100.0
sI15
F375.0
sI16
F1.0
sI17
F1.0
sI18
F1.0
sI21
F1.0
sI27
F1.0
ssbsg33
g0
(g34
g2
Ntp1316
Rp1317
(dp1318
g38
I1
sbsba(ics475_types
Instance
p1319
(dp1320
g28
(ics475_types
FeatureVector
p1321
(dp1322
g31
(dp1323
I33
F1.0
sI2
F22.75
sI3
F11.0
sI4
F1.0
sI5
F1.0
sI7
F1.0
sI8
F2.5
sI10
F1.0
sI11
F7.0
sI12
F1.0
sI13
F1.0
sI14
F100.0
sI15
F809.0
sI16
F1.0
sI30
F1.0
ssbsg33
g0
(g34
g2
Ntp1324
Rp1325
(dp1326
g38
I1
sbsba(ics475_types
Instance
p1327
(dp1328
g28
(ics475_types
FeatureVector
p1329
(dp1330
g31
(dp1331
I1
F1.0
sI2
F18.42
sI3
F9.25
sI4
F1.0
sI5
F1.0
sI7
F1.0
sI8
F1.21
sI10
F1.0
sI11
F4.0
sI13
F1.0
sI14
F60.0
sI15
F540.0
sI21
F1.0
sI33
F1.0
sI30
F1.0
ssbsg33
g0
(g34
g2
Ntp1332
Rp1333
(dp1334
g38
I1
sbsba(ics475_types
Instance
p1335
(dp1336
g28
(ics475_types
FeatureVector
p1337
(dp1338
g31
(dp1339
I1
F1.0
sI2
F15.83
sI3
F0.585
sI4
F1.0
sI5
F1.0
sI6
F1.0
sI33
F1.0
sI8
F1.5
sI10
F1.0
sI11
F2.0
sI13
F1.0
sI14
F100.0
sI21
F1.0
sI27
F1.0
ssbsg33
g0
(g34
g2
Ntp1340
Rp1341
(dp1342
g38
I1
sbsba(ics475_types
Instance
p1343
(dp1344
g28
(ics475_types
FeatureVector
p1345
(dp1346
g31
(dp1347
I33
F1.0
sI2
F54.33
sI3
F6.75
sI4
F1.0
sI5
F1.0
sI6
F1.0
sI8
F2.625
sI10
F1.0
sI11
F11.0
sI12
F1.0
sI13
F1.0
sI15
F284.0
sI16
F1.0
sI27
F1.0
ssbsg33
g0
(g34
g2
Ntp1348
Rp1349
(dp1350
g38
I1
sbsba(ics475_types
Instance
p1351
(dp1352
g28
(ics475_types
FeatureVector
p1353
(dp1354
g31
(dp1355
I33
F1.0
sI2
F22.58
sI3
F10.04
sI4
F1.0
sI5
F1.0
sI7
F1.0
sI8
F0.04
sI10
F1.0
sI11
F9.0
sI13
F1.0
sI14
F60.0
sI15
F396.0
sI16
F1.0
sI21
F1.0
sI39
F1.0
ssbsg33
g0
(g34
g2
Ntp1356
Rp1357
(dp1358
g38
I1
sbsba(ics475_types
Instance
p1359
(dp1360
g28
(ics475_types
FeatureVector
p1361
(dp1362
g31
(dp1363
I1
F1.0
sI2
F52.83
sI3
F15.0
sI4
F1.0
sI5
F1.0
sI6
F1.0
sI7
F1.0
sI8
F5.5
sI10
F1.0
sI11
F14.0
sI13
F1.0
sI15
F2200.0
sI21
F1.0
sI33
F1.0
ssbsg33
g0
(g34
g2
Ntp1364
Rp1365
(dp1366
g38
I1
sbsba(ics475_types
Instance
p1367
(dp1368
g28
(ics475_types
FeatureVector
p1369
(dp1370
g31
(dp1371
I1
F1.0
sI2
F20.75
sI3
F10.335
sI4
F1.0
sI5
F1.0
sI33
F1.0
sI8
F0.335
sI10
F1.0
sI11
F1.0
sI12
F1.0
sI13
F1.0
sI14
F80.0
sI15
F50.0
sI36
F1.0
sI27
F1.0
ssbsg33
g0
(g34
g2
Ntp1372
Rp1373
(dp1374
g38
I1
sbsba(ics475_types
Instance
p1375
(dp1376
g28
(ics475_types
FeatureVector
p1377
(dp1378
g31
(dp1379
I1
F1.0
sI2
F26.08
sI3
F8.665
sI4
F1.0
sI5
F1.0
sI7
F1.0
sI8
F1.415
sI13
F1.0
sI14
F160.0
sI15
F150.0
sI20
F1.0
sI21
F1.0
sI33
F1.0
sI37
F1.0
ssbsg33
g0
(g34
g2
Ntp1380
Rp1381
(dp1382
g38
I1
sbsba(ics475_types
Instance
p1383
(dp1384
g28
(ics475_types
FeatureVector
p1385
(dp1386
g31
(dp1387
I1
F1.0
sI2
F17.33
sI3
F9.5
sI4
F1.0
sI5
F1.0
sI7
F1.0
sI8
F1.75
sI9
F1.0
sI10
F1.0
sI11
F10.0
sI12
F1.0
sI13
F1.0
sI15
F10.0
sI37
F1.0
ssbsg33
g0
(g34
g2
Ntp1388
Rp1389
(dp1390
g38
I0
sbsba(ics475_types
Instance
p1391
(dp1392
g28
(ics475_types
FeatureVector
p1393
(dp1394
g31
(dp1395
I1
F1.0
sI2
F24.5
sI3
F2.415
sI6
F1.0
sI7
F1.0
sI9
F1.0
sI13
F1.0
sI14
F120.0
sI17
F1.0
sI18
F1.0
sI20
F1.0
sI21
F1.0
ssbsg33
g0
(g34
g2
Ntp1396
Rp1397
(dp1398
g38
I0
sbsba(ics475_types
Instance
p1399
(dp1400
g28
(ics475_types
FeatureVector
p1401
(dp1402
g31
(dp1403
I1
F1.0
sI2
F27.25
sI3
F0.29
sI4
F1.0
sI5
F1.0
sI8
F0.125
sI9
F1.0
sI10
F1.0
sI11
F1.0
sI12
F1.0
sI13
F1.0
sI14
F272.0
sI15
F108.0
sI35
F1.0
sI27
F1.0
ssbsg33
g0
(g34
g2
Ntp1404
Rp1405
(dp1406
g38
I0
sbsba(ics475_types
Instance
p1407
(dp1408
g28
(ics475_types
FeatureVector
p1409
(dp1410
g31
(dp1411
I2
F28.58
sI3
F3.625
sI4
F1.0
sI5
F1.0
sI7
F1.0
sI8
F0.25
sI9
F1.0
sI12
F1.0
sI13
F1.0
sI14
F100.0
sI16
F1.0
sI20
F1.0
sI37
F1.0
ssbsg33
g0
(g34
g2
Ntp1412
Rp1413
(dp1414
g38
I0
sbsba(ics475_types
Instance
p1415
(dp1416
g28
(ics475_types
FeatureVector
p1417
(dp1418
g31
(dp1419
I32
F1.0
sI1
F1.0
sI2
F41.33
sI3
F1.0
sI4
F1.0
sI5
F1.0
sI33
F1.0
sI8
F2.25
sI12
F1.0
sI13
F1.0
sI15
F300.0
sI20
F1.0
sI25
F1.0
ssbsg33
g0
(g34
g2
Ntp1420
Rp1421
(dp1422
g38
I1
sbsba(ics475_types
Instance
p1423
(dp1424
g28
(ics475_types
FeatureVector
p1425
(dp1426
g31
(dp1427
I32
F1.0
sI2
F19.33
sI3
F10.915
sI4
F1.0
sI5
F1.0
sI6
F1.0
sI8
F0.585
sI9
F1.0
sI10
F1.0
sI11
F2.0
sI12
F1.0
sI13
F1.0
sI14
F200.0
sI15
F7.0
sI16
F1.0
ssbsg33
g0
(g34
g2
Ntp1428
Rp1429
(dp1430
g38
I0
sbsba(ics475_types
Instance
p1431
(dp1432
g28
(ics475_types
FeatureVector
p1433
(dp1434
g31
(dp1435
I1
F1.0
sI2
F24.83
sI3
F4.5
sI4
F1.0
sI5
F1.0
sI7
F1.0
sI8
F1.0
sI9
F1.0
sI12
F1.0
sI13
F1.0
sI14
F360.0
sI15
F6.0
sI20
F1.0
sI31
F1.0
ssbsg33
g0
(g34
g2
Ntp1436
Rp1437
(dp1438
g38
I0
sbsba(ics475_types
Instance
p1439
(dp1440
g28
(ics475_types
FeatureVector
p1441
(dp1442
g31
(dp1443
I32
F1.0
sI2
F26.92
sI3
F2.25
sI4
F1.0
sI5
F1.0
sI8
F0.5
sI9
F1.0
sI12
F1.0
sI13
F1.0
sI14
F640.0
sI15
F4000.0
sI16
F1.0
sI20
F1.0
sI25
F1.0
ssbsg33
g0
(g34
g2
Ntp1444
Rp1445
(dp1446
g38
I0
sbsba(ics475_types
Instance
p1447
(dp1448
g28
(ics475_types
FeatureVector
p1449
(dp1450
g31
(dp1451
I33
F1.0
sI2
F27.83
sI3
F4.0
sI8
F5.75
sI10
F1.0
sI11
F2.0
sI12
F1.0
sI13
F1.0
sI14
F75.0
sI16
F1.0
sI17
F1.0
sI18
F1.0
sI25
F1.0
sI27
F1.0
ssbsg33
g0
(g34
g2
Ntp1452
Rp1453
(dp1454
g38
I0
sbsba(ics475_types
Instance
p1455
(dp1456
g28
(ics475_types
FeatureVector
p1457
(dp1458
g31
(dp1459
I2
F29.42
sI3
F1.25
sI4
F1.0
sI5
F1.0
sI7
F1.0
sI8
F1.75
sI9
F1.0
sI13
F1.0
sI14
F200.0
sI16
F1.0
sI20
F1.0
sI21
F1.0
sI31
F1.0
ssbsg33
g0
(g34
g2
Ntp1460
Rp1461
(dp1462
g38
I0
sbsba(ics475_types
Instance
p1463
(dp1464
g28
(ics475_types
FeatureVector
p1465
(dp1466
g31
(dp1467
I2
F41.17
sI3
F1.335
sI4
F1.0
sI5
F1.0
sI7
F1.0
sI8
F0.165
sI9
F1.0
sI13
F1.0
sI14
F168.0
sI16
F1.0
sI34
F1.0
sI20
F1.0
sI21
F1.0
ssbsg33
g0
(g34
g2
Ntp1468
Rp1469
(dp1470
g38
I0
sbsba(ics475_types
Instance
p1471
(dp1472
g28
(ics475_types
FeatureVector
p1473
(dp1474
g31
(dp1475
I2
F20.0
sI34
F1.0
sI4
F1.0
sI5
F1.0
sI7
F1.0
sI8
F0.5
sI9
F1.0
sI13
F1.0
sI14
F144.0
sI16
F1.0
sI20
F1.0
sI21
F1.0
ssbsg33
g0
(g34
g2
Ntp1476
Rp1477
(dp1478
g38
I0
sbsba(ics475_types
Instance
p1479
(dp1480
g28
(ics475_types
FeatureVector
p1481
(dp1482
g31
(dp1483
I1
F1.0
sI2
F28.5
sI3
F1.0
sI4
F1.0
sI5
F1.0
sI7
F1.0
sI8
F1.0
sI10
F1.0
sI11
F2.0
sI12
F1.0
sI13
F1.0
sI14
F167.0
sI15
F500.0
sI33
F1.0
sI30
F1.0
ssbsg33
g0
(g34
g2
Ntp1484
Rp1485
(dp1486
g38
I0
sbsba(ics475_types
Instance
p1487
(dp1488
g28
(ics475_types
FeatureVector
p1489
(dp1490
g31
(dp1491
I1
F1.0
sI2
F22.92
sI3
F1.25
sI4
F1.0
sI5
F1.0
sI7
F1.0
sI8
F0.25
sI9
F1.0
sI12
F1.0
sI13
F1.0
sI14
F120.0
sI15
F809.0
sI20
F1.0
sI30
F1.0
ssbsg33
g0
(g34
g2
Ntp1492
Rp1493
(dp1494
g38
I0
sbsba(ics475_types
Instance
p1495
(dp1496
g28
(ics475_types
FeatureVector
p1497
(dp1498
g31
(dp1499
I1
F1.0
sI2
F58.67
sI3
F4.46
sI4
F1.0
sI5
F1.0
sI33
F1.0
sI8
F3.04
sI10
F1.0
sI11
F6.0
sI13
F1.0
sI14
F43.0
sI15
F560.0
sI21
F1.0
sI27
F1.0
sI30
F1.0
ssbsg33
g0
(g34
g2
Ntp1500
Rp1501
(dp1502
g38
I1
sbsba(ics475_types
Instance
p1503
(dp1504
g28
(ics475_types
FeatureVector
p1505
(dp1506
g31
(dp1507
I33
F1.0
sI2
F23.42
sI3
F0.585
sI4
F1.0
sI5
F1.0
sI6
F1.0
sI8
F0.085
sI13
F1.0
sI14
F180.0
sI16
F1.0
sI20
F1.0
sI21
F1.0
sI27
F1.0
ssbsg33
g0
(g34
g2
Ntp1508
Rp1509
(dp1510
g38
I0
sbsba(ics475_types
Instance
p1511
(dp1512
g28
(ics475_types
FeatureVector
p1513
(dp1514
g31
(dp1515
I1
F1.0
sI2
F16.5
sI3
F1.25
sI4
F1.0
sI5
F1.0
sI7
F1.0
sI8
F0.25
sI9
F1.0
sI10
F1.0
sI11
F1.0
sI13
F1.0
sI14
F108.0
sI15
F98.0
sI21
F1.0
sI30
F1.0
ssbsg33
g0
(g34
g2
Ntp1516
Rp1517
(dp1518
g38
I0
sbsba(ics475_types
Instance
p1519
(dp1520
g28
(ics475_types
FeatureVector
p1521
(dp1522
g31
(dp1523
I1
F1.0
sI2
F21.67
sI3
F11.5
sI33
F1.0
sI10
F1.0
sI11
F11.0
sI12
F1.0
sI13
F1.0
sI17
F1.0
sI18
F1.0
sI28
F1.0
sI29
F1.0
ssbsg33
g0
(g34
g2
Ntp1524
Rp1525
(dp1526
g38
I1
sbsba(ics475_types
Instance
p1527
(dp1528
g28
(ics475_types
FeatureVector
p1529
(dp1530
g31
(dp1531
I1
F1.0
sI2
F22.92
sI3
F11.585
sI4
F1.0
sI5
F1.0
sI7
F1.0
sI8
F0.04
sI13
F1.0
sI14
F80.0
sI15
F1349.0
sI20
F1.0
sI21
F1.0
sI36
F1.0
sI33
F1.0
ssbsg33
g0
(g34
g2
Ntp1532
Rp1533
(dp1534
g38
I1
sbsba(ics475_types
Instance
p1535
(dp1536
g28
(ics475_types
FeatureVector
p1537
(dp1538
g31
(dp1539
I33
F1.0
sI2
F42.5
sI3
F4.915
sI7
F1.0
sI8
F3.165
sI12
F1.0
sI13
F1.0
sI14
F52.0
sI15
F1442.0
sI16
F1.0
sI17
F1.0
sI18
F1.0
sI20
F1.0
sI31
F1.0
ssbsg33
g0
(g34
g2
Ntp1540
Rp1541
(dp1542
g38
I1
sbsba(ics475_types
Instance
p1543
(dp1544
g28
(ics475_types
FeatureVector
p1545
(dp1546
g31
(dp1547
I2
F30.58
sI3
F2.71
sI7
F1.0
sI8
F0.125
sI9
F1.0
sI12
F1.0
sI14
F80.0
sI16
F1.0
sI17
F1.0
sI18
F1.0
sI35
F1.0
sI20
F1.0
sI22
F1.0
ssbsg33
g0
(g34
g2
Ntp1548
Rp1549
(dp1550
g38
I0
sbsba(ics475_types
Instance
p1551
(dp1552
g28
(ics475_types
FeatureVector
p1553
(dp1554
g31
(dp1555
I33
F1.0
sI2
F39.83
sI3
F0.5
sI4
F1.0
sI5
F1.0
sI7
F1.0
sI8
F0.25
sI14
F288.0
sI16
F1.0
sI35
F1.0
sI20
F1.0
sI21
F1.0
sI22
F1.0
ssbsg33
g0
(g34
g2
Ntp1556
Rp1557
(dp1558
g38
I0
sbsba(ics475_types
Instance
p1559
(dp1560
g28
(ics475_types
FeatureVector
p1561
(dp1562
g31
(dp1563
I32
F1.0
sI1
F1.0
sI2
F24.33
sI3
F2.5
sI8
F4.5
sI9
F1.0
sI13
F1.0
sI14
F200.0
sI15
F456.0
sI17
F1.0
sI18
F1.0
sI20
F1.0
sI21
F1.0
sI25
F1.0
ssbsg33
g0
(g34
g2
Ntp1564
Rp1565
(dp1566
g38
I0
sbsba(ics475_types
Instance
p1567
(dp1568
g28
(ics475_types
FeatureVector
p1569
(dp1570
g31
(dp1571
I2
F28.17
sI3
F0.125
sI7
F1.0
sI8
F0.085
sI9
F1.0
sI13
F1.0
sI14
F216.0
sI15
F2100.0
sI16
F1.0
sI17
F1.0
sI18
F1.0
sI19
F1.0
sI20
F1.0
sI21
F1.0
ssbsg33
g0
(g34
g2
Ntp1572
Rp1573
(dp1574
g38
I0
sbsba(ics475_types
Instance
p1575
(dp1576
g28
(ics475_types
FeatureVector
p1577
(dp1578
g31
(dp1579
I2
F23.08
sI3
F2.5
sI4
F1.0
sI5
F1.0
sI8
F0.085
sI9
F1.0
sI12
F1.0
sI13
F1.0
sI14
F100.0
sI15
F4208.0
sI16
F1.0
sI20
F1.0
sI23
F1.0
sI24
F1.0
ssbsg33
g0
(g34
g2
Ntp1580
Rp1581
(dp1582
g38
I0
sbsba(ics475_types
Instance
p1583
(dp1584
g28
(ics475_types
FeatureVector
p1585
(dp1586
g31
(dp1587
I1
F1.0
sI2
F19.5
sI3
F0.165
sI4
F1.0
sI5
F1.0
sI7
F1.0
sI8
F0.04
sI9
F1.0
sI12
F1.0
sI13
F1.0
sI14
F380.0
sI20
F1.0
sI30
F1.0
ssbsg33
g0
(g34
g2
Ntp1588
Rp1589
(dp1590
g38
I0
sbsba(ics475_types
Instance
p1591
(dp1592
g28
(ics475_types
FeatureVector
p1593
(dp1594
g31
(dp1595
I1
F1.0
sI2
F52.5
sI3
F7.0
sI4
F1.0
sI5
F1.0
sI8
F3.0
sI9
F1.0
sI13
F1.0
sI20
F1.0
sI21
F1.0
sI27
F1.0
sI37
F1.0
ssbsg33
g0
(g34
g2
Ntp1596
Rp1597
(dp1598
g38
I0
sbsba(ics475_types
Instance
p1599
(dp1600
g28
(ics475_types
FeatureVector
p1601
(dp1602
g31
(dp1603
I33
F1.0
sI2
F29.25
sI3
F14.79
sI4
F1.0
sI5
F1.0
sI7
F1.0
sI8
F5.04
sI10
F1.0
sI11
F5.0
sI12
F1.0
sI13
F1.0
sI14
F168.0
sI16
F1.0
sI37
F1.0
ssbsg33
g0
(g34
g2
Ntp1604
Rp1605
(dp1606
g38
I1
sbsba(ics475_types
Instance
p1607
(dp1608
g28
(ics475_types
FeatureVector
p1609
(dp1610
g31
(dp1611
I2
F26.17
sI3
F0.835
sI4
F1.0
sI5
F1.0
sI7
F1.0
sI8
F1.165
sI9
F1.0
sI13
F1.0
sI14
F100.0
sI16
F1.0
sI20
F1.0
sI21
F1.0
sI36
F1.0
ssbsg33
g0
(g34
g2
Ntp1612
Rp1613
(dp1614
g38
I0
sbsba(ics475_types
Instance
p1615
(dp1616
g28
(ics475_types
FeatureVector
p1617
(dp1618
g31
(dp1619
I33
F1.0
sI2
F38.58
sI3
F3.335
sI4
F1.0
sI5
F1.0
sI7
F1.0
sI8
F4.0
sI10
F1.0
sI11
F14.0
sI13
F1.0
sI14
F383.0
sI15
F1344.0
sI16
F1.0
sI21
F1.0
sI31
F1.0
ssbsg33
g0
(g34
g2
Ntp1620
Rp1621
(dp1622
g38
I1
sbsba(ics475_types
Instance
p1623
(dp1624
g28
(ics475_types
FeatureVector
p1625
(dp1626
g31
(dp1627
I33
F1.0
sI2
F32.25
sI3
F0.165
sI6
F1.0
sI8
F3.25
sI10
F1.0
sI11
F1.0
sI12
F1.0
sI13
F1.0
sI14
F432.0
sI15
F8000.0
sI16
F1.0
sI17
F1.0
sI18
F1.0
sI27
F1.0
ssbsg33
g0
(g34
g2
Ntp1628
Rp1629
(dp1630
g38
I1
sbsba(ics475_types
Instance
p1631
(dp1632
g28
(ics475_types
FeatureVector
p1633
(dp1634
g31
(dp1635
I2
F32.42
sI3
F2.165
sI9
F1.0
sI13
F1.0
sI14
F120.0
sI16
F1.0
sI17
F1.0
sI18
F1.0
sI19
F1.0
sI20
F1.0
sI21
F1.0
sI24
F1.0
ssbsg33
g0
(g34
g2
Ntp1636
Rp1637
(dp1638
g38
I0
sbsba(ics475_types
Instance
p1639
(dp1640
g28
(ics475_types
FeatureVector
p1641
(dp1642
g31
(dp1643
I33
F1.0
sI2
F20.67
sI3
F1.25
sI6
F1.0
sI8
F1.375
sI10
F1.0
sI11
F3.0
sI12
F1.0
sI13
F1.0
sI14
F140.0
sI15
F210.0
sI16
F1.0
sI17
F1.0
sI18
F1.0
sI27
F1.0
ssbsg33
g0
(g34
g2
Ntp1644
Rp1645
(dp1646
g38
I0
sbsba(ics475_types
Instance
p1647
(dp1648
g28
(ics475_types
FeatureVector
p1649
(dp1650
g31
(dp1651
I33
F1.0
sI2
F39.17
sI3
F1.625
sI4
F1.0
sI5
F1.0
sI6
F1.0
sI7
F1.0
sI8
F1.5
sI10
F1.0
sI11
F10.0
sI13
F1.0
sI14
F186.0
sI15
F4700.0
sI16
F1.0
sI21
F1.0
ssbsg33
g0
(g34
g2
Ntp1652
Rp1653
(dp1654
g38
I1
sbsba(ics475_types
Instance
p1655
(dp1656
g28
(ics475_types
FeatureVector
p1657
(dp1658
g31
(dp1659
I2
F21.17
sI3
F0.25
sI6
F1.0
sI8
F0.25
sI9
F1.0
sI13
F1.0
sI14
F280.0
sI15
F204.0
sI16
F1.0
sI17
F1.0
sI18
F1.0
sI20
F1.0
sI21
F1.0
sI27
F1.0
ssbsg33
g0
(g34
g2
Ntp1660
Rp1661
(dp1662
g38
I0
sbsba(ics475_types
Instance
p1663
(dp1664
g28
(ics475_types
FeatureVector
p1665
(dp1666
g31
(dp1667
I2
F17.08
sI3
F0.25
sI4
F1.0
sI5
F1.0
sI7
F1.0
sI8
F0.335
sI9
F1.0
sI10
F1.0
sI11
F4.0
sI13
F1.0
sI14
F160.0
sI15
F8.0
sI16
F1.0
sI21
F1.0
sI30
F1.0
ssbsg33
g0
(g34
g2
Ntp1668
Rp1669
(dp1670
g38
I0
sbsba(ics475_types
Instance
p1671
(dp1672
g28
(ics475_types
FeatureVector
p1673
(dp1674
g31
(dp1675
I33
F1.0
sI2
F33.17
sI3
F3.04
sI6
F1.0
sI8
F2.04
sI10
F1.0
sI11
F1.0
sI12
F1.0
sI13
F1.0
sI14
F180.0
sI15
F18027.0
sI16
F1.0
sI17
F1.0
sI18
F1.0
sI27
F1.0
ssbsg33
g0
(g34
g2
Ntp1676
Rp1677
(dp1678
g38
I1
sbsba(ics475_types
Instance
p1679
(dp1680
g28
(ics475_types
FeatureVector
p1681
(dp1682
g31
(dp1683
I1
F1.0
sI2
F38.33
sI3
F4.415
sI4
F1.0
sI5
F1.0
sI6
F1.0
sI7
F1.0
sI8
F0.125
sI9
F1.0
sI13
F1.0
sI14
F160.0
sI20
F1.0
sI21
F1.0
ssbsg33
g0
(g34
g2
Ntp1684
Rp1685
(dp1686
g38
I0
sbsba(ics475_types
Instance
p1687
(dp1688
g28
(ics475_types
FeatureVector
p1689
(dp1690
g31
(dp1691
I1
F1.0
sI2
F33.25
sI3
F3.0
sI37
F1.0
sI7
F1.0
sI8
F2.0
sI9
F1.0
sI13
F1.0
sI14
F180.0
sI17
F1.0
sI18
F1.0
sI20
F1.0
sI21
F1.0
ssbsg33
g0
(g34
g2
Ntp1692
Rp1693
(dp1694
g38
I0
sbsba(ics475_types
Instance
p1695
(dp1696
g28
(ics475_types
FeatureVector
p1697
(dp1698
g31
(dp1699
I2
F19.5
sI3
F9.585
sI4
F1.0
sI5
F1.0
sI7
F1.0
sI8
F0.79
sI9
F1.0
sI13
F1.0
sI14
F80.0
sI15
F350.0
sI16
F1.0
sI20
F1.0
sI21
F1.0
sI37
F1.0
ssbsg33
g0
(g34
g2
Ntp1700
Rp1701
(dp1702
g38
I0
sbsba(ics475_types
Instance
p1703
(dp1704
g28
(ics475_types
FeatureVector
p1705
(dp1706
g31
(dp1707
I1
F1.0
sI2
F37.75
sI3
F5.5
sI4
F1.0
sI5
F1.0
sI7
F1.0
sI8
F0.125
sI12
F1.0
sI13
F1.0
sI14
F228.0
sI20
F1.0
sI33
F1.0
sI30
F1.0
ssbsg33
g0
(g34
g2
Ntp1708
Rp1709
(dp1710
g38
I1
sbsba(ics475_types
Instance
p1711
(dp1712
g28
(ics475_types
FeatureVector
p1713
(dp1714
g31
(dp1715
I2
F29.25
sI3
F13.0
sI4
F1.0
sI5
F1.0
sI8
F0.5
sI9
F1.0
sI13
F1.0
sI14
F228.0
sI16
F1.0
sI34
F1.0
sI20
F1.0
sI21
F1.0
sI27
F1.0
ssbsg33
g0
(g34
g2
Ntp1716
Rp1717
(dp1718
g38
I0
sbsba(ics475_types
Instance
p1719
(dp1720
g28
(ics475_types
FeatureVector
p1721
(dp1722
g31
(dp1723
I1
F1.0
sI2
F19.17
sI3
F8.585
sI4
F1.0
sI5
F1.0
sI33
F1.0
sI8
F0.75
sI10
F1.0
sI11
F7.0
sI13
F1.0
sI14
F96.0
sI21
F1.0
sI36
F1.0
sI27
F1.0
ssbsg33
g0
(g34
g2
Ntp1724
Rp1725
(dp1726
g38
I1
sbsba(ics475_types
Instance
p1727
(dp1728
g28
(ics475_types
FeatureVector
p1729
(dp1730
g31
(dp1731
I2
F20.75
sI3
F5.085
sI7
F1.0
sI8
F0.29
sI9
F1.0
sI13
F1.0
sI14
F140.0
sI15
F184.0
sI16
F1.0
sI17
F1.0
sI18
F1.0
sI20
F1.0
sI21
F1.0
sI28
F1.0
ssbsg33
g0
(g34
g2
Ntp1732
Rp1733
(dp1734
g38
I0
sbsba(ics475_types
Instance
p1735
(dp1736
g28
(ics475_types
FeatureVector
p1737
(dp1738
g31
(dp1739
I1
F1.0
sI2
F27.67
sI3
F1.5
sI4
F1.0
sI5
F1.0
sI7
F1.0
sI8
F2.0
sI14
F368.0
sI35
F1.0
sI20
F1.0
sI21
F1.0
sI22
F1.0
sI33
F1.0
ssbsg33
g0
(g34
g2
Ntp1740
Rp1741
(dp1742
g38
I0
sbsba(ics475_types
Instance
p1743
(dp1744
g28
(ics475_types
FeatureVector
p1745
(dp1746
g31
(dp1747
I33
F1.0
sI2
F39.08
sI3
F6.0
sI4
F1.0
sI5
F1.0
sI7
F1.0
sI8
F1.29
sI10
F1.0
sI11
F5.0
sI12
F1.0
sI13
F1.0
sI14
F108.0
sI15
F1097.0
sI16
F1.0
sI35
F1.0
ssbsg33
g0
(g34
g2
Ntp1748
Rp1749
(dp1750
g38
I1
sbsba(ics475_types
Instance
p1751
(dp1752
g28
(ics475_types
FeatureVector
p1753
(dp1754
g31
(dp1755
I33
F1.0
sI2
F52.5
sI3
F6.5
sI4
F1.0
sI5
F1.0
sI7
F1.0
sI8
F6.29
sI10
F1.0
sI11
F15.0
sI13
F1.0
sI15
F11202.0
sI16
F1.0
sI19
F1.0
sI21
F1.0
ssbsg33
g0
(g34
g2
Ntp1756
Rp1757
(dp1758
g38
I1
sbsba(ics475_types
Instance
p1759
(dp1760
g28
(ics475_types
FeatureVector
p1761
(dp1762
g31
(dp1763
I1
F1.0
sI2
F46.67
sI3
F0.46
sI4
F1.0
sI5
F1.0
sI33
F1.0
sI8
F0.415
sI10
F1.0
sI11
F11.0
sI12
F1.0
sI13
F1.0
sI14
F440.0
sI15
F6.0
sI36
F1.0
sI27
F1.0
ssbsg33
g0
(g34
g2
Ntp1764
Rp1765
(dp1766
g38
I1
sbsba(ics475_types
Instance
p1767
(dp1768
g28
(ics475_types
FeatureVector
p1769
(dp1770
g31
(dp1771
I2
F29.83
sI3
F2.04
sI39
F1.0
sI8
F0.04
sI9
F1.0
sI13
F1.0
sI14
F128.0
sI15
F1.0
sI16
F1.0
sI17
F1.0
sI18
F1.0
sI20
F1.0
sI21
F1.0
sI27
F1.0
ssbsg33
g0
(g34
g2
Ntp1772
Rp1773
(dp1774
g38
I0
sbsba(ics475_types
Instance
p1775
(dp1776
g28
(ics475_types
FeatureVector
p1777
(dp1778
g31
(dp1779
I1
F1.0
sI2
F38.25
sI3
F6.0
sI4
F1.0
sI5
F1.0
sI7
F1.0
sI8
F1.0
sI12
F1.0
sI13
F1.0
sI19
F1.0
sI20
F1.0
sI33
F1.0
ssbsg33
g0
(g34
g2
Ntp1780
Rp1781
(dp1782
g38
I1
sbsba(ics475_types
Instance
p1783
(dp1784
g28
(ics475_types
FeatureVector
p1785
(dp1786
g31
(dp1787
I1
F1.0
sI2
F34.83
sI3
F1.25
sI8
F0.5
sI9
F1.0
sI12
F1.0
sI13
F1.0
sI14
F160.0
sI17
F1.0
sI18
F1.0
sI20
F1.0
sI25
F1.0
sI27
F1.0
ssbsg33
g0
(g34
g2
Ntp1788
Rp1789
(dp1790
g38
I0
sbsba(ics475_types
Instance
p1791
(dp1792
g28
(ics475_types
FeatureVector
p1793
(dp1794
g31
(dp1795
I1
F1.0
sI2
F44.33
sI4
F1.0
sI5
F1.0
sI6
F1.0
sI7
F1.0
sI8
F2.5
sI13
F1.0
sI20
F1.0
sI21
F1.0
sI33
F1.0
ssbsg33
g0
(g34
g2
Ntp1796
Rp1797
(dp1798
g38
I1
sbsba(ics475_types
Instance
p1799
(dp1800
g28
(ics475_types
FeatureVector
p1801
(dp1802
g31
(dp1803
I33
F1.0
sI2
F26.75
sI3
F1.125
sI4
F1.0
sI5
F1.0
sI39
F1.0
sI8
F1.25
sI13
F1.0
sI15
F5298.0
sI16
F1.0
sI20
F1.0
sI21
F1.0
sI27
F1.0
ssbsg33
g0
(g34
g2
Ntp1804
Rp1805
(dp1806
g38
I1
sbsba(ics475_types
Instance
p1807
(dp1808
g28
(ics475_types
FeatureVector
p1809
(dp1810
g31
(dp1811
I33
F1.0
sI2
F23.0
sI3
F0.625
sI37
F1.0
sI7
F1.0
sI8
F0.125
sI13
F1.0
sI14
F180.0
sI15
F1.0
sI16
F1.0
sI17
F1.0
sI18
F1.0
sI20
F1.0
sI21
F1.0
ssbsg33
g0
(g34
g2
Ntp1812
Rp1813
(dp1814
g38
I0
sbsba(ics475_types
Instance
p1815
(dp1816
g28
(ics475_types
FeatureVector
p1817
(dp1818
g31
(dp1819
I32
F1.0
sI1
F1.0
sI2
F58.42
sI3
F21.0
sI4
F1.0
sI5
F1.0
sI33
F1.0
sI8
F10.0
sI10
F1.0
sI11
F13.0
sI13
F1.0
sI15
F6700.0
sI21
F1.0
sI25
F1.0
ssbsg33
g0
(g34
g2
Ntp1820
Rp1821
(dp1822
g38
I1
sbsba(ics475_types
Instance
p1823
(dp1824
g28
(ics475_types
FeatureVector
p1825
(dp1826
g31
(dp1827
I1
F1.0
sI2
F28.58
sI3
F1.665
sI4
F1.0
sI5
F1.0
sI7
F1.0
sI8
F2.415
sI12
F1.0
sI13
F1.0
sI14
F440.0
sI20
F1.0
sI33
F1.0
sI30
F1.0
ssbsg33
g0
(g34
g2
Ntp1828
Rp1829
(dp1830
g38
I0
sbsba(ics475_types
Instance
p1831
(dp1832
g28
(ics475_types
FeatureVector
p1833
(dp1834
g31
(dp1835
I2
F20.0
sI3
F7.0
sI4
F1.0
sI5
F1.0
sI6
F1.0
sI7
F1.0
sI8
F0.5
sI9
F1.0
sI13
F1.0
sI16
F1.0
sI20
F1.0
sI21
F1.0
ssbsg33
g0
(g34
g2
Ntp1836
Rp1837
(dp1838
g38
I0
sbsba(ics475_types
Instance
p1839
(dp1840
g28
(ics475_types
FeatureVector
p1841
(dp1842
g31
(dp1843
I1
F1.0
sI2
F48.17
sI3
F1.335
sI4
F1.0
sI5
F1.0
sI8
F0.335
sI9
F1.0
sI13
F1.0
sI15
F120.0
sI20
F1.0
sI21
F1.0
sI25
F1.0
sI26
F1.0
ssbsg33
g0
(g34
g2
Ntp1844
Rp1845
(dp1846
g38
I0
sbsba(ics475_types
Instance
p1847
(dp1848
g28
(ics475_types
FeatureVector
p1849
(dp1850
g31
(dp1851
I33
F1.0
sI2
F22.33
sI3
F11.0
sI4
F1.0
sI5
F1.0
sI7
F1.0
sI8
F2.0
sI10
F1.0
sI11
F1.0
sI13
F1.0
sI14
F80.0
sI15
F278.0
sI16
F1.0
sI21
F1.0
sI31
F1.0
ssbsg33
g0
(g34
g2
Ntp1852
Rp1853
(dp1854
g38
I1
sbsba(ics475_types
Instance
p1855
(dp1856
g28
(ics475_types
FeatureVector
p1857
(dp1858
g31
(dp1859
I2
F21.92
sI3
F0.5
sI4
F1.0
sI5
F1.0
sI6
F1.0
sI7
F1.0
sI8
F0.125
sI9
F1.0
sI13
F1.0
sI14
F360.0
sI16
F1.0
sI20
F1.0
sI21
F1.0
ssbsg33
g0
(g34
g2
Ntp1860
Rp1861
(dp1862
g38
I0
sbsba(ics475_types
Instance
p1863
(dp1864
g28
(ics475_types
FeatureVector
p1865
(dp1866
g31
(dp1867
I1
F1.0
sI2
F23.75
sI3
F0.71
sI4
F1.0
sI5
F1.0
sI7
F1.0
sI8
F0.25
sI9
F1.0
sI10
F1.0
sI11
F1.0
sI12
F1.0
sI13
F1.0
sI14
F240.0
sI15
F4.0
sI31
F1.0
ssbsg33
g0
(g34
g2
Ntp1868
Rp1869
(dp1870
g38
I0
sbsba(ics475_types
Instance
p1871
(dp1872
g28
(ics475_types
FeatureVector
p1873
(dp1874
g31
(dp1875
I33
F1.0
sI2
F33.17
sI3
F1.0
sI4
F1.0
sI5
F1.0
sI7
F1.0
sI8
F0.75
sI10
F1.0
sI11
F7.0
sI12
F1.0
sI13
F1.0
sI14
F340.0
sI15
F4071.0
sI16
F1.0
sI39
F1.0
ssbsg33
g0
(g34
g2
Ntp1876
Rp1877
(dp1878
g38
I1
sbsba(ics475_types
Instance
p1879
(dp1880
g28
(ics475_types
FeatureVector
p1881
(dp1882
g31
(dp1883
I1
F1.0
sI2
F27.33
sI3
F1.665
sI4
F1.0
sI5
F1.0
sI9
F1.0
sI13
F1.0
sI14
F340.0
sI15
F1.0
sI20
F1.0
sI21
F1.0
sI23
F1.0
sI24
F1.0
ssbsg33
g0
(g34
g2
Ntp1884
Rp1885
(dp1886
g38
I0
sbsba(ics475_types
Instance
p1887
(dp1888
g28
(ics475_types
FeatureVector
p1889
(dp1890
g31
(dp1891
I1
F1.0
sI2
F25.25
sI3
F13.5
sI8
F2.0
sI9
F1.0
sI10
F1.0
sI11
F1.0
sI12
F1.0
sI13
F1.0
sI14
F200.0
sI15
F1.0
sI17
F1.0
sI18
F1.0
sI23
F1.0
sI24
F1.0
ssbsg33
g0
(g34
g2
Ntp1892
Rp1893
(dp1894
g38
I0
sbsba(ics475_types
Instance
p1895
(dp1896
g28
(ics475_types
FeatureVector
p1897
(dp1898
g31
(dp1899
I2
F21.83
sI3
F1.54
sI4
F1.0
sI5
F1.0
sI7
F1.0
sI8
F0.085
sI9
F1.0
sI12
F1.0
sI13
F1.0
sI14
F356.0
sI16
F1.0
sI19
F1.0
sI20
F1.0
ssbsg33
g0
(g34
g2
Ntp1900
Rp1901
(dp1902
g38
I0
sbsba(ics475_types
Instance
p1903
(dp1904
g28
(ics475_types
FeatureVector
p1905
(dp1906
g31
(dp1907
I2
F22.08
sI3
F0.83
sI4
F1.0
sI5
F1.0
sI6
F1.0
sI8
F2.165
sI9
F1.0
sI12
F1.0
sI13
F1.0
sI14
F128.0
sI16
F1.0
sI20
F1.0
sI27
F1.0
ssbsg33
g0
(g34
g2
Ntp1908
Rp1909
(dp1910
g38
I1
sbsba(ics475_types
Instance
p1911
(dp1912
g28
(ics475_types
FeatureVector
p1913
(dp1914
g31
(dp1915
I33
F1.0
sI2
F19.33
sI3
F9.5
sI4
F1.0
sI5
F1.0
sI7
F1.0
sI8
F1.0
sI12
F1.0
sI13
F1.0
sI14
F60.0
sI15
F400.0
sI16
F1.0
sI20
F1.0
sI30
F1.0
ssbsg33
g0
(g34
g2
Ntp1916
Rp1917
(dp1918
g38
I1
sbsba(ics475_types
Instance
p1919
(dp1920
g28
(ics475_types
FeatureVector
p1921
(dp1922
g31
(dp1923
I2
F49.17
sI3
F2.29
sI4
F1.0
sI5
F1.0
sI8
F0.29
sI9
F1.0
sI13
F1.0
sI14
F200.0
sI15
F3.0
sI16
F1.0
sI20
F1.0
sI21
F1.0
sI23
F1.0
sI24
F1.0
ssbsg33
g0
(g34
g2
Ntp1924
Rp1925
(dp1926
g38
I0
sbsba(ics475_types
Instance
p1927
(dp1928
g28
(ics475_types
FeatureVector
p1929
(dp1930
g31
(dp1931
I33
F1.0
sI2
F23.08
sI3
F11.5
sI4
F1.0
sI5
F1.0
sI7
F1.0
sI8
F3.5
sI10
F1.0
sI11
F9.0
sI13
F1.0
sI14
F56.0
sI15
F742.0
sI16
F1.0
sI21
F1.0
sI25
F1.0
ssbsg33
g0
(g34
g2
Ntp1932
Rp1933
(dp1934
g38
I1
sbsba(ics475_types
Instance
p1935
(dp1936
g28
(ics475_types
FeatureVector
p1937
(dp1938
g31
(dp1939
I1
F1.0
sI2
F60.58
sI3
F16.5
sI4
F1.0
sI5
F1.0
sI7
F1.0
sI8
F11.0
sI12
F1.0
sI13
F1.0
sI14
F21.0
sI15
F10561.0
sI20
F1.0
sI33
F1.0
sI30
F1.0
ssbsg33
g0
(g34
g2
Ntp1940
Rp1941
(dp1942
g38
I1
sbsba(ics475_types
Instance
p1943
(dp1944
g28
(ics475_types
FeatureVector
p1945
(dp1946
g31
(dp1947
I33
F1.0
sI2
F19.67
sI3
F0.375
sI4
F1.0
sI5
F1.0
sI7
F1.0
sI8
F2.0
sI10
F1.0
sI11
F2.0
sI12
F1.0
sI13
F1.0
sI14
F80.0
sI16
F1.0
sI30
F1.0
ssbsg33
g0
(g34
g2
Ntp1948
Rp1949
(dp1950
g38
I1
sbsba(ics475_types
Instance
p1951
(dp1952
g28
(ics475_types
FeatureVector
p1953
(dp1954
g31
(dp1955
I33
F1.0
sI2
F20.17
sI3
F8.17
sI4
F1.0
sI5
F1.0
sI7
F1.0
sI8
F1.96
sI10
F1.0
sI11
F14.0
sI13
F1.0
sI14
F60.0
sI15
F158.0
sI16
F1.0
sI21
F1.0
sI37
F1.0
ssbsg33
g0
(g34
g2
Ntp1956
Rp1957
(dp1958
g38
I1
sbsba(ics475_types
Instance
p1959
(dp1960
g28
(ics475_types
FeatureVector
p1961
(dp1962
g31
(dp1963
I33
F1.0
sI2
F34.25
sI3
F3.0
sI4
F1.0
sI5
F1.0
sI8
F7.415
sI12
F1.0
sI13
F1.0
sI16
F1.0
sI20
F1.0
sI36
F1.0
sI27
F1.0
ssbsg33
g0
(g34
g2
Ntp1964
Rp1965
(dp1966
g38
I1
sbsba(ics475_types
Instance
p1967
(dp1968
g28
(ics475_types
FeatureVector
p1969
(dp1970
g31
(dp1971
I2
F18.17
sI3
F2.46
sI4
F1.0
sI5
F1.0
sI6
F1.0
sI8
F0.96
sI9
F1.0
sI10
F1.0
sI11
F2.0
sI12
F1.0
sI13
F1.0
sI14
F160.0
sI15
F587.0
sI16
F1.0
sI40
F1.0
ssbsg33
g0
(g34
g2
Ntp1972
Rp1973
(dp1974
g38
I0
sbsba(ics475_types
Instance
p1975
(dp1976
g28
(ics475_types
FeatureVector
p1977
(dp1978
g31
(dp1979
I33
F1.0
sI2
F27.67
sI3
F2.0
sI4
F1.0
sI5
F1.0
sI39
F1.0
sI8
F1.0
sI10
F1.0
sI11
F4.0
sI13
F1.0
sI14
F140.0
sI15
F7544.0
sI16
F1.0
sI21
F1.0
sI27
F1.0
ssbsg33
g0
(g34
g2
Ntp1980
Rp1981
(dp1982
g38
I1
sbsba(ics475_types
Instance
p1983
(dp1984
g28
(ics475_types
FeatureVector
p1985
(dp1986
g31
(dp1987
I33
F1.0
sI2
F36.33
sI3
F2.125
sI7
F1.0
sI8
F0.085
sI10
F1.0
sI11
F1.0
sI13
F1.0
sI14
F50.0
sI15
F1187.0
sI16
F1.0
sI17
F1.0
sI18
F1.0
sI21
F1.0
sI31
F1.0
ssbsg33
g0
(g34
g2
Ntp1988
Rp1989
(dp1990
g38
I1
sbsba(ics475_types
Instance
p1991
(dp1992
g28
(ics475_types
FeatureVector
p1993
(dp1994
g31
(dp1995
I2
F20.0
sI3
F1.25
sI7
F1.0
sI8
F0.125
sI9
F1.0
sI13
F1.0
sI14
F140.0
sI15
F4.0
sI16
F1.0
sI17
F1.0
sI18
F1.0
sI19
F1.0
sI20
F1.0
sI21
F1.0
ssbsg33
g0
(g34
g2
Ntp1996
Rp1997
(dp1998
g38
I0
sbsba(ics475_types
Instance
p1999
(dp2000
g28
(ics475_types
FeatureVector
p2001
(dp2002
g31
(dp2003
I1
F1.0
sI2
F22.67
sI3
F0.75
sI4
F1.0
sI5
F1.0
sI6
F1.0
sI7
F1.0
sI8
F2.0
sI9
F1.0
sI10
F1.0
sI11
F2.0
sI12
F1.0
sI13
F1.0
sI14
F200.0
sI15
F394.0
ssbsg33
g0
(g34
g2
Ntp2004
Rp2005
(dp2006
g38
I0
sbsba(ics475_types
Instance
p2007
(dp2008
g28
(ics475_types
FeatureVector
p2009
(dp2010
g31
(dp2011
I2
F21.42
sI3
F0.75
sI38
F1.0
sI8
F0.75
sI9
F1.0
sI12
F1.0
sI13
F1.0
sI14
F132.0
sI15
F2.0
sI16
F1.0
sI17
F1.0
sI18
F1.0
sI20
F1.0
sI40
F1.0
ssbsg33
g0
(g34
g2
Ntp2012
Rp2013
(dp2014
g38
I0
sbsba(ics475_types
Instance
p2015
(dp2016
g28
(ics475_types
FeatureVector
p2017
(dp2018
g31
(dp2019
I2
F18.0
sI3
F0.165
sI4
F1.0
sI5
F1.0
sI8
F0.21
sI9
F1.0
sI13
F1.0
sI14
F200.0
sI15
F40.0
sI16
F1.0
sI40
F1.0
sI20
F1.0
sI21
F1.0
sI30
F1.0
ssbsg33
g0
(g34
g2
Ntp2020
Rp2021
(dp2022
g38
I1
sbsba(ics475_types
Instance
p2023
(dp2024
g28
(ics475_types
FeatureVector
p2025
(dp2026
g31
(dp2027
I2
F23.5
sI3
F3.165
sI7
F1.0
sI8
F0.415
sI9
F1.0
sI10
F1.0
sI11
F1.0
sI12
F1.0
sI13
F1.0
sI14
F280.0
sI15
F80.0
sI16
F1.0
sI17
F1.0
sI18
F1.0
sI19
F1.0
ssbsg33
g0
(g34
g2
Ntp2028
Rp2029
(dp2030
g38
I0
sbsba(ics475_types
Instance
p2031
(dp2032
g28
(ics475_types
FeatureVector
p2033
(dp2034
g31
(dp2035
I1
F1.0
sI2
F24.75
sI3
F12.5
sI4
F1.0
sI5
F1.0
sI7
F1.0
sI8
F1.5
sI10
F1.0
sI11
F12.0
sI12
F1.0
sI13
F1.0
sI14
F120.0
sI15
F567.0
sI33
F1.0
sI37
F1.0
ssbsg33
g0
(g34
g2
Ntp2036
Rp2037
(dp2038
g38
I1
sbsba(ics475_types
Instance
p2039
(dp2040
g28
(ics475_types
FeatureVector
p2041
(dp2042
g31
(dp2043
I2
F24.08
sI3
F9.0
sI4
F1.0
sI5
F1.0
sI7
F1.0
sI8
F0.25
sI9
F1.0
sI12
F1.0
sI13
F1.0
sI16
F1.0
sI20
F1.0
sI37
F1.0
ssbsg33
g0
(g34
g2
Ntp2044
Rp2045
(dp2046
g38
I0
sbsba(ics475_types
Instance
p2047
(dp2048
g28
(ics475_types
FeatureVector
p2049
(dp2050
g31
(dp2051
I33
F1.0
sI2
F48.58
sI3
F0.205
sI7
F1.0
sI8
F0.25
sI10
F1.0
sI11
F11.0
sI13
F1.0
sI14
F380.0
sI15
F2732.0
sI16
F1.0
sI17
F1.0
sI18
F1.0
sI19
F1.0
sI21
F1.0
ssbsg33
g0
(g34
g2
Ntp2052
Rp2053
(dp2054
g38
I1
sbsba(ics475_types
Instance
p2055
(dp2056
g28
(ics475_types
FeatureVector
p2057
(dp2058
g31
(dp2059
I33
F1.0
sI2
F52.33
sI3
F1.375
sI6
F1.0
sI8
F9.46
sI12
F1.0
sI13
F1.0
sI14
F200.0
sI15
F100.0
sI16
F1.0
sI17
F1.0
sI18
F1.0
sI20
F1.0
sI27
F1.0
ssbsg33
g0
(g34
g2
Ntp2060
Rp2061
(dp2062
g38
I0
sbsba(ics475_types
Instance
p2063
(dp2064
g28
(ics475_types
FeatureVector
p2065
(dp2066
g31
(dp2067
I2
F25.67
sI3
F3.25
sI4
F1.0
sI5
F1.0
sI6
F1.0
sI8
F2.29
sI9
F1.0
sI10
F1.0
sI11
F1.0
sI12
F1.0
sI13
F1.0
sI14
F416.0
sI15
F21.0
sI16
F1.0
sI27
F1.0
ssbsg33
g0
(g34
g2
Ntp2068
Rp2069
(dp2070
g38
I0
sbsba(ics475_types
Instance
p2071
(dp2072
g28
(ics475_types
FeatureVector
p2073
(dp2074
g31
(dp2075
I1
F1.0
sI2
F21.08
sI3
F5.0
sI9
F1.0
sI13
F1.0
sI17
F1.0
sI18
F1.0
sI20
F1.0
sI21
F1.0
sI23
F1.0
sI24
F1.0
ssbsg33
g0
(g34
g2
Ntp2076
Rp2077
(dp2078
g38
I0
sbsba(ics475_types
Instance
p2079
(dp2080
g28
(ics475_types
FeatureVector
p2081
(dp2082
g31
(dp2083
I33
F1.0
sI2
F26.0
sI3
F1.0
sI4
F1.0
sI5
F1.0
sI7
F1.0
sI8
F1.75
sI12
F1.0
sI13
F1.0
sI14
F280.0
sI16
F1.0
sI20
F1.0
sI30
F1.0
ssbsg33
g0
(g34
g2
Ntp2084
Rp2085
(dp2086
g38
I1
sbsba(ics475_types
Instance
p2087
(dp2088
g28
(ics475_types
FeatureVector
p2089
(dp2090
g31
(dp2091
I2
F69.17
sI3
F9.0
sI4
F1.0
sI5
F1.0
sI8
F4.0
sI9
F1.0
sI10
F1.0
sI11
F1.0
sI13
F1.0
sI14
F70.0
sI15
F6.0
sI16
F1.0
sI21
F1.0
sI23
F1.0
sI24
F1.0
ssbsg33
g0
(g34
g2
Ntp2092
Rp2093
(dp2094
g38
I0
sbsba(ics475_types
Instance
p2095
(dp2096
g28
(ics475_types
FeatureVector
p2097
(dp2098
g31
(dp2099
I33
F1.0
sI2
F20.17
sI3
F5.625
sI4
F1.0
sI5
F1.0
sI7
F1.0
sI8
F1.71
sI14
F120.0
sI16
F1.0
sI20
F1.0
sI21
F1.0
sI22
F1.0
sI31
F1.0
ssbsg33
g0
(g34
g2
Ntp2100
Rp2101
(dp2102
g38
I1
sbsba(ics475_types
Instance
p2103
(dp2104
g28
(ics475_types
FeatureVector
p2105
(dp2106
g31
(dp2107
I33
F1.0
sI2
F25.67
sI3
F12.5
sI4
F1.0
sI5
F1.0
sI7
F1.0
sI8
F1.21
sI10
F1.0
sI11
F67.0
sI12
F1.0
sI13
F1.0
sI14
F140.0
sI15
F258.0
sI16
F1.0
sI36
F1.0
ssbsg33
g0
(g34
g2
Ntp2108
Rp2109
(dp2110
g38
I1
sbsba(ics475_types
Instance
p2111
(dp2112
g28
(ics475_types
FeatureVector
p2113
(dp2114
g31
(dp2115
I1
F1.0
sI2
F20.33
sI3
F10.0
sI4
F1.0
sI5
F1.0
sI6
F1.0
sI33
F1.0
sI8
F1.0
sI10
F1.0
sI11
F4.0
sI13
F1.0
sI14
F50.0
sI15
F1465.0
sI21
F1.0
sI27
F1.0
ssbsg33
g0
(g34
g2
Ntp2116
Rp2117
(dp2118
g38
I1
sbsba(ics475_types
Instance
p2119
(dp2120
g28
(ics475_types
FeatureVector
p2121
(dp2122
g31
(dp2123
I2
F74.83
sI3
F19.0
sI8
F0.04
sI9
F1.0
sI10
F1.0
sI11
F2.0
sI13
F1.0
sI15
F351.0
sI16
F1.0
sI17
F1.0
sI18
F1.0
sI21
F1.0
sI23
F1.0
sI24
F1.0
ssbsg33
g0
(g34
g2
Ntp2124
Rp2125
(dp2126
g38
I0
sbsba(ics475_types
Instance
p2127
(dp2128
g28
(ics475_types
FeatureVector
p2129
(dp2130
g31
(dp2131
I32
F1.0
sI33
F1.0
sI2
F32.33
sI3
F7.5
sI4
F1.0
sI5
F1.0
sI8
F1.585
sI41
F1.0
sI12
F1.0
sI14
F420.0
sI16
F1.0
sI20
F1.0
sI22
F1.0
ssbsg33
g0
(g34
g2
Ntp2132
Rp2133
(dp2134
g38
I0
sbsba(ics475_types
Instance
p2135
(dp2136
g28
(ics475_types
FeatureVector
p2137
(dp2138
g31
(dp2139
I2
F35.17
sI3
F4.5
sI4
F1.0
sI5
F1.0
sI39
F1.0
sI8
F5.75
sI9
F1.0
sI12
F1.0
sI14
F711.0
sI16
F1.0
sI20
F1.0
sI22
F1.0
sI27
F1.0
ssbsg33
g0
(g34
g2
Ntp2140
Rp2141
(dp2142
g38
I1
sbsba(ics475_types
Instance
p2143
(dp2144
g28
(ics475_types
FeatureVector
p2145
(dp2146
g31
(dp2147
I33
F1.0
sI2
F27.83
sI3
F1.5
sI4
F1.0
sI5
F1.0
sI7
F1.0
sI8
F2.0
sI10
F1.0
sI11
F11.0
sI12
F1.0
sI13
F1.0
sI14
F434.0
sI15
F35.0
sI16
F1.0
sI31
F1.0
ssbsg33
g0
(g34
g2
Ntp2148
Rp2149
(dp2150
g38
I1
sbsba(ics475_types
Instance
p2151
(dp2152
g28
(ics475_types
FeatureVector
p2153
(dp2154
g31
(dp2155
I2
F42.83
sI3
F1.25
sI4
F1.0
sI5
F1.0
sI7
F1.0
sI8
F13.875
sI9
F1.0
sI10
F1.0
sI11
F1.0
sI12
F1.0
sI13
F1.0
sI14
F352.0
sI15
F112.0
sI16
F1.0
sI35
F1.0
ssbsg33
g0
(g34
g2
Ntp2156
Rp2157
(dp2158
g38
I0
sbsba(ics475_types
Instance
p2159
(dp2160
g28
(ics475_types
FeatureVector
p2161
(dp2162
g31
(dp2163
I1
F1.0
sI2
F56.5
sI3
F16.0
sI4
F1.0
sI5
F1.0
sI33
F1.0
sI10
F1.0
sI11
F15.0
sI13
F1.0
sI15
F247.0
sI21
F1.0
sI24
F1.0
sI28
F1.0
ssbsg33
g0
(g34
g2
Ntp2164
Rp2165
(dp2166
g38
I1
sbsba(ics475_types
Instance
p2167
(dp2168
g28
(ics475_types
FeatureVector
p2169
(dp2170
g31
(dp2171
I2
F26.75
sI3
F2.0
sI4
F1.0
sI5
F1.0
sI7
F1.0
sI8
F0.75
sI9
F1.0
sI12
F1.0
sI13
F1.0
sI14
F80.0
sI16
F1.0
sI34
F1.0
sI20
F1.0
ssbsg33
g0
(g34
g2
Ntp2172
Rp2173
(dp2174
g38
I0
sbsba(ics475_types
Instance
p2175
(dp2176
g28
(ics475_types
FeatureVector
p2177
(dp2178
g31
(dp2179
I2
F33.67
sI3
F1.25
sI4
F1.0
sI5
F1.0
sI7
F1.0
sI8
F1.165
sI9
F1.0
sI13
F1.0
sI14
F120.0
sI16
F1.0
sI20
F1.0
sI21
F1.0
sI31
F1.0
ssbsg33
g0
(g34
g2
Ntp2180
Rp2181
(dp2182
g38
I0
sbsba(ics475_types
Instance
p2183
(dp2184
g28
(ics475_types
FeatureVector
p2185
(dp2186
g31
(dp2187
I1
F1.0
sI2
F57.58
sI3
F2.0
sI4
F1.0
sI5
F1.0
sI8
F6.5
sI9
F1.0
sI10
F1.0
sI11
F1.0
sI13
F1.0
sI15
F10.0
sI21
F1.0
sI23
F1.0
sI24
F1.0
ssbsg33
g0
(g34
g2
Ntp2188
Rp2189
(dp2190
g38
I0
sbsba(ics475_types
Instance
p2191
(dp2192
g28
(ics475_types
FeatureVector
p2193
(dp2194
g31
(dp2195
I1
F1.0
sI2
F16.0
sI3
F0.165
sI4
F1.0
sI5
F1.0
sI7
F1.0
sI8
F1.0
sI9
F1.0
sI10
F1.0
sI11
F2.0
sI12
F1.0
sI13
F1.0
sI14
F320.0
sI15
F1.0
sI37
F1.0
ssbsg33
g0
(g34
g2
Ntp2196
Rp2197
(dp2198
g38
I0
sbsba(ics475_types
Instance
p2199
(dp2200
g28
(ics475_types
FeatureVector
p2201
(dp2202
g31
(dp2203
I32
F1.0
sI2
F48.08
sI3
F3.75
sI4
F1.0
sI5
F1.0
sI8
F1.0
sI9
F1.0
sI13
F1.0
sI14
F100.0
sI15
F2.0
sI16
F1.0
sI20
F1.0
sI21
F1.0
sI25
F1.0
ssbsg33
g0
(g34
g2
Ntp2204
Rp2205
(dp2206
g38
I0
sbsba(ics475_types
Instance
p2207
(dp2208
g28
(ics475_types
FeatureVector
p2209
(dp2210
g31
(dp2211
I33
F1.0
sI2
F25.08
sI3
F1.71
sI4
F1.0
sI5
F1.0
sI7
F1.0
sI8
F1.665
sI10
F1.0
sI11
F1.0
sI12
F1.0
sI13
F1.0
sI14
F395.0
sI15
F20.0
sI16
F1.0
sI39
F1.0
ssbsg33
g0
(g34
g2
Ntp2212
Rp2213
(dp2214
g38
I1
sbsba(ics475_types
Instance
p2215
(dp2216
g28
(ics475_types
FeatureVector
p2217
(dp2218
g31
(dp2219
I1
F1.0
sI2
F19.17
sI3
F0.585
sI33
F1.0
sI7
F1.0
sI8
F0.585
sI12
F1.0
sI13
F1.0
sI14
F160.0
sI17
F1.0
sI18
F1.0
sI20
F1.0
sI37
F1.0
ssbsg33
g0
(g34
g2
Ntp2220
Rp2221
(dp2222
g38
I0
sbsba(ics475_types
Instance
p2223
(dp2224
g28
(ics475_types
FeatureVector
p2225
(dp2226
g31
(dp2227
I1
F1.0
sI2
F19.67
sI3
F0.21
sI4
F1.0
sI5
F1.0
sI33
F1.0
sI8
F0.29
sI10
F1.0
sI11
F11.0
sI13
F1.0
sI14
F80.0
sI15
F99.0
sI21
F1.0
sI27
F1.0
sI30
F1.0
ssbsg33
g0
(g34
g2
Ntp2228
Rp2229
(dp2230
g38
I1
sbsba(ics475_types
Instance
p2231
(dp2232
g28
(ics475_types
FeatureVector
p2233
(dp2234
g31
(dp2235
I33
F1.0
sI2
F56.42
sI3
F28.0
sI6
F1.0
sI7
F1.0
sI8
F28.5
sI10
F1.0
sI11
F40.0
sI13
F1.0
sI15
F15.0
sI16
F1.0
sI17
F1.0
sI18
F1.0
sI21
F1.0
ssbsg33
g0
(g34
g2
Ntp2236
Rp2237
(dp2238
g38
I1
sbsba(ics475_types
Instance
p2239
(dp2240
g28
(ics475_types
FeatureVector
p2241
(dp2242
g31
(dp2243
I33
F1.0
sI2
F28.75
sI3
F1.165
sI4
F1.0
sI5
F1.0
sI7
F1.0
sI8
F0.5
sI14
F280.0
sI16
F1.0
sI19
F1.0
sI20
F1.0
sI21
F1.0
sI22
F1.0
ssbsg33
g0
(g34
g2
Ntp2244
Rp2245
(dp2246
g38
I0
sbsba(ics475_types
Instance
p2247
(dp2248
g28
(ics475_types
FeatureVector
p2249
(dp2250
g31
(dp2251
I2
F36.5
sI3
F4.25
sI4
F1.0
sI5
F1.0
sI7
F1.0
sI8
F3.5
sI9
F1.0
sI13
F1.0
sI14
F454.0
sI15
F50.0
sI16
F1.0
sI20
F1.0
sI21
F1.0
sI30
F1.0
ssbsg33
g0
(g34
g2
Ntp2252
Rp2253
(dp2254
g38
I0
sbsba(ics475_types
Instance
p2255
(dp2256
g28
(ics475_types
FeatureVector
p2257
(dp2258
g31
(dp2259
I33
F1.0
sI2
F24.42
sI3
F12.335
sI4
F1.0
sI5
F1.0
sI8
F1.585
sI12
F1.0
sI13
F1.0
sI14
F120.0
sI16
F1.0
sI20
F1.0
sI27
F1.0
sI30
F1.0
ssbsg33
g0
(g34
g2
Ntp2260
Rp2261
(dp2262
g38
I1
sbsba(ics475_types
Instance
p2263
(dp2264
g28
(ics475_types
FeatureVector
p2265
(dp2266
g31
(dp2267
I2
F62.75
sI3
F7.0
sI4
F1.0
sI5
F1.0
sI9
F1.0
sI42
F1.0
sI13
F1.0
sI15
F12.0
sI16
F1.0
sI20
F1.0
sI21
F1.0
sI41
F1.0
ssbsg33
g0
(g34
g2
Ntp2268
Rp2269
(dp2270
g38
I0
sbsba(ics475_types
Instance
p2271
(dp2272
g28
(ics475_types
FeatureVector
p2273
(dp2274
g31
(dp2275
I1
F1.0
sI2
F15.83
sI3
F7.625
sI4
F1.0
sI5
F1.0
sI7
F1.0
sI8
F0.125
sI9
F1.0
sI10
F1.0
sI11
F1.0
sI12
F1.0
sI13
F1.0
sI15
F160.0
sI30
F1.0
ssbsg33
g0
(g34
g2
Ntp2276
Rp2277
(dp2278
g38
I0
sbsba(ics475_types
Instance
p2279
(dp2280
g28
(ics475_types
FeatureVector
p2281
(dp2282
g31
(dp2283
I32
F1.0
sI1
F1.0
sI2
F51.92
sI3
F6.5
sI4
F1.0
sI5
F1.0
sI8
F3.085
sI9
F1.0
sI12
F1.0
sI13
F1.0
sI14
F73.0
sI20
F1.0
sI25
F1.0
ssbsg33
g0
(g34
g2
Ntp2284
Rp2285
(dp2286
g38
I0
sbsba(ics475_types
Instance
p2287
(dp2288
g28
(ics475_types
FeatureVector
p2289
(dp2290
g31
(dp2291
I1
F1.0
sI2
F26.58
sI3
F2.54
sI9
F1.0
sI12
F1.0
sI13
F1.0
sI14
F180.0
sI15
F60.0
sI17
F1.0
sI18
F1.0
sI20
F1.0
sI23
F1.0
sI24
F1.0
ssbsg33
g0
(g34
g2
Ntp2292
Rp2293
(dp2294
g38
I0
sbsba(ics475_types
Instance
p2295
(dp2296
g28
(ics475_types
FeatureVector
p2297
(dp2298
g31
(dp2299
I33
F1.0
sI2
F44.33
sI3
F0.5
sI4
F1.0
sI5
F1.0
sI8
F5.0
sI12
F1.0
sI13
F1.0
sI14
F320.0
sI16
F1.0
sI20
F1.0
sI25
F1.0
sI27
F1.0
ssbsg33
g0
(g34
g2
Ntp2300
Rp2301
(dp2302
g38
I1
sbsba(ics475_types
Instance
p2303
(dp2304
g28
(ics475_types
FeatureVector
p2305
(dp2306
g31
(dp2307
I1
F1.0
sI2
F29.5
sI3
F1.085
sI7
F1.0
sI8
F1.0
sI9
F1.0
sI39
F1.0
sI13
F1.0
sI14
F280.0
sI15
F13.0
sI17
F1.0
sI18
F1.0
sI20
F1.0
sI21
F1.0
ssbsg33
g0
(g34
g2
Ntp2308
Rp2309
(dp2310
g38
I0
sbsba(ics475_types
Instance
p2311
(dp2312
g28
(ics475_types
FeatureVector
p2313
(dp2314
g31
(dp2315
I2
F20.67
sI3
F0.835
sI6
F1.0
sI7
F1.0
sI8
F2.0
sI9
F1.0
sI12
F1.0
sI14
F240.0
sI16
F1.0
sI17
F1.0
sI18
F1.0
sI20
F1.0
sI22
F1.0
ssbsg33
g0
(g34
g2
Ntp2316
Rp2317
(dp2318
g38
I0
sbsba(ics475_types
Instance
p2319
(dp2320
g28
(ics475_types
FeatureVector
p2321
(dp2322
g31
(dp2323
I32
F1.0
sI33
F1.0
sI2
F42.75
sI3
F3.0
sI4
F1.0
sI5
F1.0
sI8
F1.0
sI13
F1.0
sI15
F200.0
sI16
F1.0
sI20
F1.0
sI21
F1.0
sI25
F1.0
ssbsg33
g0
(g34
g2
Ntp2324
Rp2325
(dp2326
g38
I0
sbsba(ics475_types
Instance
p2327
(dp2328
g28
(ics475_types
FeatureVector
p2329
(dp2330
g31
(dp2331
I33
F1.0
sI2
F24.17
sI3
F0.875
sI4
F1.0
sI5
F1.0
sI7
F1.0
sI8
F4.625
sI10
F1.0
sI11
F2.0
sI12
F1.0
sI13
F1.0
sI14
F520.0
sI15
F2000.0
sI16
F1.0
sI30
F1.0
ssbsg33
g0
(g34
g2
Ntp2332
Rp2333
(dp2334
g38
I1
sbsba(ics475_types
Instance
p2335
(dp2336
g28
(ics475_types
FeatureVector
p2337
(dp2338
g31
(dp2339
I33
F1.0
sI2
F60.08
sI3
F14.5
sI4
F1.0
sI5
F1.0
sI8
F18.0
sI10
F1.0
sI11
F15.0
sI12
F1.0
sI13
F1.0
sI15
F1000.0
sI16
F1.0
sI23
F1.0
sI24
F1.0
ssbsg33
g0
(g34
g2
Ntp2340
Rp2341
(dp2342
g38
I1
sbsba(ics475_types
Instance
p2343
(dp2344
g28
(ics475_types
FeatureVector
p2345
(dp2346
g31
(dp2347
I33
F1.0
sI2
F34.08
sI3
F6.5
sI4
F1.0
sI5
F1.0
sI7
F1.0
sI8
F0.125
sI12
F1.0
sI13
F1.0
sI14
F443.0
sI16
F1.0
sI20
F1.0
sI37
F1.0
ssbsg33
g0
(g34
g2
Ntp2348
Rp2349
(dp2350
g38
I0
sbsba(ics475_types
Instance
p2351
(dp2352
g28
(ics475_types
FeatureVector
p2353
(dp2354
g31
(dp2355
I32
F1.0
sI2
F34.0
sI3
F5.085
sI8
F1.085
sI9
F1.0
sI12
F1.0
sI13
F1.0
sI14
F480.0
sI16
F1.0
sI17
F1.0
sI18
F1.0
sI20
F1.0
sI25
F1.0
ssbsg33
g0
(g34
g2
Ntp2356
Rp2357
(dp2358
g38
I0
sbsba(ics475_types
Instance
p2359
(dp2360
g28
(ics475_types
FeatureVector
p2361
(dp2362
g31
(dp2363
I33
F1.0
sI2
F41.75
sI3
F0.96
sI4
F1.0
sI5
F1.0
sI7
F1.0
sI8
F2.5
sI39
F1.0
sI13
F1.0
sI14
F510.0
sI15
F600.0
sI16
F1.0
sI20
F1.0
sI21
F1.0
ssbsg33
g0
(g34
g2
Ntp2364
Rp2365
(dp2366
g38
I1
sbsba(ics475_types
Instance
p2367
(dp2368
g28
(ics475_types
FeatureVector
p2369
(dp2370
g31
(dp2371
I33
F1.0
sI2
F19.42
sI3
F6.5
sI4
F1.0
sI5
F1.0
sI8
F1.46
sI10
F1.0
sI11
F7.0
sI13
F1.0
sI14
F80.0
sI15
F2954.0
sI16
F1.0
sI21
F1.0
sI27
F1.0
sI31
F1.0
ssbsg33
g0
(g34
g2
Ntp2372
Rp2373
(dp2374
g38
I1
sbsba(ics475_types
Instance
p2375
(dp2376
g28
(ics475_types
FeatureVector
p2377
(dp2378
g31
(dp2379
I1
F1.0
sI2
F25.33
sI3
F2.085
sI4
F1.0
sI5
F1.0
sI6
F1.0
sI33
F1.0
sI8
F2.75
sI12
F1.0
sI13
F1.0
sI14
F360.0
sI15
F1.0
sI20
F1.0
sI27
F1.0
ssbsg33
g0
(g34
g2
Ntp2380
Rp2381
(dp2382
g38
I0
sbsba(ics475_types
Instance
p2383
(dp2384
g28
(ics475_types
FeatureVector
p2385
(dp2386
g31
(dp2387
I33
F1.0
sI2
F30.17
sI3
F0.5
sI4
F1.0
sI5
F1.0
sI6
F1.0
sI7
F1.0
sI8
F1.75
sI10
F1.0
sI11
F11.0
sI13
F1.0
sI14
F32.0
sI15
F540.0
sI16
F1.0
sI21
F1.0
ssbsg33
g0
(g34
g2
Ntp2388
Rp2389
(dp2390
g38
I1
sbsba(ics475_types
Instance
p2391
(dp2392
g28
(ics475_types
FeatureVector
p2393
(dp2394
g31
(dp2395
I2
F32.92
sI3
F2.5
sI4
F1.0
sI5
F1.0
sI7
F1.0
sI8
F1.75
sI9
F1.0
sI10
F1.0
sI11
F2.0
sI12
F1.0
sI13
F1.0
sI14
F720.0
sI16
F1.0
sI37
F1.0
ssbsg33
g0
(g34
g2
Ntp2396
Rp2397
(dp2398
g38
I0
sbsba(ics475_types
Instance
p2399
(dp2400
g28
(ics475_types
FeatureVector
p2401
(dp2402
g31
(dp2403
I2
F34.0
sI3
F5.5
sI6
F1.0
sI7
F1.0
sI8
F1.5
sI9
F1.0
sI12
F1.0
sI13
F1.0
sI14
F60.0
sI16
F1.0
sI17
F1.0
sI18
F1.0
sI20
F1.0
ssbsg33
g0
(g34
g2
Ntp2404
Rp2405
(dp2406
g38
I0
sbsba(ics475_types
Instance
p2407
(dp2408
g28
(ics475_types
FeatureVector
p2409
(dp2410
g31
(dp2411
I33
F1.0
sI2
F45.0
sI3
F8.5
sI4
F1.0
sI5
F1.0
sI8
F14.0
sI10
F1.0
sI11
F1.0
sI12
F1.0
sI13
F1.0
sI14
F88.0
sI15
F2000.0
sI16
F1.0
sI36
F1.0
sI27
F1.0
ssbsg33
g0
(g34
g2
Ntp2412
Rp2413
(dp2414
g38
I1
sbsba(ics475_types
Instance
p2415
(dp2416
g28
(ics475_types
FeatureVector
p2417
(dp2418
g31
(dp2419
I2
F17.5
sI3
F22.0
sI9
F1.0
sI12
F1.0
sI45
F1.0
sI14
F450.0
sI15
F100000.0
sI16
F1.0
sI20
F1.0
sI46
F1.0
sI23
F1.0
sI26
F1.0
sI44
F1.0
ssbsg33
g0
(g34
g2
Ntp2420
Rp2421
(dp2422
g38
I1
sbsba(ics475_types
Instance
p2423
(dp2424
g28
(ics475_types
FeatureVector
p2425
(dp2426
g31
(dp2427
I1
F1.0
sI2
F23.5
sI3
F9.0
sI4
F1.0
sI5
F1.0
sI7
F1.0
sI8
F8.5
sI10
F1.0
sI11
F5.0
sI12
F1.0
sI13
F1.0
sI14
F120.0
sI33
F1.0
sI30
F1.0
ssbsg33
g0
(g34
g2
Ntp2428
Rp2429
(dp2430
g38
I1
sbsba(ics475_types
Instance
p2431
(dp2432
g28
(ics475_types
FeatureVector
p2433
(dp2434
g31
(dp2435
I1
F1.0
sI2
F22.42
sI3
F5.665
sI4
F1.0
sI5
F1.0
sI7
F1.0
sI8
F2.585
sI10
F1.0
sI11
F7.0
sI13
F1.0
sI14
F129.0
sI15
F3257.0
sI21
F1.0
sI33
F1.0
sI30
F1.0
ssbsg33
g0
(g34
g2
Ntp2436
Rp2437
(dp2438
g38
I1
sbsba(ics475_types
Instance
p2439
(dp2440
g28
(ics475_types
FeatureVector
p2441
(dp2442
g31
(dp2443
I2
F41.0
sI3
F0.04
sI4
F1.0
sI5
F1.0
sI7
F1.0
sI8
F0.04
sI9
F1.0
sI10
F1.0
sI11
F1.0
sI14
F560.0
sI16
F1.0
sI21
F1.0
sI22
F1.0
sI41
F1.0
ssbsg33
g0
(g34
g2
Ntp2444
Rp2445
(dp2446
g38
I1
sbsba(ics475_types
Instance
p2447
(dp2448
g28
(ics475_types
FeatureVector
p2449
(dp2450
g31
(dp2451
I33
F1.0
sI2
F41.17
sI3
F4.04
sI4
F1.0
sI5
F1.0
sI8
F7.0
sI10
F1.0
sI11
F8.0
sI13
F1.0
sI14
F320.0
sI16
F1.0
sI21
F1.0
sI36
F1.0
sI27
F1.0
ssbsg33
g0
(g34
g2
Ntp2452
Rp2453
(dp2454
g38
I1
sbsba(ics475_types
Instance
p2455
(dp2456
g28
(ics475_types
FeatureVector
p2457
(dp2458
g31
(dp2459
I1
F1.0
sI2
F24.75
sI3
F13.665
sI4
F1.0
sI5
F1.0
sI8
F1.5
sI9
F1.0
sI13
F1.0
sI14
F280.0
sI15
F1.0
sI20
F1.0
sI21
F1.0
sI27
F1.0
sI30
F1.0
ssbsg33
g0
(g34
g2
Ntp2460
Rp2461
(dp2462
g38
I0
sbsba(ics475_types
Instance
p2463
(dp2464
g28
(ics475_types
FeatureVector
p2465
(dp2466
g31
(dp2467
I33
F1.0
sI2
F41.42
sI3
F5.0
sI4
F1.0
sI5
F1.0
sI8
F5.0
sI10
F1.0
sI11
F6.0
sI12
F1.0
sI13
F1.0
sI14
F470.0
sI16
F1.0
sI27
F1.0
sI30
F1.0
ssbsg33
g0
(g34
g2
Ntp2468
Rp2469
(dp2470
g38
I1
sbsba(ics475_types
Instance
p2471
(dp2472
g28
(ics475_types
FeatureVector
p2473
(dp2474
g31
(dp2475
I33
F1.0
sI2
F48.17
sI3
F3.5
sI4
F1.0
sI5
F1.0
sI7
F1.0
sI8
F3.5
sI14
F230.0
sI16
F1.0
sI20
F1.0
sI21
F1.0
sI22
F1.0
sI37
F1.0
ssbsg33
g0
(g34
g2
Ntp2476
Rp2477
(dp2478
g38
I1
sbsba(ics475_types
Instance
p2479
(dp2480
g28
(ics475_types
FeatureVector
p2481
(dp2482
g31
(dp2483
I32
F1.0
sI2
F36.17
sI3
F5.5
sI4
F1.0
sI5
F1.0
sI8
F5.0
sI9
F1.0
sI13
F1.0
sI14
F210.0
sI15
F687.0
sI16
F1.0
sI20
F1.0
sI21
F1.0
sI25
F1.0
ssbsg33
g0
(g34
g2
Ntp2484
Rp2485
(dp2486
g38
I0
sbsba(ics475_types
Instance
p2487
(dp2488
g28
(ics475_types
FeatureVector
p2489
(dp2490
g31
(dp2491
I2
F24.58
sI3
F1.25
sI4
F1.0
sI5
F1.0
sI6
F1.0
sI7
F1.0
sI8
F0.25
sI9
F1.0
sI13
F1.0
sI14
F110.0
sI16
F1.0
sI20
F1.0
sI21
F1.0
ssbsg33
g0
(g34
g2
Ntp2492
Rp2493
(dp2494
g38
I0
sbsba(ics475_types
Instance
p2495
(dp2496
g28
(ics475_types
FeatureVector
p2497
(dp2498
g31
(dp2499
I1
F1.0
sI2
F52.17
sI9
F1.0
sI13
F1.0
sI17
F1.0
sI18
F1.0
sI20
F1.0
sI21
F1.0
sI23
F1.0
sI24
F1.0
ssbsg33
g0
(g34
g2
Ntp2500
Rp2501
(dp2502
g38
I0
sbsba(ics475_types
Instance
p2503
(dp2504
g28
(ics475_types
FeatureVector
p2505
(dp2506
g31
(dp2507
I1
F1.0
sI2
F18.25
sI3
F10.0
sI4
F1.0
sI5
F1.0
sI7
F1.0
sI8
F1.0
sI9
F1.0
sI10
F1.0
sI11
F1.0
sI13
F1.0
sI14
F120.0
sI15
F1.0
sI21
F1.0
sI31
F1.0
ssbsg33
g0
(g34
g2
Ntp2508
Rp2509
(dp2510
g38
I0
sbsba(ics475_types
Instance
p2511
(dp2512
g28
(ics475_types
FeatureVector
p2513
(dp2514
g31
(dp2515
I33
F1.0
sI2
F54.58
sI3
F9.415
sI4
F1.0
sI5
F1.0
sI8
F14.415
sI10
F1.0
sI11
F11.0
sI12
F1.0
sI13
F1.0
sI14
F30.0
sI15
F300.0
sI16
F1.0
sI23
F1.0
sI24
F1.0
ssbsg33
g0
(g34
g2
Ntp2516
Rp2517
(dp2518
g38
I1
sbsba(ics475_types
Instance
p2519
(dp2520
g28
(ics475_types
FeatureVector
p2521
(dp2522
g31
(dp2523
I2
F17.67
sI3
F4.46
sI4
F1.0
sI5
F1.0
sI6
F1.0
sI7
F1.0
sI8
F0.25
sI9
F1.0
sI14
F80.0
sI16
F1.0
sI20
F1.0
sI21
F1.0
sI22
F1.0
ssbsg33
g0
(g34
g2
Ntp2524
Rp2525
(dp2526
g38
I0
sbsba(ics475_types
Instance
p2527
(dp2528
g28
(ics475_types
FeatureVector
p2529
(dp2530
g31
(dp2531
I33
F1.0
sI2
F27.0
sI3
F0.75
sI4
F1.0
sI5
F1.0
sI6
F1.0
sI8
F4.25
sI10
F1.0
sI11
F3.0
sI12
F1.0
sI13
F1.0
sI14
F312.0
sI15
F150.0
sI16
F1.0
sI27
F1.0
ssbsg33
g0
(g34
g2
Ntp2532
Rp2533
(dp2534
g38
I1
sbsba(ics475_types
Instance
p2535
(dp2536
g28
(ics475_types
FeatureVector
p2537
(dp2538
g31
(dp2539
I33
F1.0
sI2
F59.5
sI3
F2.75
sI4
F1.0
sI5
F1.0
sI7
F1.0
sI8
F1.75
sI10
F1.0
sI11
F5.0
sI12
F1.0
sI13
F1.0
sI14
F60.0
sI15
F58.0
sI16
F1.0
sI31
F1.0
ssbsg33
g0
(g34
g2
Ntp2540
Rp2541
(dp2542
g38
I1
sbsba(ics475_types
Instance
p2543
(dp2544
g28
(ics475_types
FeatureVector
p2545
(dp2546
g31
(dp2547
I33
F1.0
sI2
F48.17
sI3
F7.625
sI4
F1.0
sI5
F1.0
sI8
F15.5
sI10
F1.0
sI11
F12.0
sI13
F1.0
sI15
F790.0
sI16
F1.0
sI21
F1.0
sI27
F1.0
sI31
F1.0
ssbsg33
g0
(g34
g2
Ntp2548
Rp2549
(dp2550
g38
I1
sbsba(ics475_types
Instance
p2551
(dp2552
g28
(ics475_types
FeatureVector
p2553
(dp2554
g31
(dp2555
I1
F1.0
sI2
F15.75
sI3
F0.375
sI4
F1.0
sI5
F1.0
sI6
F1.0
sI7
F1.0
sI8
F1.0
sI9
F1.0
sI13
F1.0
sI14
F120.0
sI15
F18.0
sI20
F1.0
sI21
F1.0
ssbsg33
g0
(g34
g2
Ntp2556
Rp2557
(dp2558
g38
I0
sbsba(ics475_types
Instance
p2559
(dp2560
g28
(ics475_types
FeatureVector
p2561
(dp2562
g31
(dp2563
I33
F1.0
sI2
F30.83
sI4
F1.0
sI5
F1.0
sI7
F1.0
sI8
F1.25
sI10
F1.0
sI11
F1.0
sI13
F1.0
sI14
F202.0
sI16
F1.0
sI21
F1.0
sI31
F1.0
ssbsg33
g0
(g34
g2
Ntp2564
Rp2565
(dp2566
g38
I1
sbsba(ics475_types
Instance
p2567
(dp2568
g28
(ics475_types
FeatureVector
p2569
(dp2570
g31
(dp2571
I2
F21.17
sI4
F1.0
sI5
F1.0
sI6
F1.0
sI7
F1.0
sI8
F0.5
sI9
F1.0
sI12
F1.0
sI16
F1.0
sI20
F1.0
sI22
F1.0
ssbsg33
g0
(g34
g2
Ntp2572
Rp2573
(dp2574
g38
I0
sbsba(ics475_types
Instance
p2575
(dp2576
g28
(ics475_types
FeatureVector
p2577
(dp2578
g31
(dp2579
I33
F1.0
sI2
F28.67
sI3
F9.335
sI4
F1.0
sI5
F1.0
sI8
F5.665
sI10
F1.0
sI11
F6.0
sI13
F1.0
sI14
F381.0
sI15
F168.0
sI16
F1.0
sI21
F1.0
sI27
F1.0
sI30
F1.0
ssbsg33
g0
(g34
g2
Ntp2580
Rp2581
(dp2582
g38
I1
sbsba(ics475_types
Instance
p2583
(dp2584
g28
(ics475_types
FeatureVector
p2585
(dp2586
g31
(dp2587
I2
F22.17
sI3
F2.25
sI4
F1.0
sI5
F1.0
sI7
F1.0
sI8
F0.125
sI9
F1.0
sI13
F1.0
sI14
F160.0
sI15
F10.0
sI16
F1.0
sI20
F1.0
sI21
F1.0
sI25
F1.0
ssbsg33
g0
(g34
g2
Ntp2588
Rp2589
(dp2590
g38
I0
sbsba(ics475_types
Instance
p2591
(dp2592
g28
(ics475_types
FeatureVector
p2593
(dp2594
g31
(dp2595
I33
F1.0
sI2
F44.0
sI3
F2.0
sI4
F1.0
sI5
F1.0
sI7
F1.0
sI8
F1.75
sI10
F1.0
sI11
F2.0
sI12
F1.0
sI13
F1.0
sI15
F15.0
sI16
F1.0
sI35
F1.0
ssbsg33
g0
(g34
g2
Ntp2596
Rp2597
(dp2598
g38
I1
sbsba(ics475_types
Instance
p2599
(dp2600
g28
(ics475_types
FeatureVector
p2601
(dp2602
g31
(dp2603
I1
F1.0
sI2
F33.67
sI3
F0.375
sI4
F1.0
sI5
F1.0
sI7
F1.0
sI8
F0.375
sI9
F1.0
sI13
F1.0
sI14
F300.0
sI15
F44.0
sI20
F1.0
sI21
F1.0
sI36
F1.0
ssbsg33
g0
(g34
g2
Ntp2604
Rp2605
(dp2606
g38
I1
sbsba(ics475_types
Instance
p2607
(dp2608
g28
(ics475_types
FeatureVector
p2609
(dp2610
g31
(dp2611
I1
F1.0
sI2
F56.83
sI3
F4.25
sI8
F5.0
sI9
F1.0
sI12
F1.0
sI13
F1.0
sI15
F4.0
sI17
F1.0
sI18
F1.0
sI20
F1.0
sI23
F1.0
sI24
F1.0
ssbsg33
g0
(g34
g2
Ntp2612
Rp2613
(dp2614
g38
I0
sbsba(ics475_types
Instance
p2615
(dp2616
g28
(ics475_types
FeatureVector
p2617
(dp2618
g31
(dp2619
I33
F1.0
sI2
F31.67
sI3
F0.83
sI4
F1.0
sI5
F1.0
sI7
F1.0
sI8
F1.335
sI10
F1.0
sI11
F8.0
sI12
F1.0
sI13
F1.0
sI14
F303.0
sI15
F3290.0
sI16
F1.0
sI39
F1.0
ssbsg33
g0
(g34
g2
Ntp2620
Rp2621
(dp2622
g38
I1
sbsba(ics475_types
Instance
p2623
(dp2624
g28
(ics475_types
FeatureVector
p2625
(dp2626
g31
(dp2627
I33
F1.0
sI2
F20.42
sI3
F7.0
sI4
F1.0
sI5
F1.0
sI6
F1.0
sI7
F1.0
sI8
F1.625
sI10
F1.0
sI11
F3.0
sI13
F1.0
sI14
F200.0
sI15
F1391.0
sI16
F1.0
sI21
F1.0
ssbsg33
g0
(g34
g2
Ntp2628
Rp2629
(dp2630
g38
I1
sbsba(ics475_types
Instance
p2631
(dp2632
g28
(ics475_types
FeatureVector
p2633
(dp2634
g31
(dp2635
I33
F1.0
sI2
F21.0
sI3
F3.0
sI7
F1.0
sI8
F1.085
sI10
F1.0
sI11
F8.0
sI12
F1.0
sI13
F1.0
sI14
F160.0
sI15
F1.0
sI16
F1.0
sI17
F1.0
sI18
F1.0
sI34
F1.0
ssbsg33
g0
(g34
g2
Ntp2636
Rp2637
(dp2638
g38
I1
sbsba(ics475_types
Instance
p2639
(dp2640
g28
(ics475_types
FeatureVector
p2641
(dp2642
g31
(dp2643
I32
F1.0
sI2
F39.92
sI3
F5.0
sI4
F1.0
sI5
F1.0
sI8
F0.21
sI9
F1.0
sI13
F1.0
sI14
F550.0
sI16
F1.0
sI20
F1.0
sI21
F1.0
sI25
F1.0
ssbsg33
g0
(g34
g2
Ntp2644
Rp2645
(dp2646
g38
I0
sbsba(ics475_types
Instance
p2647
(dp2648
g28
(ics475_types
FeatureVector
p2649
(dp2650
g31
(dp2651
I33
F1.0
sI2
F65.42
sI3
F11.0
sI4
F1.0
sI5
F1.0
sI8
F20.0
sI41
F1.0
sI10
F1.0
sI11
F7.0
sI12
F1.0
sI13
F1.0
sI14
F22.0
sI16
F1.0
sI42
F1.0
ssbsg33
g0
(g34
g2
Ntp2652
Rp2653
(dp2654
g38
I1
sbsba(ics475_types
Instance
p2655
(dp2656
g28
(ics475_types
FeatureVector
p2657
(dp2658
g31
(dp2659
I33
F1.0
sI2
F43.08
sI3
F0.375
sI6
F1.0
sI7
F1.0
sI8
F0.375
sI10
F1.0
sI11
F8.0
sI12
F1.0
sI13
F1.0
sI14
F300.0
sI15
F162.0
sI16
F1.0
sI17
F1.0
sI18
F1.0
ssbsg33
g0
(g34
g2
Ntp2660
Rp2661
(dp2662
g38
I1
sbsba(ics475_types
Instance
p2663
(dp2664
g28
(ics475_types
FeatureVector
p2665
(dp2666
g31
(dp2667
I2
F31.0
sI3
F2.085
sI4
F1.0
sI5
F1.0
sI6
F1.0
sI7
F1.0
sI8
F0.085
sI9
F1.0
sI13
F1.0
sI14
F300.0
sI16
F1.0
sI20
F1.0
sI21
F1.0
ssbsg33
g0
(g34
g2
Ntp2668
Rp2669
(dp2670
g38
I0
sbsba(ics475_types
Instance
p2671
(dp2672
g28
(ics475_types
FeatureVector
p2673
(dp2674
g31
(dp2675
I1
F1.0
sI2
F22.42
sI3
F11.25
sI33
F1.0
sI8
F0.75
sI10
F1.0
sI11
F4.0
sI13
F1.0
sI15
F321.0
sI17
F1.0
sI18
F1.0
sI21
F1.0
sI39
F1.0
sI27
F1.0
ssbsg33
g0
(g34
g2
Ntp2676
Rp2677
(dp2678
g38
I1
sbsba(ics475_types
Instance
p2679
(dp2680
g28
(ics475_types
FeatureVector
p2681
(dp2682
g31
(dp2683
I2
F22.17
sI3
F12.125
sI4
F1.0
sI5
F1.0
sI6
F1.0
sI7
F1.0
sI8
F3.335
sI9
F1.0
sI10
F1.0
sI11
F2.0
sI12
F1.0
sI13
F1.0
sI14
F180.0
sI15
F173.0
sI16
F1.0
ssbsg33
g0
(g34
g2
Ntp2684
Rp2685
(dp2686
g38
I0
sbsba(ics475_types
Instance
p2687
(dp2688
g28
(ics475_types
FeatureVector
p2689
(dp2690
g31
(dp2691
I1
F1.0
sI2
F20.83
sI3
F0.5
sI8
F1.0
sI9
F1.0
sI43
F1.0
sI13
F1.0
sI14
F260.0
sI17
F1.0
sI18
F1.0
sI20
F1.0
sI21
F1.0
sI41
F1.0
ssbsg33
g0
(g34
g2
Ntp2692
Rp2693
(dp2694
g38
I0
sbsba(ics475_types
Instance
p2695
(dp2696
g28
(ics475_types
FeatureVector
p2697
(dp2698
g31
(dp2699
I1
F1.0
sI2
F40.33
sI3
F7.54
sI33
F1.0
sI8
F8.0
sI10
F1.0
sI11
F14.0
sI13
F1.0
sI15
F2300.0
sI17
F1.0
sI18
F1.0
sI21
F1.0
sI27
F1.0
sI30
F1.0
ssbsg33
g0
(g34
g2
Ntp2700
Rp2701
(dp2702
g38
I1
sbsba(ics475_types
Instance
p2703
(dp2704
g28
(ics475_types
FeatureVector
p2705
(dp2706
g31
(dp2707
I32
F1.0
sI33
F1.0
sI2
F23.25
sI3
F4.0
sI4
F1.0
sI5
F1.0
sI6
F1.0
sI8
F0.25
sI12
F1.0
sI13
F1.0
sI14
F160.0
sI16
F1.0
sI20
F1.0
ssbsg33
g0
(g34
g2
Ntp2708
Rp2709
(dp2710
g38
I1
sbsba(ics475_types
Instance
p2711
(dp2712
g28
(ics475_types
FeatureVector
p2713
(dp2714
g31
(dp2715
I2
F16.17
sI3
F0.04
sI4
F1.0
sI5
F1.0
sI6
F1.0
sI7
F1.0
sI8
F0.04
sI9
F1.0
sI13
F1.0
sI16
F1.0
sI20
F1.0
sI21
F1.0
ssbsg33
g0
(g34
g2
Ntp2716
Rp2717
(dp2718
g38
I1
sbsba(ics475_types
Instance
p2719
(dp2720
g28
(ics475_types
FeatureVector
p2721
(dp2722
g31
(dp2723
I1
F1.0
sI2
F19.75
sI3
F0.75
sI4
F1.0
sI5
F1.0
sI6
F1.0
sI7
F1.0
sI8
F0.795
sI10
F1.0
sI11
F5.0
sI12
F1.0
sI13
F1.0
sI14
F140.0
sI15
F5.0
sI33
F1.0
ssbsg33
g0
(g34
g2
Ntp2724
Rp2725
(dp2726
g38
I0
sbsba(ics475_types
Instance
p2727
(dp2728
g28
(ics475_types
FeatureVector
p2729
(dp2730
g31
(dp2731
I33
F1.0
sI2
F39.58
sI3
F13.915
sI4
F1.0
sI5
F1.0
sI7
F1.0
sI8
F8.625
sI10
F1.0
sI11
F6.0
sI12
F1.0
sI13
F1.0
sI14
F70.0
sI16
F1.0
sI31
F1.0
ssbsg33
g0
(g34
g2
Ntp2732
Rp2733
(dp2734
g38
I1
sbsba(ics475_types
Instance
p2735
(dp2736
g28
(ics475_types
FeatureVector
p2737
(dp2738
g31
(dp2739
I33
F1.0
sI2
F21.92
sI3
F0.54
sI7
F1.0
sI8
F0.04
sI10
F1.0
sI11
F1.0
sI12
F1.0
sI13
F1.0
sI14
F840.0
sI15
F59.0
sI16
F1.0
sI17
F1.0
sI18
F1.0
sI39
F1.0
ssbsg33
g0
(g34
g2
Ntp2740
Rp2741
(dp2742
g38
I1
sbsba(ics475_types
Instance
p2743
(dp2744
g28
(ics475_types
FeatureVector
p2745
(dp2746
g31
(dp2747
I2
F23.42
sI3
F1.0
sI4
F1.0
sI5
F1.0
sI6
F1.0
sI7
F1.0
sI8
F0.5
sI9
F1.0
sI12
F1.0
sI14
F280.0
sI16
F1.0
sI20
F1.0
sI22
F1.0
ssbsg33
g0
(g34
g2
Ntp2748
Rp2749
(dp2750
g38
I0
sbsba(ics475_types
Instance
p2751
(dp2752
g28
(ics475_types
FeatureVector
p2753
(dp2754
g31
(dp2755
I33
F1.0
sI2
F27.25
sI3
F1.585
sI4
F1.0
sI5
F1.0
sI8
F1.835
sI10
F1.0
sI11
F12.0
sI12
F1.0
sI13
F1.0
sI14
F583.0
sI15
F713.0
sI16
F1.0
sI36
F1.0
sI27
F1.0
ssbsg33
g0
(g34
g2
Ntp2756
Rp2757
(dp2758
g38
I1
sbsba(ics475_types
Instance
p2759
(dp2760
g28
(ics475_types
FeatureVector
p2761
(dp2762
g31
(dp2763
I33
F1.0
sI2
F64.08
sI3
F20.0
sI4
F1.0
sI5
F1.0
sI39
F1.0
sI8
F17.5
sI10
F1.0
sI11
F9.0
sI12
F1.0
sI13
F1.0
sI15
F1000.0
sI16
F1.0
sI27
F1.0
ssbsg33
g0
(g34
g2
Ntp2764
Rp2765
(dp2766
g38
I1
sbsba(ics475_types
Instance
p2767
(dp2768
g28
(ics475_types
FeatureVector
p2769
(dp2770
g31
(dp2771
I33
F1.0
sI2
F16.08
sI3
F0.75
sI4
F1.0
sI5
F1.0
sI6
F1.0
sI7
F1.0
sI8
F1.75
sI10
F1.0
sI11
F5.0
sI12
F1.0
sI13
F1.0
sI14
F352.0
sI15
F690.0
sI16
F1.0
ssbsg33
g0
(g34
g2
Ntp2772
Rp2773
(dp2774
g38
I1
sbsba(ics475_types
Instance
p2775
(dp2776
g28
(ics475_types
FeatureVector
p2777
(dp2778
g31
(dp2779
I2
F31.58
sI3
F0.75
sI37
F1.0
sI7
F1.0
sI8
F3.5
sI9
F1.0
sI12
F1.0
sI13
F1.0
sI14
F320.0
sI16
F1.0
sI17
F1.0
sI18
F1.0
sI20
F1.0
ssbsg33
g0
(g34
g2
Ntp2780
Rp2781
(dp2782
g38
I0
sbsba(ics475_types
Instance
p2783
(dp2784
g28
(ics475_types
FeatureVector
p2785
(dp2786
g31
(dp2787
I33
F1.0
sI2
F25.17
sI3
F3.5
sI4
F1.0
sI5
F1.0
sI7
F1.0
sI8
F0.625
sI10
F1.0
sI11
F7.0
sI13
F1.0
sI15
F7059.0
sI16
F1.0
sI21
F1.0
sI36
F1.0
ssbsg33
g0
(g34
g2
Ntp2788
Rp2789
(dp2790
g38
I1
sbsba(ics475_types
Instance
p2791
(dp2792
g28
(ics475_types
FeatureVector
p2793
(dp2794
g31
(dp2795
I33
F1.0
sI2
F20.5
sI3
F2.415
sI4
F1.0
sI5
F1.0
sI6
F1.0
sI7
F1.0
sI8
F2.0
sI10
F1.0
sI11
F11.0
sI12
F1.0
sI13
F1.0
sI14
F200.0
sI15
F3000.0
sI16
F1.0
ssbsg33
g0
(g34
g2
Ntp2796
Rp2797
(dp2798
g38
I1
sbsba(ics475_types
Instance
p2799
(dp2800
g28
(ics475_types
FeatureVector
p2801
(dp2802
g31
(dp2803
I32
F1.0
sI1
F1.0
sI2
F28.58
sI3
F3.54
sI4
F1.0
sI5
F1.0
sI33
F1.0
sI8
F0.5
sI12
F1.0
sI13
F1.0
sI14
F171.0
sI20
F1.0
sI25
F1.0
ssbsg33
g0
(g34
g2
Ntp2804
Rp2805
(dp2806
g38
I0
sbsba(ics475_types
Instance
p2807
(dp2808
g28
(ics475_types
FeatureVector
p2809
(dp2810
g31
(dp2811
I2
F16.33
sI3
F4.085
sI4
F1.0
sI5
F1.0
sI8
F0.415
sI9
F1.0
sI12
F1.0
sI13
F1.0
sI14
F120.0
sI16
F1.0
sI20
F1.0
sI25
F1.0
sI27
F1.0
ssbsg33
g0
(g34
g2
Ntp2812
Rp2813
(dp2814
g38
I0
sbsba(ics475_types
Instance
p2815
(dp2816
g28
(ics475_types
FeatureVector
p2817
(dp2818
g31
(dp2819
I2
F22.67
sI3
F0.165
sI4
F1.0
sI5
F1.0
sI6
F1.0
sI8
F2.25
sI9
F1.0
sI12
F1.0
sI16
F1.0
sI20
F1.0
sI22
F1.0
sI29
F1.0
ssbsg33
g0
(g34
g2
Ntp2820
Rp2821
(dp2822
g38
I1
sbsba(ics475_types
Instance
p2823
(dp2824
g28
(ics475_types
FeatureVector
p2825
(dp2826
g31
(dp2827
I2
F18.83
sI4
F1.0
sI5
F1.0
sI7
F1.0
sI8
F0.665
sI9
F1.0
sI13
F1.0
sI14
F160.0
sI15
F1.0
sI16
F1.0
sI20
F1.0
sI21
F1.0
sI30
F1.0
ssbsg33
g0
(g34
g2
Ntp2828
Rp2829
(dp2830
g38
I0
sbsba(ics475_types
Instance
p2831
(dp2832
g28
(ics475_types
FeatureVector
p2833
(dp2834
g31
(dp2835
I1
F1.0
sI2
F16.33
sI3
F0.21
sI4
F1.0
sI5
F1.0
sI7
F1.0
sI8
F0.125
sI9
F1.0
sI13
F1.0
sI14
F200.0
sI15
F1.0
sI20
F1.0
sI21
F1.0
sI37
F1.0
ssbsg33
g0
(g34
g2
Ntp2836
Rp2837
(dp2838
g38
I0
sbsba(ics475_types
Instance
p2839
(dp2840
g28
(ics475_types
FeatureVector
p2841
(dp2842
g31
(dp2843
I1
F1.0
sI2
F64.08
sI3
F0.165
sI4
F1.0
sI5
F1.0
sI33
F1.0
sI10
F1.0
sI11
F1.0
sI13
F1.0
sI14
F232.0
sI15
F100.0
sI21
F1.0
sI23
F1.0
sI24
F1.0
ssbsg33
g0
(g34
g2
Ntp2844
Rp2845
(dp2846
g38
I1
sbsba(ics475_types
Instance
p2847
(dp2848
g28
(ics475_types
FeatureVector
p2849
(dp2850
g31
(dp2851
I1
F1.0
sI2
F37.33
sI3
F2.5
sI4
F1.0
sI5
F1.0
sI8
F0.21
sI9
F1.0
sI13
F1.0
sI14
F260.0
sI15
F246.0
sI20
F1.0
sI21
F1.0
sI25
F1.0
sI27
F1.0
ssbsg33
g0
(g34
g2
Ntp2852
Rp2853
(dp2854
g38
I0
sbsba(ics475_types
Instance
p2855
(dp2856
g28
(ics475_types
FeatureVector
p2857
(dp2858
g31
(dp2859
I33
F1.0
sI2
F32.83
sI3
F2.5
sI4
F1.0
sI5
F1.0
sI8
F2.75
sI10
F1.0
sI11
F6.0
sI13
F1.0
sI14
F160.0
sI15
F2072.0
sI16
F1.0
sI21
F1.0
sI36
F1.0
sI27
F1.0
ssbsg33
g0
(g34
g2
Ntp2860
Rp2861
(dp2862
g38
I1
sbsba(ics475_types
Instance
p2863
(dp2864
g28
(ics475_types
FeatureVector
p2865
(dp2866
g31
(dp2867
I32
F1.0
sI33
F1.0
sI2
F47.67
sI3
F2.5
sI4
F1.0
sI5
F1.0
sI8
F2.5
sI10
F1.0
sI11
F12.0
sI12
F1.0
sI13
F1.0
sI14
F410.0
sI15
F2510.0
sI16
F1.0
sI35
F1.0
ssbsg33
g0
(g34
g2
Ntp2868
Rp2869
(dp2870
g38
I1
sbsba(ics475_types
Instance
p2871
(dp2872
g28
(ics475_types
FeatureVector
p2873
(dp2874
g31
(dp2875
I1
F1.0
sI2
F50.08
sI3
F12.54
sI4
F1.0
sI5
F1.0
sI7
F1.0
sI8
F2.29
sI10
F1.0
sI11
F3.0
sI12
F1.0
sI13
F1.0
sI14
F156.0
sI33
F1.0
sI37
F1.0
ssbsg33
g0
(g34
g2
Ntp2876
Rp2877
(dp2878
g38
I1
sbsba(ics475_types
Instance
p2879
(dp2880
g28
(ics475_types
FeatureVector
p2881
(dp2882
g31
(dp2883
I33
F1.0
sI2
F28.33
sI3
F5.0
sI4
F1.0
sI5
F1.0
sI7
F1.0
sI8
F11.0
sI12
F1.0
sI13
F1.0
sI14
F70.0
sI16
F1.0
sI20
F1.0
sI31
F1.0
ssbsg33
g0
(g34
g2
Ntp2884
Rp2885
(dp2886
g38
I1
sbsba(ics475_types
Instance
p2887
(dp2888
g28
(ics475_types
FeatureVector
p2889
(dp2890
g31
(dp2891
I33
F1.0
sI2
F29.67
sI3
F1.415
sI4
F1.0
sI5
F1.0
sI8
F0.75
sI10
F1.0
sI11
F1.0
sI13
F1.0
sI14
F240.0
sI15
F100.0
sI16
F1.0
sI21
F1.0
sI27
F1.0
sI31
F1.0
ssbsg33
g0
(g34
g2
Ntp2892
Rp2893
(dp2894
g38
I1
sbsba(ics475_types
Instance
p2895
(dp2896
g28
(ics475_types
FeatureVector
p2897
(dp2898
g31
(dp2899
I33
F1.0
sI2
F42.83
sI3
F4.625
sI4
F1.0
sI5
F1.0
sI7
F1.0
sI8
F4.58
sI16
F1.0
sI20
F1.0
sI21
F1.0
sI22
F1.0
sI30
F1.0
ssbsg33
g0
(g34
g2
Ntp2900
Rp2901
(dp2902
g38
I1
sbsba(ics475_types
Instance
p2903
(dp2904
g28
(ics475_types
FeatureVector
p2905
(dp2906
g31
(dp2907
I1
F1.0
sI2
F28.5
sI3
F3.04
sI33
F1.0
sI8
F2.54
sI10
F1.0
sI11
F1.0
sI13
F1.0
sI14
F70.0
sI17
F1.0
sI18
F1.0
sI21
F1.0
sI39
F1.0
sI27
F1.0
ssbsg33
g0
(g34
g2
Ntp2908
Rp2909
(dp2910
g38
I1
sbsba(ics475_types
Instance
p2911
(dp2912
g28
(ics475_types
FeatureVector
p2913
(dp2914
g31
(dp2915
I2
F23.25
sI3
F12.625
sI4
F1.0
sI5
F1.0
sI6
F1.0
sI7
F1.0
sI8
F0.125
sI9
F1.0
sI10
F1.0
sI11
F2.0
sI13
F1.0
sI15
F5552.0
sI16
F1.0
sI21
F1.0
ssbsg33
g0
(g34
g2
Ntp2916
Rp2917
(dp2918
g38
I0
sbsba(ics475_types
Instance
p2919
(dp2920
g28
(ics475_types
FeatureVector
p2921
(dp2922
g31
(dp2923
I2
F47.33
sI3
F6.5
sI4
F1.0
sI5
F1.0
sI6
F1.0
sI7
F1.0
sI8
F1.0
sI9
F1.0
sI12
F1.0
sI13
F1.0
sI15
F228.0
sI16
F1.0
sI20
F1.0
ssbsg33
g0
(g34
g2
Ntp2924
Rp2925
(dp2926
g38
I0
sbsba(ics475_types
Instance
p2927
(dp2928
g28
(ics475_types
FeatureVector
p2929
(dp2930
g31
(dp2931
I2
F16.5
sI3
F0.125
sI4
F1.0
sI5
F1.0
sI6
F1.0
sI7
F1.0
sI8
F0.165
sI9
F1.0
sI13
F1.0
sI14
F132.0
sI16
F1.0
sI20
F1.0
sI21
F1.0
ssbsg33
g0
(g34
g2
Ntp2932
Rp2933
(dp2934
g38
I0
sbsba(ics475_types
Instance
p2935
(dp2936
g28
(ics475_types
FeatureVector
p2937
(dp2938
g31
(dp2939
I2
F33.0
sI3
F2.5
sI7
F1.0
sI8
F7.0
sI9
F1.0
sI12
F1.0
sI13
F1.0
sI14
F280.0
sI16
F1.0
sI17
F1.0
sI18
F1.0
sI20
F1.0
sI31
F1.0
ssbsg33
g0
(g34
g2
Ntp2940
Rp2941
(dp2942
g38
I0
sbsba(ics475_types
Instance
p2943
(dp2944
g28
(ics475_types
FeatureVector
p2945
(dp2946
g31
(dp2947
I33
F1.0
sI2
F27.83
sI3
F1.54
sI4
F1.0
sI5
F1.0
sI7
F1.0
sI8
F3.75
sI10
F1.0
sI11
F5.0
sI12
F1.0
sI13
F1.0
sI14
F100.0
sI15
F3.0
sI16
F1.0
sI31
F1.0
ssbsg33
g0
(g34
g2
Ntp2948
Rp2949
(dp2950
g38
I1
sbsba(ics475_types
Instance
p2951
(dp2952
g28
(ics475_types
FeatureVector
p2953
(dp2954
g31
(dp2955
I2
F21.17
sI3
F0.875
sI6
F1.0
sI8
F0.25
sI9
F1.0
sI13
F1.0
sI14
F280.0
sI15
F204.0
sI16
F1.0
sI17
F1.0
sI18
F1.0
sI20
F1.0
sI21
F1.0
sI27
F1.0
ssbsg33
g0
(g34
g2
Ntp2956
Rp2957
(dp2958
g38
I0
sbsba(ics475_types
Instance
p2959
(dp2960
g28
(ics475_types
FeatureVector
p2961
(dp2962
g31
(dp2963
I33
F1.0
sI2
F22.67
sI3
F2.54
sI6
F1.0
sI8
F2.585
sI13
F1.0
sI16
F1.0
sI17
F1.0
sI18
F1.0
sI20
F1.0
sI21
F1.0
sI27
F1.0
ssbsg33
g0
(g34
g2
Ntp2964
Rp2965
(dp2966
g38
I1
sbsba(ics475_types
Instance
p2967
(dp2968
g28
(ics475_types
FeatureVector
p2969
(dp2970
g31
(dp2971
I2
F19.0
sI9
F1.0
sI10
F1.0
sI11
F4.0
sI13
F1.0
sI14
F45.0
sI15
F1.0
sI16
F1.0
sI17
F1.0
sI18
F1.0
sI21
F1.0
sI23
F1.0
sI24
F1.0
ssbsg33
g0
(g34
g2
Ntp2972
Rp2973
(dp2974
g38
I0
sbsba(ics475_types
Instance
p2975
(dp2976
g28
(ics475_types
FeatureVector
p2977
(dp2978
g31
(dp2979
I33
F1.0
sI2
F39.17
sI3
F1.71
sI4
F1.0
sI5
F1.0
sI7
F1.0
sI8
F0.125
sI10
F1.0
sI11
F5.0
sI12
F1.0
sI13
F1.0
sI14
F480.0
sI16
F1.0
sI39
F1.0
ssbsg33
g0
(g34
g2
Ntp2980
Rp2981
(dp2982
g38
I1
sbsba(ics475_types
Instance
p2983
(dp2984
g28
(ics475_types
FeatureVector
p2985
(dp2986
g31
(dp2987
I2
F19.58
sI3
F0.585
sI4
F1.0
sI5
F1.0
sI9
F1.0
sI10
F1.0
sI11
F3.0
sI13
F1.0
sI14
F350.0
sI15
F769.0
sI16
F1.0
sI21
F1.0
sI23
F1.0
sI24
F1.0
ssbsg33
g0
(g34
g2
Ntp2988
Rp2989
(dp2990
g38
I0
sbsba(ics475_types
Instance
p2991
(dp2992
g28
(ics475_types
FeatureVector
p2993
(dp2994
g31
(dp2995
I33
F1.0
sI2
F42.17
sI3
F5.04
sI4
F1.0
sI5
F1.0
sI8
F12.75
sI12
F1.0
sI13
F1.0
sI14
F92.0
sI16
F1.0
sI20
F1.0
sI27
F1.0
sI30
F1.0
ssbsg33
g0
(g34
g2
Ntp2996
Rp2997
(dp2998
g38
I1
sbsba(ics475_types
Instance
p2999
(dp3000
g28
(ics475_types
FeatureVector
p3001
(dp3002
g31
(dp3003
I33
F1.0
sI2
F54.83
sI3
F15.5
sI4
F1.0
sI5
F1.0
sI41
F1.0
sI10
F1.0
sI11
F20.0
sI13
F1.0
sI14
F152.0
sI15
F130.0
sI16
F1.0
sI21
F1.0
sI42
F1.0
ssbsg33
g0
(g34
g2
Ntp3004
Rp3005
(dp3006
g38
I0
sbsba(ics475_types
Instance
p3007
(dp3008
g28
(ics475_types
FeatureVector
p3009
(dp3010
g31
(dp3011
I1
F1.0
sI2
F36.58
sI3
F0.29
sI4
F1.0
sI5
F1.0
sI9
F1.0
sI10
F1.0
sI11
F10.0
sI13
F1.0
sI14
F200.0
sI15
F18.0
sI21
F1.0
sI23
F1.0
sI24
F1.0
ssbsg33
g0
(g34
g2
Ntp3012
Rp3013
(dp3014
g38
I0
sbsba(ics475_types
Instance
p3015
(dp3016
g28
(ics475_types
FeatureVector
p3017
(dp3018
g31
(dp3019
I2
F18.33
sI3
F1.21
sI9
F1.0
sI43
F1.0
sI13
F1.0
sI14
F100.0
sI16
F1.0
sI17
F1.0
sI18
F1.0
sI20
F1.0
sI21
F1.0
sI41
F1.0
ssbsg33
g0
(g34
g2
Ntp3020
Rp3021
(dp3022
g38
I0
sbsba(ics475_types
Instance
p3023
(dp3024
g28
(ics475_types
FeatureVector
p3025
(dp3026
g31
(dp3027
I2
F34.08
sI3
F2.5
sI4
F1.0
sI5
F1.0
sI6
F1.0
sI7
F1.0
sI8
F1.0
sI9
F1.0
sI13
F1.0
sI14
F460.0
sI15
F16.0
sI16
F1.0
sI20
F1.0
sI21
F1.0
ssbsg33
g0
(g34
g2
Ntp3028
Rp3029
(dp3030
g38
I0
sbsba(ics475_types
Instance
p3031
(dp3032
g28
(ics475_types
FeatureVector
p3033
(dp3034
g31
(dp3035
I2
F25.25
sI3
F1.0
sI4
F1.0
sI5
F1.0
sI7
F1.0
sI8
F0.5
sI9
F1.0
sI13
F1.0
sI14
F200.0
sI16
F1.0
sI20
F1.0
sI21
F1.0
sI37
F1.0
ssbsg33
g0
(g34
g2
Ntp3036
Rp3037
(dp3038
g38
I0
sbsba(ics475_types
Instance
p3039
(dp3040
g28
(ics475_types
FeatureVector
p3041
(dp3042
g31
(dp3043
I33
F1.0
sI2
F39.25
sI3
F9.5
sI4
F1.0
sI5
F1.0
sI7
F1.0
sI8
F6.5
sI10
F1.0
sI11
F14.0
sI13
F1.0
sI14
F240.0
sI15
F4607.0
sI16
F1.0
sI35
F1.0
sI21
F1.0
ssbsg33
g0
(g34
g2
Ntp3044
Rp3045
(dp3046
g38
I1
sbsba(ics475_types
Instance
p3047
(dp3048
g28
(ics475_types
FeatureVector
p3049
(dp3050
g31
(dp3051
I2
F20.0
sI3
F11.045
sI4
F1.0
sI5
F1.0
sI6
F1.0
sI7
F1.0
sI8
F2.0
sI9
F1.0
sI12
F1.0
sI13
F1.0
sI14
F136.0
sI16
F1.0
sI20
F1.0
ssbsg33
g0
(g34
g2
Ntp3052
Rp3053
(dp3054
g38
I0
sbsba(ics475_types
Instance
p3055
(dp3056
g28
(ics475_types
FeatureVector
p3057
(dp3058
g31
(dp3059
I1
F1.0
sI2
F24.5
sI3
F0.5
sI4
F1.0
sI5
F1.0
sI33
F1.0
sI8
F1.5
sI13
F1.0
sI14
F280.0
sI15
F824.0
sI20
F1.0
sI21
F1.0
sI27
F1.0
sI30
F1.0
ssbsg33
g0
(g34
g2
Ntp3060
Rp3061
(dp3062
g38
I1
sbsba(ics475_types
Instance
p3063
(dp3064
g28
(ics475_types
FeatureVector
p3065
(dp3066
g31
(dp3067
I2
F23.75
sI3
F0.415
sI6
F1.0
sI7
F1.0
sI8
F0.04
sI9
F1.0
sI10
F1.0
sI11
F2.0
sI13
F1.0
sI14
F128.0
sI15
F6.0
sI16
F1.0
sI17
F1.0
sI18
F1.0
sI21
F1.0
ssbsg33
g0
(g34
g2
Ntp3068
Rp3069
(dp3070
g38
I0
sbsba(ics475_types
Instance
p3071
(dp3072
g28
(ics475_types
FeatureVector
p3073
(dp3074
g31
(dp3075
I33
F1.0
sI2
F21.33
sI3
F7.5
sI4
F1.0
sI5
F1.0
sI7
F1.0
sI8
F1.415
sI10
F1.0
sI11
F1.0
sI13
F1.0
sI14
F80.0
sI15
F9800.0
sI16
F1.0
sI21
F1.0
sI37
F1.0
ssbsg33
g0
(g34
g2
Ntp3076
Rp3077
(dp3078
g38
I1
sbsba(ics475_types
Instance
p3079
(dp3080
g28
(ics475_types
FeatureVector
p3081
(dp3082
g31
(dp3083
I1
F1.0
sI2
F30.58
sI3
F10.665
sI4
F1.0
sI5
F1.0
sI8
F0.085
sI9
F1.0
sI10
F1.0
sI11
F12.0
sI12
F1.0
sI13
F1.0
sI14
F129.0
sI15
F3.0
sI27
F1.0
sI30
F1.0
ssbsg33
g0
(g34
g2
Ntp3084
Rp3085
(dp3086
g38
I0
sbsba(ics475_types
Instance
p3087
(dp3088
g28
(ics475_types
FeatureVector
p3089
(dp3090
g31
(dp3091
I2
F40.58
sI3
F3.29
sI4
F1.0
sI5
F1.0
sI7
F1.0
sI8
F3.5
sI9
F1.0
sI12
F1.0
sI14
F400.0
sI16
F1.0
sI35
F1.0
sI20
F1.0
sI22
F1.0
ssbsg33
g0
(g34
g2
Ntp3092
Rp3093
(dp3094
g38
I0
sbsba(ics475_types
Instance
p3095
(dp3096
g28
(ics475_types
FeatureVector
p3097
(dp3098
g31
(dp3099
I2
F31.08
sI3
F3.085
sI4
F1.0
sI5
F1.0
sI6
F1.0
sI7
F1.0
sI8
F2.5
sI9
F1.0
sI10
F1.0
sI11
F2.0
sI12
F1.0
sI13
F1.0
sI14
F160.0
sI15
F41.0
sI16
F1.0
ssbsg33
g0
(g34
g2
Ntp3100
Rp3101
(dp3102
g38
I0
sbsba(ics475_types
Instance
p3103
(dp3104
g28
(ics475_types
FeatureVector
p3105
(dp3106
g31
(dp3107
I1
F1.0
sI2
F17.67
sI9
F1.0
sI13
F1.0
sI14
F86.0
sI17
F1.0
sI18
F1.0
sI20
F1.0
sI21
F1.0
sI24
F1.0
sI28
F1.0
ssbsg33
g0
(g34
g2
Ntp3108
Rp3109
(dp3110
g38
I0
sbsba(ics475_types
Instance
p3111
(dp3112
g28
(ics475_types
FeatureVector
p3113
(dp3114
g31
(dp3115
I32
F1.0
sI33
F1.0
sI2
F40.0
sI3
F6.5
sI4
F1.0
sI5
F1.0
sI8
F3.5
sI10
F1.0
sI11
F1.0
sI13
F1.0
sI15
F500.0
sI16
F1.0
sI21
F1.0
sI37
F1.0
ssbsg33
g0
(g34
g2
Ntp3116
Rp3117
(dp3118
g38
I1
sbsba(ics475_types
Instance
p3119
(dp3120
g28
(ics475_types
FeatureVector
p3121
(dp3122
g31
(dp3123
I1
F1.0
sI2
F16.08
sI3
F0.335
sI4
F1.0
sI5
F1.0
sI9
F1.0
sI10
F1.0
sI11
F1.0
sI13
F1.0
sI14
F160.0
sI15
F126.0
sI21
F1.0
sI23
F1.0
sI24
F1.0
ssbsg33
g0
(g34
g2
Ntp3124
Rp3125
(dp3126
g38
I0
sbsba(ics475_types
Instance
p3127
(dp3128
g28
(ics475_types
FeatureVector
p3129
(dp3130
g31
(dp3131
I33
F1.0
sI2
F44.25
sI3
F0.5
sI4
F1.0
sI5
F1.0
sI7
F1.0
sI8
F10.75
sI14
F400.0
sI16
F1.0
sI35
F1.0
sI20
F1.0
sI21
F1.0
sI22
F1.0
ssbsg33
g0
(g34
g2
Ntp3132
Rp3133
(dp3134
g38
I0
sbsba(ics475_types
Instance
p3135
(dp3136
g28
(ics475_types
FeatureVector
p3137
(dp3138
g31
(dp3139
I32
F1.0
sI33
F1.0
sI2
F34.25
sI3
F1.75
sI4
F1.0
sI5
F1.0
sI8
F0.25
sI12
F1.0
sI13
F1.0
sI14
F163.0
sI16
F1.0
sI20
F1.0
sI31
F1.0
ssbsg33
g0
(g34
g2
Ntp3140
Rp3141
(dp3142
g38
I0
sbsba(ics475_types
Instance
p3143
(dp3144
g28
(ics475_types
FeatureVector
p3145
(dp3146
g31
(dp3147
I2
F22.0
sI3
F0.79
sI4
F1.0
sI5
F1.0
sI7
F1.0
sI8
F0.29
sI9
F1.0
sI10
F1.0
sI11
F1.0
sI13
F1.0
sI14
F420.0
sI15
F283.0
sI16
F1.0
sI21
F1.0
sI31
F1.0
ssbsg33
g0
(g34
g2
Ntp3148
Rp3149
(dp3150
g38
I0
sbsba(ics475_types
Instance
p3151
(dp3152
g28
(ics475_types
FeatureVector
p3153
(dp3154
g31
(dp3155
I33
F1.0
sI2
F13.75
sI3
F4.0
sI7
F1.0
sI8
F1.75
sI10
F1.0
sI11
F2.0
sI12
F1.0
sI13
F1.0
sI14
F120.0
sI15
F1000.0
sI16
F1.0
sI17
F1.0
sI18
F1.0
sI31
F1.0
ssbsg33
g0
(g34
g2
Ntp3156
Rp3157
(dp3158
g38
I1
sbsba(ics475_types
Instance
p3159
(dp3160
g28
(ics475_types
FeatureVector
p3161
(dp3162
g31
(dp3163
I2
F19.17
sI3
F4.0
sI7
F1.0
sI8
F1.0
sI9
F1.0
sI12
F1.0
sI13
F1.0
sI14
F360.0
sI15
F1000.0
sI16
F1.0
sI17
F1.0
sI18
F1.0
sI20
F1.0
sI25
F1.0
ssbsg33
g0
(g34
g2
Ntp3164
Rp3165
(dp3166
g38
I0
sbsba(ics475_types
Instance
p3167
(dp3168
g28
(ics475_types
FeatureVector
p3169
(dp3170
g31
(dp3171
I1
F1.0
sI2
F28.58
sI3
F3.75
sI4
F1.0
sI5
F1.0
sI6
F1.0
sI7
F1.0
sI8
F0.25
sI9
F1.0
sI10
F1.0
sI11
F1.0
sI12
F1.0
sI13
F1.0
sI14
F40.0
sI15
F154.0
ssbsg33
g0
(g34
g2
Ntp3172
Rp3173
(dp3174
g38
I0
sbsba(ics475_types
Instance
p3175
(dp3176
g28
(ics475_types
FeatureVector
p3177
(dp3178
g31
(dp3179
I33
F1.0
sI2
F43.25
sI3
F3.0
sI4
F1.0
sI5
F1.0
sI8
F6.0
sI10
F1.0
sI11
F11.0
sI13
F1.0
sI14
F80.0
sI16
F1.0
sI21
F1.0
sI27
F1.0
sI30
F1.0
ssbsg33
g0
(g34
g2
Ntp3180
Rp3181
(dp3182
g38
I1
sbsba(ics475_types
Instance
p3183
(dp3184
g28
(ics475_types
FeatureVector
p3185
(dp3186
g31
(dp3187
I33
F1.0
sI2
F63.33
sI3
F0.54
sI4
F1.0
sI5
F1.0
sI6
F1.0
sI7
F1.0
sI8
F0.585
sI10
F1.0
sI11
F3.0
sI12
F1.0
sI13
F1.0
sI14
F180.0
sI16
F1.0
ssbsg33
g0
(g34
g2
Ntp3188
Rp3189
(dp3190
g38
I0
sbsba(ics475_types
Instance
p3191
(dp3192
g28
(ics475_types
FeatureVector
p3193
(dp3194
g31
(dp3195
I1
F1.0
sI2
F18.92
sI3
F9.0
sI4
F1.0
sI5
F1.0
sI7
F1.0
sI8
F0.75
sI10
F1.0
sI11
F2.0
sI13
F1.0
sI14
F88.0
sI15
F591.0
sI21
F1.0
sI33
F1.0
sI37
F1.0
ssbsg33
g0
(g34
g2
Ntp3196
Rp3197
(dp3198
g38
I1
sbsba(ics475_types
Instance
p3199
(dp3200
g28
(ics475_types
FeatureVector
p3201
(dp3202
g31
(dp3203
I33
F1.0
sI2
F31.67
sI3
F16.165
sI4
F1.0
sI5
F1.0
sI7
F1.0
sI8
F3.0
sI10
F1.0
sI11
F9.0
sI13
F1.0
sI14
F250.0
sI15
F730.0
sI16
F1.0
sI34
F1.0
sI21
F1.0
ssbsg33
g0
(g34
g2
Ntp3204
Rp3205
(dp3206
g38
I1
sbsba(ics475_types
Instance
p3207
(dp3208
g28
(ics475_types
FeatureVector
p3209
(dp3210
g31
(dp3211
I1
F1.0
sI2
F35.17
sI3
F3.75
sI4
F1.0
sI5
F1.0
sI9
F1.0
sI10
F1.0
sI11
F6.0
sI13
F1.0
sI15
F200.0
sI21
F1.0
sI23
F1.0
sI24
F1.0
ssbsg33
g0
(g34
g2
Ntp3212
Rp3213
(dp3214
g38
I0
sbsba(ics475_types
Instance
p3215
(dp3216
g28
(ics475_types
FeatureVector
p3217
(dp3218
g31
(dp3219
I2
F30.75
sI3
F1.585
sI4
F1.0
sI5
F1.0
sI7
F1.0
sI8
F0.585
sI9
F1.0
sI12
F1.0
sI34
F1.0
sI16
F1.0
sI20
F1.0
sI22
F1.0
ssbsg33
g0
(g34
g2
Ntp3220
Rp3221
(dp3222
g38
I0
sbsba(ics475_types
Instance
p3223
(dp3224
g28
(ics475_types
FeatureVector
p3225
(dp3226
g31
(dp3227
I1
F1.0
sI2
F25.25
sI3
F12.5
sI4
F1.0
sI5
F1.0
sI7
F1.0
sI8
F1.0
sI9
F1.0
sI12
F1.0
sI13
F1.0
sI14
F180.0
sI15
F1062.0
sI34
F1.0
sI20
F1.0
ssbsg33
g0
(g34
g2
Ntp3228
Rp3229
(dp3230
g38
I0
sbsba(ics475_types
Instance
p3231
(dp3232
g28
(ics475_types
FeatureVector
p3233
(dp3234
g31
(dp3235
I2
F36.17
sI3
F0.42
sI7
F1.0
sI8
F0.29
sI9
F1.0
sI12
F1.0
sI13
F1.0
sI14
F309.0
sI15
F2.0
sI16
F1.0
sI17
F1.0
sI18
F1.0
sI20
F1.0
sI31
F1.0
ssbsg33
g0
(g34
g2
Ntp3236
Rp3237
(dp3238
g38
I0
sbsba(ics475_types
Instance
p3239
(dp3240
g28
(ics475_types
FeatureVector
p3241
(dp3242
g31
(dp3243
I33
F1.0
sI2
F20.5
sI3
F10.0
sI6
F1.0
sI7
F1.0
sI8
F2.5
sI14
F40.0
sI16
F1.0
sI17
F1.0
sI18
F1.0
sI20
F1.0
sI21
F1.0
sI22
F1.0
ssbsg33
g0
(g34
g2
Ntp3244
Rp3245
(dp3246
g38
I1
sbsba(ics475_types
Instance
p3247
(dp3248
g28
(ics475_types
FeatureVector
p3249
(dp3250
g31
(dp3251
I33
F1.0
sI2
F37.75
sI3
F7.0
sI4
F1.0
sI5
F1.0
sI8
F11.5
sI10
F1.0
sI11
F7.0
sI12
F1.0
sI13
F1.0
sI14
F300.0
sI15
F5.0
sI16
F1.0
sI27
F1.0
sI30
F1.0
ssbsg33
g0
(g34
g2
Ntp3252
Rp3253
(dp3254
g38
I0
sbsba(ics475_types
Instance
p3255
(dp3256
g28
(ics475_types
FeatureVector
p3257
(dp3258
g31
(dp3259
I1
F1.0
sI2
F27.67
sI3
F2.04
sI4
F1.0
sI5
F1.0
sI7
F1.0
sI8
F0.25
sI9
F1.0
sI12
F1.0
sI13
F1.0
sI14
F180.0
sI15
F50.0
sI20
F1.0
sI31
F1.0
ssbsg33
g0
(g34
g2
Ntp3260
Rp3261
(dp3262
g38
I0
sbsba(ics475_types
Instance
p3263
(dp3264
g28
(ics475_types
FeatureVector
p3265
(dp3266
g31
(dp3267
I2
F20.67
sI3
F0.415
sI4
F1.0
sI5
F1.0
sI6
F1.0
sI7
F1.0
sI8
F0.125
sI9
F1.0
sI13
F1.0
sI15
F44.0
sI16
F1.0
sI20
F1.0
sI21
F1.0
ssbsg33
g0
(g34
g2
Ntp3268
Rp3269
(dp3270
g38
I0
sbsba(ics475_types
Instance
p3271
(dp3272
g28
(ics475_types
FeatureVector
p3273
(dp3274
g31
(dp3275
I2
F32.33
sI3
F3.5
sI4
F1.0
sI5
F1.0
sI7
F1.0
sI8
F0.5
sI9
F1.0
sI12
F1.0
sI13
F1.0
sI14
F232.0
sI16
F1.0
sI19
F1.0
sI20
F1.0
ssbsg33
g0
(g34
g2
Ntp3276
Rp3277
(dp3278
g38
I0
sbsba(ics475_types
Instance
p3279
(dp3280
g28
(ics475_types
FeatureVector
p3281
(dp3282
g31
(dp3283
I2
F22.25
sI3
F0.46
sI4
F1.0
sI5
F1.0
sI7
F1.0
sI8
F0.125
sI9
F1.0
sI12
F1.0
sI13
F1.0
sI14
F280.0
sI15
F55.0
sI16
F1.0
sI19
F1.0
sI20
F1.0
ssbsg33
g0
(g34
g2
Ntp3284
Rp3285
(dp3286
g38
I0
sbsba(ics475_types
Instance
p3287
(dp3288
g28
(ics475_types
FeatureVector
p3289
(dp3290
g31
(dp3291
I32
F1.0
sI1
F1.0
sI2
F21.25
sI3
F2.335
sI4
F1.0
sI5
F1.0
sI33
F1.0
sI8
F0.5
sI10
F1.0
sI11
F4.0
sI14
F80.0
sI21
F1.0
sI22
F1.0
sI25
F1.0
ssbsg33
g0
(g34
g2
Ntp3292
Rp3293
(dp3294
g38
I1
sbsba(ics475_types
Instance
p3295
(dp3296
g28
(ics475_types
FeatureVector
p3297
(dp3298
g31
(dp3299
I33
F1.0
sI2
F25.0
sI3
F12.0
sI4
F1.0
sI5
F1.0
sI7
F1.0
sI8
F2.25
sI10
F1.0
sI11
F2.0
sI12
F1.0
sI13
F1.0
sI14
F120.0
sI15
F5.0
sI16
F1.0
sI19
F1.0
ssbsg33
g0
(g34
g2
Ntp3300
Rp3301
(dp3302
g38
I0
sbsba(ics475_types
Instance
p3303
(dp3304
g28
(ics475_types
FeatureVector
p3305
(dp3306
g31
(dp3307
I33
F1.0
sI2
F38.67
sI3
F0.21
sI4
F1.0
sI5
F1.0
sI7
F1.0
sI8
F0.085
sI12
F1.0
sI13
F1.0
sI14
F280.0
sI16
F1.0
sI19
F1.0
sI20
F1.0
ssbsg33
g0
(g34
g2
Ntp3308
Rp3309
(dp3310
g38
I1
sbsba(ics475_types
Instance
p3311
(dp3312
g28
(ics475_types
FeatureVector
p3313
(dp3314
g31
(dp3315
I33
F1.0
sI2
F56.0
sI3
F12.5
sI4
F1.0
sI5
F1.0
sI8
F8.0
sI12
F1.0
sI13
F1.0
sI14
F24.0
sI15
F2028.0
sI16
F1.0
sI19
F1.0
sI20
F1.0
sI27
F1.0
ssbsg33
g0
(g34
g2
Ntp3316
Rp3317
(dp3318
g38
I1
sbsba(ics475_types
Instance
p3319
(dp3320
g28
(ics475_types
FeatureVector
p3321
(dp3322
g31
(dp3323
I1
F1.0
sI2
F19.58
sI3
F0.665
sI4
F1.0
sI5
F1.0
sI7
F1.0
sI8
F1.665
sI9
F1.0
sI13
F1.0
sI14
F220.0
sI15
F5.0
sI20
F1.0
sI21
F1.0
sI31
F1.0
ssbsg33
g0
(g34
g2
Ntp3324
Rp3325
(dp3326
g38
I0
sbsba(ics475_types
Instance
p3327
(dp3328
g28
(ics475_types
FeatureVector
p3329
(dp3330
g31
(dp3331
I2
F29.83
sI3
F3.5
sI4
F1.0
sI5
F1.0
sI6
F1.0
sI7
F1.0
sI8
F0.165
sI9
F1.0
sI13
F1.0
sI14
F216.0
sI16
F1.0
sI20
F1.0
sI21
F1.0
ssbsg33
g0
(g34
g2
Ntp3332
Rp3333
(dp3334
g38
I0
sbsba(ics475_types
Instance
p3335
(dp3336
g28
(ics475_types
FeatureVector
p3337
(dp3338
g31
(dp3339
I33
F1.0
sI2
F23.08
sI3
F2.5
sI4
F1.0
sI5
F1.0
sI6
F1.0
sI7
F1.0
sI8
F1.085
sI10
F1.0
sI11
F11.0
sI12
F1.0
sI13
F1.0
sI14
F60.0
sI15
F2184.0
sI16
F1.0
ssbsg33
g0
(g34
g2
Ntp3340
Rp3341
(dp3342
g38
I1
sbsba(ics475_types
Instance
p3343
(dp3344
g28
(ics475_types
FeatureVector
p3345
(dp3346
g31
(dp3347
I1
F1.0
sI2
F38.92
sI3
F1.665
sI4
F1.0
sI5
F1.0
sI7
F1.0
sI8
F0.25
sI9
F1.0
sI13
F1.0
sI15
F390.0
sI20
F1.0
sI21
F1.0
sI37
F1.0
ssbsg33
g0
(g34
g2
Ntp3348
Rp3349
(dp3350
g38
I0
sbsba(ics475_types
Instance
p3351
(dp3352
g28
(ics475_types
FeatureVector
p3353
(dp3354
g31
(dp3355
I2
F39.17
sI3
F2.5
sI8
F10.0
sI9
F1.0
sI12
F1.0
sI14
F200.0
sI16
F1.0
sI17
F1.0
sI18
F1.0
sI20
F1.0
sI22
F1.0
sI25
F1.0
sI27
F1.0
ssbsg33
g0
(g34
g2
Ntp3356
Rp3357
(dp3358
g38
I0
sbsba(ics475_types
Instance
p3359
(dp3360
g28
(ics475_types
FeatureVector
p3361
(dp3362
g31
(dp3363
I2
F29.42
sI3
F1.25
sI4
F1.0
sI5
F1.0
sI6
F1.0
sI8
F0.25
sI9
F1.0
sI10
F1.0
sI11
F2.0
sI12
F1.0
sI13
F1.0
sI14
F400.0
sI15
F108.0
sI16
F1.0
sI27
F1.0
ssbsg33
g0
(g34
g2
Ntp3364
Rp3365
(dp3366
g38
I0
sbsba(ics475_types
Instance
p3367
(dp3368
g28
(ics475_types
FeatureVector
p3369
(dp3370
g31
(dp3371
I2
F23.08
sI4
F1.0
sI5
F1.0
sI7
F1.0
sI8
F1.0
sI9
F1.0
sI10
F1.0
sI11
F11.0
sI16
F1.0
sI19
F1.0
sI21
F1.0
sI22
F1.0
ssbsg33
g0
(g34
g2
Ntp3372
Rp3373
(dp3374
g38
I0
sbsba(ics475_types
Instance
p3375
(dp3376
g28
(ics475_types
FeatureVector
p3377
(dp3378
g31
(dp3379
I33
F1.0
sI2
F22.08
sI3
F11.0
sI4
F1.0
sI5
F1.0
sI7
F1.0
sI8
F0.665
sI13
F1.0
sI14
F100.0
sI16
F1.0
sI20
F1.0
sI21
F1.0
sI36
F1.0
ssbsg33
g0
(g34
g2
Ntp3380
Rp3381
(dp3382
g38
I1
sbsba(ics475_types
Instance
p3383
(dp3384
g28
(ics475_types
FeatureVector
p3385
(dp3386
g31
(dp3387
I33
F1.0
sI2
F21.67
sI3
F1.165
sI7
F1.0
sI8
F2.5
sI10
F1.0
sI11
F1.0
sI13
F1.0
sI14
F180.0
sI15
F20.0
sI16
F1.0
sI17
F1.0
sI18
F1.0
sI19
F1.0
sI21
F1.0
ssbsg33
g0
(g34
g2
Ntp3388
Rp3389
(dp3390
g38
I0
sbsba(ics475_types
Instance
p3391
(dp3392
g28
(ics475_types
FeatureVector
p3393
(dp3394
g31
(dp3395
I33
F1.0
sI2
F23.25
sI3
F1.5
sI4
F1.0
sI5
F1.0
sI7
F1.0
sI8
F2.375
sI10
F1.0
sI11
F3.0
sI12
F1.0
sI13
F1.0
sI15
F582.0
sI16
F1.0
sI30
F1.0
ssbsg33
g0
(g34
g2
Ntp3396
Rp3397
(dp3398
g38
I1
sbsba(ics475_types
Instance
p3399
(dp3400
g28
(ics475_types
FeatureVector
p3401
(dp3402
g31
(dp3403
I1
F1.0
sI2
F40.83
sI3
F10.0
sI4
F1.0
sI5
F1.0
sI33
F1.0
sI8
F1.75
sI13
F1.0
sI14
F29.0
sI15
F837.0
sI20
F1.0
sI21
F1.0
sI27
F1.0
sI30
F1.0
ssbsg33
g0
(g34
g2
Ntp3404
Rp3405
(dp3406
g38
I1
sbsba(ics475_types
Instance
p3407
(dp3408
g28
(ics475_types
FeatureVector
p3409
(dp3410
g31
(dp3411
I33
F1.0
sI2
F27.25
sI3
F0.625
sI4
F1.0
sI5
F1.0
sI7
F1.0
sI8
F0.455
sI12
F1.0
sI13
F1.0
sI14
F200.0
sI16
F1.0
sI20
F1.0
sI37
F1.0
ssbsg33
g0
(g34
g2
Ntp3412
Rp3413
(dp3414
g38
I0
sbsba(ics475_types
Instance
p3415
(dp3416
g28
(ics475_types
FeatureVector
p3417
(dp3418
g31
(dp3419
I1
F1.0
sI2
F21.75
sI3
F11.75
sI4
F1.0
sI5
F1.0
sI6
F1.0
sI7
F1.0
sI8
F0.25
sI9
F1.0
sI12
F1.0
sI13
F1.0
sI14
F180.0
sI20
F1.0
ssbsg33
g0
(g34
g2
Ntp3420
Rp3421
(dp3422
g38
I0
sbsba(ics475_types
Instance
p3423
(dp3424
g28
(ics475_types
FeatureVector
p3425
(dp3426
g31
(dp3427
I1
F1.0
sI2
F21.92
sI3
F11.665
sI4
F1.0
sI5
F1.0
sI8
F0.085
sI9
F1.0
sI13
F1.0
sI14
F320.0
sI15
F5.0
sI19
F1.0
sI20
F1.0
sI21
F1.0
sI27
F1.0
ssbsg33
g0
(g34
g2
Ntp3428
Rp3429
(dp3430
g38
I0
sbsba(ics475_types
Instance
p3431
(dp3432
g28
(ics475_types
FeatureVector
p3433
(dp3434
g31
(dp3435
I1
F1.0
sI2
F31.92
sI3
F3.125
sI4
F1.0
sI5
F1.0
sI8
F3.04
sI9
F1.0
sI10
F1.0
sI11
F2.0
sI12
F1.0
sI13
F1.0
sI14
F200.0
sI15
F4.0
sI23
F1.0
sI24
F1.0
ssbsg33
g0
(g34
g2
Ntp3436
Rp3437
(dp3438
g38
I0
sbsba(ics475_types
Instance
p3439
(dp3440
g28
(ics475_types
FeatureVector
p3441
(dp3442
g31
(dp3443
I33
F1.0
sI2
F29.92
sI3
F1.835
sI4
F1.0
sI5
F1.0
sI6
F1.0
sI8
F4.335
sI13
F1.0
sI14
F260.0
sI15
F200.0
sI16
F1.0
sI20
F1.0
sI21
F1.0
sI27
F1.0
ssbsg33
g0
(g34
g2
Ntp3444
Rp3445
(dp3446
g38
I1
sbsba(ics475_types
Instance
p3447
(dp3448
g28
(ics475_types
FeatureVector
p3449
(dp3450
g31
(dp3451
I1
F1.0
sI2
F21.75
sI3
F1.75
sI9
F1.0
sI13
F1.0
sI14
F160.0
sI17
F1.0
sI18
F1.0
sI20
F1.0
sI21
F1.0
sI28
F1.0
sI29
F1.0
ssbsg33
g0
(g34
g2
Ntp3452
Rp3453
(dp3454
g38
I0
sbsba(ics475_types
Instance
p3455
(dp3456
g28
(ics475_types
FeatureVector
p3457
(dp3458
g31
(dp3459
I2
F37.33
sI3
F2.665
sI4
F1.0
sI5
F1.0
sI7
F1.0
sI8
F0.165
sI9
F1.0
sI12
F1.0
sI13
F1.0
sI15
F501.0
sI16
F1.0
sI20
F1.0
sI36
F1.0
ssbsg33
g0
(g34
g2
Ntp3460
Rp3461
(dp3462
g38
I0
sbsba(ics475_types
Instance
p3463
(dp3464
g28
(ics475_types
FeatureVector
p3465
(dp3466
g31
(dp3467
I1
F1.0
sI2
F47.75
sI3
F8.0
sI4
F1.0
sI5
F1.0
sI6
F1.0
sI7
F1.0
sI8
F7.875
sI10
F1.0
sI11
F6.0
sI12
F1.0
sI13
F1.0
sI15
F1260.0
sI33
F1.0
ssbsg33
g0
(g34
g2
Ntp3468
Rp3469
(dp3470
g38
I1
sbsba(ics475_types
Instance
p3471
(dp3472
g28
(ics475_types
FeatureVector
p3473
(dp3474
g31
(dp3475
I1
F1.0
sI2
F22.5
sI3
F11.0
sI33
F1.0
sI7
F1.0
sI8
F3.0
sI12
F1.0
sI13
F1.0
sI14
F268.0
sI17
F1.0
sI18
F1.0
sI20
F1.0
sI30
F1.0
ssbsg33
g0
(g34
g2
Ntp3476
Rp3477
(dp3478
g38
I0
sbsba(ics475_types
Instance
p3479
(dp3480
g28
(ics475_types
FeatureVector
p3481
(dp3482
g31
(dp3483
I2
F29.5
sI3
F0.58
sI4
F1.0
sI5
F1.0
sI7
F1.0
sI8
F0.29
sI9
F1.0
sI10
F1.0
sI11
F1.0
sI13
F1.0
sI14
F340.0
sI15
F2803.0
sI16
F1.0
sI21
F1.0
sI31
F1.0
ssbsg33
g0
(g34
g2
Ntp3484
Rp3485
(dp3486
g38
I0
sbsba(ics475_types
Instance
p3487
(dp3488
g28
(ics475_types
FeatureVector
p3489
(dp3490
g31
(dp3491
I32
F1.0
sI33
F1.0
sI2
F51.33
sI3
F10.0
sI4
F1.0
sI5
F1.0
sI10
F1.0
sI11
F11.0
sI13
F1.0
sI15
F1249.0
sI16
F1.0
sI21
F1.0
sI25
F1.0
ssbsg33
g0
(g34
g2
Ntp3492
Rp3493
(dp3494
g38
I1
sbsba(ics475_types
Instance
p3495
(dp3496
g28
(ics475_types
FeatureVector
p3497
(dp3498
g31
(dp3499
I2
F24.08
sI3
F0.875
sI4
F1.0
sI5
F1.0
sI7
F1.0
sI8
F0.085
sI9
F1.0
sI10
F1.0
sI11
F4.0
sI13
F1.0
sI14
F254.0
sI15
F1950.0
sI16
F1.0
sI35
F1.0
sI21
F1.0
ssbsg33
g0
(g34
g2
Ntp3500
Rp3501
(dp3502
g38
I0
sbsba(ics475_types
Instance
p3503
(dp3504
g28
(ics475_types
FeatureVector
p3505
(dp3506
g31
(dp3507
I32
F1.0
sI2
F47.83
sI3
F4.165
sI4
F1.0
sI5
F1.0
sI39
F1.0
sI8
F0.085
sI9
F1.0
sI12
F1.0
sI13
F1.0
sI14
F520.0
sI16
F1.0
sI20
F1.0
ssbsg33
g0
(g34
g2
Ntp3508
Rp3509
(dp3510
g38
I0
sbsba(ics475_types
Instance
p3511
(dp3512
g28
(ics475_types
FeatureVector
p3513
(dp3514
g31
(dp3515
I2
F18.25
sI3
F0.165
sI4
F1.0
sI5
F1.0
sI7
F1.0
sI8
F0.25
sI9
F1.0
sI12
F1.0
sI34
F1.0
sI14
F280.0
sI16
F1.0
sI20
F1.0
sI22
F1.0
ssbsg33
g0
(g34
g2
Ntp3516
Rp3517
(dp3518
g38
I0
sbsba(ics475_types
Instance
p3519
(dp3520
g28
(ics475_types
FeatureVector
p3521
(dp3522
g31
(dp3523
I33
F1.0
sI2
F48.75
sI3
F26.335
sI12
F1.0
sI13
F1.0
sI16
F1.0
sI17
F1.0
sI18
F1.0
sI20
F1.0
sI23
F1.0
sI24
F1.0
ssbsg33
g0
(g34
g2
Ntp3524
Rp3525
(dp3526
g38
I0
sbsba(ics475_types
Instance
p3527
(dp3528
g28
(ics475_types
FeatureVector
p3529
(dp3530
g31
(dp3531
I33
F1.0
sI2
F34.75
sI3
F15.0
sI4
F1.0
sI5
F1.0
sI38
F1.0
sI8
F5.375
sI10
F1.0
sI11
F9.0
sI12
F1.0
sI13
F1.0
sI15
F134.0
sI16
F1.0
sI40
F1.0
ssbsg33
g0
(g34
g2
Ntp3532
Rp3533
(dp3534
g38
I1
sbsba(ics475_types
Instance
p3535
(dp3536
g28
(ics475_types
FeatureVector
p3537
(dp3538
g31
(dp3539
I1
F1.0
sI2
F18.83
sI3
F4.415
sI6
F1.0
sI33
F1.0
sI8
F3.0
sI13
F1.0
sI14
F240.0
sI17
F1.0
sI18
F1.0
sI20
F1.0
sI21
F1.0
sI27
F1.0
ssbsg33
g0
(g34
g2
Ntp3540
Rp3541
(dp3542
g38
I1
sbsba(ics475_types
Instance
p3543
(dp3544
g28
(ics475_types
FeatureVector
p3545
(dp3546
g31
(dp3547
I2
F21.25
sI3
F1.5
sI4
F1.0
sI5
F1.0
sI7
F1.0
sI8
F1.5
sI9
F1.0
sI13
F1.0
sI14
F150.0
sI15
F8.0
sI16
F1.0
sI20
F1.0
sI21
F1.0
sI31
F1.0
ssbsg33
g0
(g34
g2
Ntp3548
Rp3549
(dp3550
g38
I1
sbsba(ics475_types
Instance
p3551
(dp3552
g28
(ics475_types
FeatureVector
p3553
(dp3554
g31
(dp3555
I33
F1.0
sI2
F48.58
sI3
F6.5
sI4
F1.0
sI5
F1.0
sI8
F6.0
sI12
F1.0
sI13
F1.0
sI14
F350.0
sI16
F1.0
sI20
F1.0
sI27
F1.0
sI30
F1.0
ssbsg33
g0
(g34
g2
Ntp3556
Rp3557
(dp3558
g38
I1
sbsba(ics475_types
Instance
p3559
(dp3560
g28
(ics475_types
FeatureVector
p3561
(dp3562
g31
(dp3563
I32
F1.0
sI33
F1.0
sI2
F25.75
sI3
F0.75
sI4
F1.0
sI5
F1.0
sI6
F1.0
sI8
F0.25
sI13
F1.0
sI14
F349.0
sI15
F23.0
sI16
F1.0
sI20
F1.0
sI21
F1.0
ssbsg33
g0
(g34
g2
Ntp3564
Rp3565
(dp3566
g38
I1
sbsba(ics475_types
Instance
p3567
(dp3568
g28
(ics475_types
FeatureVector
p3569
(dp3570
g31
(dp3571
I1
F1.0
sI2
F46.08
sI3
F3.0
sI4
F1.0
sI5
F1.0
sI6
F1.0
sI7
F1.0
sI8
F2.375
sI10
F1.0
sI11
F8.0
sI12
F1.0
sI13
F1.0
sI14
F396.0
sI15
F4159.0
sI33
F1.0
ssbsg33
g0
(g34
g2
Ntp3572
Rp3573
(dp3574
g38
I1
sbsba(ics475_types
Instance
p3575
(dp3576
g28
(ics475_types
FeatureVector
p3577
(dp3578
g31
(dp3579
I2
F30.33
sI3
F0.5
sI4
F1.0
sI5
F1.0
sI8
F0.085
sI9
F1.0
sI12
F1.0
sI34
F1.0
sI14
F252.0
sI16
F1.0
sI20
F1.0
sI22
F1.0
sI27
F1.0
ssbsg33
g0
(g34
g2
Ntp3580
Rp3581
(dp3582
g38
I0
sbsba(ics475_types
Instance
p3583
(dp3584
g28
(ics475_types
FeatureVector
p3585
(dp3586
g31
(dp3587
I33
F1.0
sI2
F34.0
sI3
F4.5
sI4
F1.0
sI5
F1.0
sI7
F1.0
sI8
F1.0
sI12
F1.0
sI13
F1.0
sI14
F240.0
sI16
F1.0
sI20
F1.0
sI37
F1.0
ssbsg33
g0
(g34
g2
Ntp3588
Rp3589
(dp3590
g38
I0
sbsba(ics475_types
Instance
p3591
(dp3592
g28
(ics475_types
FeatureVector
p3593
(dp3594
g31
(dp3595
I33
F1.0
sI2
F24.58
sI3
F12.5
sI4
F1.0
sI5
F1.0
sI7
F1.0
sI8
F0.875
sI12
F1.0
sI13
F1.0
sI14
F260.0
sI16
F1.0
sI20
F1.0
sI31
F1.0
ssbsg33
g0
(g34
g2
Ntp3596
Rp3597
(dp3598
g38
I0
sbsba(ics475_types
Instance
p3599
(dp3600
g28
(ics475_types
FeatureVector
p3601
(dp3602
g31
(dp3603
I2
F32.33
sI3
F2.5
sI4
F1.0
sI5
F1.0
sI6
F1.0
sI7
F1.0
sI8
F1.25
sI9
F1.0
sI12
F1.0
sI13
F1.0
sI14
F280.0
sI16
F1.0
sI20
F1.0
ssbsg33
g0
(g34
g2
Ntp3604
Rp3605
(dp3606
g38
I0
sbsba(ics475_types
Instance
p3607
(dp3608
g28
(ics475_types
FeatureVector
p3609
(dp3610
g31
(dp3611
I33
F1.0
sI2
F20.42
sI3
F1.835
sI4
F1.0
sI5
F1.0
sI6
F1.0
sI7
F1.0
sI8
F2.25
sI10
F1.0
sI11
F1.0
sI13
F1.0
sI14
F100.0
sI15
F150.0
sI16
F1.0
sI21
F1.0
ssbsg33
g0
(g34
g2
Ntp3612
Rp3613
(dp3614
g38
I1
sbsba(ics475_types
Instance
p3615
(dp3616
g28
(ics475_types
FeatureVector
p3617
(dp3618
g31
(dp3619
I33
F1.0
sI2
F29.17
sI3
F3.5
sI4
F1.0
sI5
F1.0
sI7
F1.0
sI8
F3.5
sI10
F1.0
sI11
F3.0
sI12
F1.0
sI13
F1.0
sI14
F329.0
sI16
F1.0
sI31
F1.0
ssbsg33
g0
(g34
g2
Ntp3620
Rp3621
(dp3622
g38
I0
sbsba(ics475_types
Instance
p3623
(dp3624
g28
(ics475_types
FeatureVector
p3625
(dp3626
g31
(dp3627
I2
F51.83
sI3
F3.0
sI8
F1.5
sI9
F1.0
sI13
F1.0
sI14
F180.0
sI15
F4.0
sI16
F1.0
sI17
F1.0
sI18
F1.0
sI20
F1.0
sI21
F1.0
sI23
F1.0
sI24
F1.0
ssbsg33
g0
(g34
g2
Ntp3628
Rp3629
(dp3630
g38
I0
sbsba(ics475_types
Instance
p3631
(dp3632
g28
(ics475_types
FeatureVector
p3633
(dp3634
g31
(dp3635
I1
F1.0
sI2
F29.5
sI3
F0.46
sI4
F1.0
sI5
F1.0
sI7
F1.0
sI8
F0.54
sI10
F1.0
sI11
F4.0
sI13
F1.0
sI14
F380.0
sI15
F500.0
sI19
F1.0
sI21
F1.0
sI33
F1.0
ssbsg33
g0
(g34
g2
Ntp3636
Rp3637
(dp3638
g38
I1
sbsba(ics475_types
Instance
p3639
(dp3640
g28
(ics475_types
FeatureVector
p3641
(dp3642
g31
(dp3643
I2
F33.58
sI3
F0.335
sI36
F1.0
sI7
F1.0
sI8
F0.085
sI9
F1.0
sI13
F1.0
sI14
F180.0
sI16
F1.0
sI17
F1.0
sI18
F1.0
sI20
F1.0
sI21
F1.0
ssbsg33
g0
(g34
g2
Ntp3644
Rp3645
(dp3646
g38
I0
sbsba(ics475_types
Instance
p3647
(dp3648
g28
(ics475_types
FeatureVector
p3649
(dp3650
g31
(dp3651
I1
F1.0
sI2
F45.83
sI3
F10.5
sI4
F1.0
sI5
F1.0
sI7
F1.0
sI8
F5.0
sI10
F1.0
sI11
F7.0
sI12
F1.0
sI13
F1.0
sI33
F1.0
sI30
F1.0
ssbsg33
g0
(g34
g2
Ntp3652
Rp3653
(dp3654
g38
I1
sbsba(ics475_types
Instance
p3655
(dp3656
g28
(ics475_types
FeatureVector
p3657
(dp3658
g31
(dp3659
I2
F48.08
sI3
F6.04
sI4
F1.0
sI5
F1.0
sI7
F1.0
sI8
F0.04
sI9
F1.0
sI13
F1.0
sI15
F2690.0
sI16
F1.0
sI19
F1.0
sI20
F1.0
sI21
F1.0
ssbsg33
g0
(g34
g2
Ntp3660
Rp3661
(dp3662
g38
I1
sbsba(ics475_types
Instance
p3663
(dp3664
g28
(ics475_types
FeatureVector
p3665
(dp3666
g31
(dp3667
I32
F1.0
sI2
F33.58
sI3
F0.25
sI4
F1.0
sI5
F1.0
sI8
F4.0
sI9
F1.0
sI12
F1.0
sI14
F420.0
sI16
F1.0
sI20
F1.0
sI22
F1.0
sI25
F1.0
ssbsg33
g0
(g34
g2
Ntp3668
Rp3669
(dp3670
g38
I0
sbsba(ics475_types
Instance
p3671
(dp3672
g28
(ics475_types
FeatureVector
p3673
(dp3674
g31
(dp3675
I32
F1.0
sI2
F34.42
sI3
F1.335
sI4
F1.0
sI5
F1.0
sI8
F0.125
sI9
F1.0
sI12
F1.0
sI13
F1.0
sI14
F440.0
sI15
F4500.0
sI16
F1.0
sI20
F1.0
sI25
F1.0
ssbsg33
g0
(g34
g2
Ntp3676
Rp3677
(dp3678
g38
I0
sbsba(ics475_types
Instance
p3679
(dp3680
g28
(ics475_types
FeatureVector
p3681
(dp3682
g31
(dp3683
I2
F22.5
sI3
F0.125
sI7
F1.0
sI8
F0.125
sI9
F1.0
sI13
F1.0
sI14
F200.0
sI15
F70.0
sI16
F1.0
sI17
F1.0
sI18
F1.0
sI19
F1.0
sI20
F1.0
sI21
F1.0
ssbsg33
g0
(g34
g2
Ntp3684
Rp3685
(dp3686
g38
I0
sbsba(ics475_types
Instance
p3687
(dp3688
g28
(ics475_types
FeatureVector
p3689
(dp3690
g31
(dp3691
I1
F1.0
sI2
F68.67
sI3
F15.0
sI4
F1.0
sI5
F1.0
sI33
F1.0
sI41
F1.0
sI10
F1.0
sI11
F14.0
sI13
F1.0
sI15
F3376.0
sI21
F1.0
sI42
F1.0
ssbsg33
g0
(g34
g2
Ntp3692
Rp3693
(dp3694
g38
I1
sbsba(ics475_types
Instance
p3695
(dp3696
g28
(ics475_types
FeatureVector
p3697
(dp3698
g31
(dp3699
I1
F1.0
sI2
F30.25
sI3
F5.5
sI4
F1.0
sI5
F1.0
sI7
F1.0
sI8
F5.5
sI9
F1.0
sI12
F1.0
sI14
F100.0
sI19
F1.0
sI20
F1.0
sI22
F1.0
ssbsg33
g0
(g34
g2
Ntp3700
Rp3701
(dp3702
g38
I0
sbsba(ics475_types
Instance
p3703
(dp3704
g28
(ics475_types
FeatureVector
p3705
(dp3706
g31
(dp3707
I32
F1.0
sI2
F19.17
sI35
F1.0
sI9
F1.0
sI12
F1.0
sI14
F500.0
sI15
F1.0
sI16
F1.0
sI17
F1.0
sI18
F1.0
sI20
F1.0
sI22
F1.0
ssbsg33
g0
(g34
g2
Ntp3708
Rp3709
(dp3710
g38
I1
sbsba(ics475_types
Instance
p3711
(dp3712
g28
(ics475_types
FeatureVector
p3713
(dp3714
g31
(dp3715
I33
F1.0
sI2
F28.25
sI3
F5.125
sI4
F1.0
sI5
F1.0
sI7
F1.0
sI8
F4.75
sI10
F1.0
sI11
F2.0
sI13
F1.0
sI14
F420.0
sI15
F7.0
sI16
F1.0
sI21
F1.0
sI39
F1.0
ssbsg33
g0
(g34
g2
Ntp3716
Rp3717
(dp3718
g38
I1
sbsba(ics475_types
Instance
p3719
(dp3720
g28
(ics475_types
FeatureVector
p3721
(dp3722
g31
(dp3723
I33
F1.0
sI2
F23.92
sI3
F1.5
sI4
F1.0
sI5
F1.0
sI8
F1.875
sI10
F1.0
sI11
F6.0
sI13
F1.0
sI14
F200.0
sI15
F327.0
sI16
F1.0
sI34
F1.0
sI21
F1.0
sI27
F1.0
ssbsg33
g0
(g34
g2
Ntp3724
Rp3725
(dp3726
g38
I1
sbsba(ics475_types
Instance
p3727
(dp3728
g28
(ics475_types
FeatureVector
p3729
(dp3730
g31
(dp3731
I2
F25.58
sI3
F0.335
sI4
F1.0
sI5
F1.0
sI8
F3.5
sI9
F1.0
sI12
F1.0
sI13
F1.0
sI14
F340.0
sI16
F1.0
sI19
F1.0
sI20
F1.0
sI27
F1.0
ssbsg33
g0
(g34
g2
Ntp3732
Rp3733
(dp3734
g38
I0
sbsba(ics475_types
Instance
p3735
(dp3736
g28
(ics475_types
FeatureVector
p3737
(dp3738
g31
(dp3739
I33
F1.0
sI2
F51.42
sI3
F0.04
sI4
F1.0
sI5
F1.0
sI39
F1.0
sI8
F0.04
sI13
F1.0
sI15
F3000.0
sI16
F1.0
sI20
F1.0
sI21
F1.0
sI27
F1.0
ssbsg33
g0
(g34
g2
Ntp3740
Rp3741
(dp3742
g38
I1
sbsba(ics475_types
Instance
p3743
(dp3744
g28
(ics475_types
FeatureVector
p3745
(dp3746
g31
(dp3747
I1
F1.0
sI2
F23.58
sI3
F0.585
sI8
F0.125
sI9
F1.0
sI13
F1.0
sI14
F120.0
sI15
F87.0
sI17
F1.0
sI18
F1.0
sI20
F1.0
sI21
F1.0
sI23
F1.0
sI24
F1.0
ssbsg33
g0
(g34
g2
Ntp3748
Rp3749
(dp3750
g38
I0
sbsba(ics475_types
Instance
p3751
(dp3752
g28
(ics475_types
FeatureVector
p3753
(dp3754
g31
(dp3755
I33
F1.0
sI2
F36.67
sI3
F4.415
sI7
F1.0
sI8
F0.25
sI10
F1.0
sI11
F10.0
sI12
F1.0
sI13
F1.0
sI14
F320.0
sI16
F1.0
sI17
F1.0
sI18
F1.0
sI19
F1.0
ssbsg33
g0
(g34
g2
Ntp3756
Rp3757
(dp3758
g38
I1
sbsba(ics475_types
Instance
p3759
(dp3760
g28
(ics475_types
FeatureVector
p3761
(dp3762
g31
(dp3763
I2
F30.17
sI3
F1.085
sI6
F1.0
sI7
F1.0
sI8
F0.04
sI9
F1.0
sI13
F1.0
sI14
F170.0
sI15
F179.0
sI16
F1.0
sI17
F1.0
sI18
F1.0
sI20
F1.0
sI21
F1.0
ssbsg33
g0
(g34
g2
Ntp3764
Rp3765
(dp3766
g38
I0
sbsba(ics475_types
Instance
p3767
(dp3768
g28
(ics475_types
FeatureVector
p3769
(dp3770
g31
(dp3771
I2
F50.75
sI3
F0.585
sI4
F1.0
sI5
F1.0
sI9
F1.0
sI13
F1.0
sI14
F145.0
sI16
F1.0
sI20
F1.0
sI21
F1.0
sI23
F1.0
sI24
F1.0
ssbsg33
g0
(g34
g2
Ntp3772
Rp3773
(dp3774
g38
I0
sbsba(ics475_types
Instance
p3775
(dp3776
g28
(ics475_types
FeatureVector
p3777
(dp3778
g31
(dp3779
I1
F1.0
sI2
F20.75
sI3
F9.54
sI4
F1.0
sI5
F1.0
sI7
F1.0
sI8
F0.04
sI9
F1.0
sI13
F1.0
sI14
F200.0
sI15
F1000.0
sI20
F1.0
sI21
F1.0
sI25
F1.0
ssbsg33
g0
(g34
g2
Ntp3780
Rp3781
(dp3782
g38
I0
sbsba(ics475_types
Instance
p3783
(dp3784
g28
(ics475_types
FeatureVector
p3785
(dp3786
g31
(dp3787
I33
F1.0
sI2
F49.58
sI3
F19.0
sI4
F1.0
sI5
F1.0
sI10
F1.0
sI11
F1.0
sI13
F1.0
sI14
F94.0
sI16
F1.0
sI21
F1.0
sI23
F1.0
sI24
F1.0
ssbsg33
g0
(g34
g2
Ntp3788
Rp3789
(dp3790
g38
I0
sbsba(ics475_types
Instance
p3791
(dp3792
g28
(ics475_types
FeatureVector
p3793
(dp3794
g31
(dp3795
I2
F39.5
sI3
F1.625
sI4
F1.0
sI5
F1.0
sI6
F1.0
sI7
F1.0
sI8
F1.5
sI9
F1.0
sI13
F1.0
sI15
F316.0
sI16
F1.0
sI20
F1.0
sI21
F1.0
ssbsg33
g0
(g34
g2
Ntp3796
Rp3797
(dp3798
g38
I0
sbsba(ics475_types
Instance
p3799
(dp3800
g28
(ics475_types
FeatureVector
p3801
(dp3802
g31
(dp3803
I1
F1.0
sI2
F23.0
sI3
F11.75
sI4
F1.0
sI5
F1.0
sI33
F1.0
sI8
F0.5
sI10
F1.0
sI11
F2.0
sI12
F1.0
sI13
F1.0
sI14
F300.0
sI15
F551.0
sI39
F1.0
sI27
F1.0
ssbsg33
g0
(g34
g2
Ntp3804
Rp3805
(dp3806
g38
I1
sbsba(ics475_types
Instance
p3807
(dp3808
g28
(ics475_types
FeatureVector
p3809
(dp3810
g31
(dp3811
I1
F1.0
sI2
F36.75
sI3
F5.125
sI4
F1.0
sI5
F1.0
sI7
F1.0
sI8
F5.0
sI41
F1.0
sI12
F1.0
sI13
F1.0
sI15
F4000.0
sI20
F1.0
sI33
F1.0
ssbsg33
g0
(g34
g2
Ntp3812
Rp3813
(dp3814
g38
I1
sbsba(ics475_types
Instance
p3815
(dp3816
g28
(ics475_types
FeatureVector
p3817
(dp3818
g31
(dp3819
I2
F36.75
sI3
F0.125
sI6
F1.0
sI7
F1.0
sI8
F1.5
sI9
F1.0
sI12
F1.0
sI13
F1.0
sI14
F232.0
sI15
F113.0
sI16
F1.0
sI17
F1.0
sI18
F1.0
sI20
F1.0
ssbsg33
g0
(g34
g2
Ntp3820
Rp3821
(dp3822
g38
I1
sbsba(ics475_types
Instance
p3823
(dp3824
g28
(ics475_types
FeatureVector
p3825
(dp3826
g31
(dp3827
I2
F22.75
sI3
F11.5
sI4
F1.0
sI5
F1.0
sI7
F1.0
sI8
F0.415
sI9
F1.0
sI13
F1.0
sI16
F1.0
sI20
F1.0
sI21
F1.0
sI25
F1.0
ssbsg33
g0
(g34
g2
Ntp3828
Rp3829
(dp3830
g38
I0
sbsba(ics475_types
Instance
p3831
(dp3832
g28
(ics475_types
FeatureVector
p3833
(dp3834
g31
(dp3835
I33
F1.0
sI2
F37.33
sI3
F6.5
sI4
F1.0
sI5
F1.0
sI8
F4.25
sI10
F1.0
sI11
F12.0
sI12
F1.0
sI13
F1.0
sI14
F93.0
sI16
F1.0
sI35
F1.0
sI27
F1.0
ssbsg33
g0
(g34
g2
Ntp3836
Rp3837
(dp3838
g38
I1
sbsba(ics475_types
Instance
p3839
(dp3840
g28
(ics475_types
FeatureVector
p3841
(dp3842
g31
(dp3843
I33
F1.0
sI2
F23.58
sI3
F0.46
sI7
F1.0
sI8
F2.625
sI10
F1.0
sI11
F6.0
sI12
F1.0
sI13
F1.0
sI14
F208.0
sI15
F347.0
sI16
F1.0
sI17
F1.0
sI18
F1.0
sI31
F1.0
ssbsg33
g0
(g34
g2
Ntp3844
Rp3845
(dp3846
g38
I0
sbsba(ics475_types
Instance
p3847
(dp3848
g28
(ics475_types
FeatureVector
p3849
(dp3850
g31
(dp3851
I2
F22.5
sI3
F11.5
sI7
F1.0
sI8
F1.5
sI9
F1.0
sI12
F1.0
sI13
F1.0
sI15
F4000.0
sI16
F1.0
sI17
F1.0
sI18
F1.0
sI35
F1.0
sI20
F1.0
ssbsg33
g0
(g34
g2
Ntp3852
Rp3853
(dp3854
g38
I0
sbsba(ics475_types
Instance
p3855
(dp3856
g28
(ics475_types
FeatureVector
p3857
(dp3858
g31
(dp3859
I1
F1.0
sI2
F18.58
sI3
F10.0
sI4
F1.0
sI5
F1.0
sI7
F1.0
sI8
F0.415
sI9
F1.0
sI13
F1.0
sI14
F80.0
sI15
F42.0
sI34
F1.0
sI20
F1.0
sI21
F1.0
ssbsg33
g0
(g34
g2
Ntp3860
Rp3861
(dp3862
g38
I0
sbsba(ics475_types
Instance
p3863
(dp3864
g28
(ics475_types
FeatureVector
p3865
(dp3866
g31
(dp3867
I32
F1.0
sI1
F1.0
sI2
F33.75
sI3
F0.75
sI4
F1.0
sI5
F1.0
sI33
F1.0
sI8
F1.0
sI10
F1.0
sI11
F3.0
sI12
F1.0
sI13
F1.0
sI14
F212.0
sI19
F1.0
ssbsg33
g0
(g34
g2
Ntp3868
Rp3869
(dp3870
g38
I0
sbsba(ics475_types
Instance
p3871
(dp3872
g28
(ics475_types
FeatureVector
p3873
(dp3874
g31
(dp3875
I1
F1.0
sI2
F36.0
sI3
F1.0
sI4
F1.0
sI5
F1.0
sI6
F1.0
sI7
F1.0
sI8
F2.0
sI10
F1.0
sI11
F11.0
sI13
F1.0
sI15
F456.0
sI21
F1.0
sI33
F1.0
ssbsg33
g0
(g34
g2
Ntp3876
Rp3877
(dp3878
g38
I1
sbsba(ics475_types
Instance
p3879
(dp3880
g28
(ics475_types
FeatureVector
p3881
(dp3882
g31
(dp3883
I2
F31.83
sI3
F0.04
sI7
F1.0
sI8
F0.04
sI9
F1.0
sI13
F1.0
sI16
F1.0
sI17
F1.0
sI18
F1.0
sI35
F1.0
sI20
F1.0
sI21
F1.0
ssbsg33
g0
(g34
g2
Ntp3884
Rp3885
(dp3886
g38
I0
sbsba(ics475_types
Instance
p3887
(dp3888
g28
(ics475_types
FeatureVector
p3889
(dp3890
g31
(dp3891
I33
F1.0
sI2
F59.67
sI3
F1.54
sI4
F1.0
sI5
F1.0
sI7
F1.0
sI8
F0.125
sI12
F1.0
sI13
F1.0
sI14
F260.0
sI16
F1.0
sI20
F1.0
sI30
F1.0
ssbsg33
g0
(g34
g2
Ntp3892
Rp3893
(dp3894
g38
I1
sbsba(ics475_types
Instance
p3895
(dp3896
g28
(ics475_types
FeatureVector
p3897
(dp3898
g31
(dp3899
I2
F42.75
sI3
F4.085
sI4
F1.0
sI5
F1.0
sI7
F1.0
sI8
F0.04
sI9
F1.0
sI13
F1.0
sI14
F108.0
sI15
F100.0
sI16
F1.0
sI20
F1.0
sI21
F1.0
sI37
F1.0
ssbsg33
g0
(g34
g2
Ntp3900
Rp3901
(dp3902
g38
I0
sbsba(ics475_types
Instance
p3903
(dp3904
g28
(ics475_types
FeatureVector
p3905
(dp3906
g31
(dp3907
I33
F1.0
sI2
F76.75
sI3
F22.29
sI4
F1.0
sI5
F1.0
sI8
F12.75
sI41
F1.0
sI10
F1.0
sI11
F1.0
sI12
F1.0
sI13
F1.0
sI15
F109.0
sI16
F1.0
sI42
F1.0
ssbsg33
g0
(g34
g2
Ntp3908
Rp3909
(dp3910
g38
I1
sbsba(ics475_types
Instance
p3911
(dp3912
g28
(ics475_types
FeatureVector
p3913
(dp3914
g31
(dp3915
I33
F1.0
sI2
F21.33
sI3
F10.5
sI4
F1.0
sI5
F1.0
sI6
F1.0
sI7
F1.0
sI8
F3.0
sI12
F1.0
sI13
F1.0
sI16
F1.0
sI20
F1.0
ssbsg33
g0
(g34
g2
Ntp3916
Rp3917
(dp3918
g38
I1
sbsba(ics475_types
Instance
p3919
(dp3920
g28
(ics475_types
FeatureVector
p3921
(dp3922
g31
(dp3923
I33
F1.0
sI2
F30.17
sI3
F6.5
sI4
F1.0
sI5
F1.0
sI7
F1.0
sI8
F3.125
sI10
F1.0
sI11
F8.0
sI13
F1.0
sI14
F330.0
sI15
F1200.0
sI16
F1.0
sI21
F1.0
sI36
F1.0
ssbsg33
g0
(g34
g2
Ntp3924
Rp3925
(dp3926
g38
I1
sbsba(ics475_types
Instance
p3927
(dp3928
g28
(ics475_types
FeatureVector
p3929
(dp3930
g31
(dp3931
I1
F1.0
sI2
F26.92
sI3
F13.5
sI4
F1.0
sI5
F1.0
sI33
F1.0
sI8
F5.0
sI10
F1.0
sI11
F2.0
sI13
F1.0
sI15
F5000.0
sI21
F1.0
sI27
F1.0
sI30
F1.0
ssbsg33
g0
(g34
g2
Ntp3932
Rp3933
(dp3934
g38
I1
sbsba(ics475_types
Instance
p3935
(dp3936
g28
(ics475_types
FeatureVector
p3937
(dp3938
g31
(dp3939
I32
F1.0
sI33
F1.0
sI2
F49.5
sI3
F7.585
sI4
F1.0
sI5
F1.0
sI8
F7.585
sI10
F1.0
sI11
F15.0
sI12
F1.0
sI13
F1.0
sI15
F5000.0
sI16
F1.0
sI25
F1.0
ssbsg33
g0
(g34
g2
Ntp3940
Rp3941
(dp3942
g38
I1
sbsba(ics475_types
Instance
p3943
(dp3944
g28
(ics475_types
FeatureVector
p3945
(dp3946
g31
(dp3947
I1
F1.0
sI2
F38.58
sI3
F5.0
sI4
F1.0
sI5
F1.0
sI7
F1.0
sI8
F13.5
sI12
F1.0
sI13
F1.0
sI14
F980.0
sI20
F1.0
sI36
F1.0
sI33
F1.0
ssbsg33
g0
(g34
g2
Ntp3948
Rp3949
(dp3950
g38
I0
sbsba(ics475_types
Instance
p3951
(dp3952
g28
(ics475_types
FeatureVector
p3953
(dp3954
g31
(dp3955
I2
F33.67
sI3
F2.165
sI4
F1.0
sI5
F1.0
sI6
F1.0
sI7
F1.0
sI8
F1.5
sI9
F1.0
sI46
F1.0
sI14
F120.0
sI16
F1.0
sI20
F1.0
sI21
F1.0
ssbsg33
g0
(g34
g2
Ntp3956
Rp3957
(dp3958
g38
I0
sbsba(ics475_types
Instance
p3959
(dp3960
g28
(ics475_types
FeatureVector
p3961
(dp3962
g31
(dp3963
I2
F19.5
sI3
F0.29
sI4
F1.0
sI5
F1.0
sI7
F1.0
sI8
F0.29
sI9
F1.0
sI13
F1.0
sI14
F280.0
sI15
F364.0
sI16
F1.0
sI19
F1.0
sI20
F1.0
sI21
F1.0
ssbsg33
g0
(g34
g2
Ntp3964
Rp3965
(dp3966
g38
I0
sbsba(ics475_types
Instance
p3967
(dp3968
g28
(ics475_types
FeatureVector
p3969
(dp3970
g31
(dp3971
I32
F1.0
sI33
F1.0
sI2
F28.25
sI3
F5.04
sI6
F1.0
sI8
F1.5
sI10
F1.0
sI11
F8.0
sI12
F1.0
sI13
F1.0
sI14
F144.0
sI15
F7.0
sI16
F1.0
sI17
F1.0
sI18
F1.0
ssbsg33
g0
(g34
g2
Ntp3972
Rp3973
(dp3974
g38
I1
sbsba(ics475_types
Instance
p3975
(dp3976
g28
(ics475_types
FeatureVector
p3977
(dp3978
g31
(dp3979
I1
F1.0
sI2
F22.67
sI3
F7.0
sI4
F1.0
sI5
F1.0
sI6
F1.0
sI7
F1.0
sI8
F0.165
sI9
F1.0
sI13
F1.0
sI14
F160.0
sI20
F1.0
sI21
F1.0
ssbsg33
g0
(g34
g2
Ntp3980
Rp3981
(dp3982
g38
I0
sbsba(ics475_types
Instance
p3983
(dp3984
g28
(ics475_types
FeatureVector
p3985
(dp3986
g31
(dp3987
I2
F36.17
sI3
F18.125
sI4
F1.0
sI5
F1.0
sI7
F1.0
sI8
F0.085
sI9
F1.0
sI13
F1.0
sI14
F320.0
sI15
F3552.0
sI16
F1.0
sI20
F1.0
sI21
F1.0
sI31
F1.0
ssbsg33
g0
(g34
g2
Ntp3988
Rp3989
(dp3990
g38
I0
sbsba(ics475_types
Instance
p3991
(dp3992
g28
(ics475_types
FeatureVector
p3993
(dp3994
g31
(dp3995
I33
F1.0
sI2
F45.17
sI3
F1.5
sI4
F1.0
sI5
F1.0
sI6
F1.0
sI7
F1.0
sI8
F2.5
sI12
F1.0
sI13
F1.0
sI14
F140.0
sI16
F1.0
sI20
F1.0
ssbsg33
g0
(g34
g2
Ntp3996
Rp3997
(dp3998
g38
I0
sbsba(ics475_types
Instance
p3999
(dp4000
g28
(ics475_types
FeatureVector
p4001
(dp4002
g31
(dp4003
I2
F52.42
sI3
F1.5
sI4
F1.0
sI5
F1.0
sI7
F1.0
sI8
F3.75
sI9
F1.0
sI12
F1.0
sI13
F1.0
sI15
F350.0
sI16
F1.0
sI34
F1.0
sI20
F1.0
ssbsg33
g0
(g34
g2
Ntp4004
Rp4005
(dp4006
g38
I0
sbsba(ics475_types
Instance
p4007
(dp4008
g28
(ics475_types
FeatureVector
p4009
(dp4010
g31
(dp4011
I2
F29.67
sI3
F0.75
sI6
F1.0
sI7
F1.0
sI8
F0.04
sI9
F1.0
sI13
F1.0
sI14
F240.0
sI16
F1.0
sI17
F1.0
sI18
F1.0
sI20
F1.0
sI21
F1.0
ssbsg33
g0
(g34
g2
Ntp4012
Rp4013
(dp4014
g38
I0
sbsba(ics475_types
Instance
p4015
(dp4016
g28
(ics475_types
FeatureVector
p4017
(dp4018
g31
(dp4019
I33
F1.0
sI2
F56.75
sI3
F12.25
sI4
F1.0
sI5
F1.0
sI7
F1.0
sI8
F1.25
sI10
F1.0
sI11
F4.0
sI12
F1.0
sI13
F1.0
sI14
F200.0
sI16
F1.0
sI35
F1.0
ssbsg33
g0
(g34
g2
Ntp4020
Rp4021
(dp4022
g38
I1
sbsba(ics475_types
Instance
p4023
(dp4024
g28
(ics475_types
FeatureVector
p4025
(dp4026
g31
(dp4027
I33
F1.0
sI2
F26.67
sI3
F4.25
sI4
F1.0
sI5
F1.0
sI7
F1.0
sI8
F4.29
sI10
F1.0
sI11
F1.0
sI12
F1.0
sI13
F1.0
sI14
F120.0
sI16
F1.0
sI36
F1.0
ssbsg33
g0
(g34
g2
Ntp4028
Rp4029
(dp4030
g38
I1
sbsba(ics475_types
Instance
p4031
(dp4032
g28
(ics475_types
FeatureVector
p4033
(dp4034
g31
(dp4035
I1
F1.0
sI2
F35.75
sI3
F0.915
sI4
F1.0
sI5
F1.0
sI7
F1.0
sI8
F0.75
sI10
F1.0
sI11
F4.0
sI13
F1.0
sI15
F1583.0
sI21
F1.0
sI33
F1.0
sI37
F1.0
ssbsg33
g0
(g34
g2
Ntp4036
Rp4037
(dp4038
g38
I1
sbsba(ics475_types
Instance
p4039
(dp4040
g28
(ics475_types
FeatureVector
p4041
(dp4042
g31
(dp4043
I2
F41.17
sI3
F1.25
sI7
F1.0
sI8
F0.25
sI9
F1.0
sI13
F1.0
sI15
F195.0
sI16
F1.0
sI17
F1.0
sI18
F1.0
sI20
F1.0
sI21
F1.0
sI31
F1.0
ssbsg33
g0
(g34
g2
Ntp4044
Rp4045
(dp4046
g38
I0
sbsba(ics475_types
Instance
p4047
(dp4048
g28
(ics475_types
FeatureVector
p4049
(dp4050
g31
(dp4051
I1
F1.0
sI2
F23.25
sI3
F5.875
sI4
F1.0
sI5
F1.0
sI7
F1.0
sI8
F3.17
sI10
F1.0
sI11
F10.0
sI13
F1.0
sI14
F120.0
sI15
F245.0
sI21
F1.0
sI33
F1.0
sI30
F1.0
ssbsg33
g0
(g34
g2
Ntp4052
Rp4053
(dp4054
g38
I1
sbsba(ics475_types
Instance
p4055
(dp4056
g28
(ics475_types
FeatureVector
p4057
(dp4058
g31
(dp4059
I2
F28.0
sI3
F3.0
sI4
F1.0
sI5
F1.0
sI7
F1.0
sI8
F0.75
sI9
F1.0
sI12
F1.0
sI13
F1.0
sI14
F300.0
sI15
F67.0
sI16
F1.0
sI20
F1.0
sI31
F1.0
ssbsg33
g0
(g34
g2
Ntp4060
Rp4061
(dp4062
g38
I0
sbsba(ics475_types
Instance
p4063
(dp4064
g28
(ics475_types
FeatureVector
p4065
(dp4066
g31
(dp4067
I2
F16.25
sI37
F1.0
sI7
F1.0
sI8
F0.25
sI9
F1.0
sI13
F1.0
sI14
F60.0
sI16
F1.0
sI17
F1.0
sI18
F1.0
sI20
F1.0
sI21
F1.0
ssbsg33
g0
(g34
g2
Ntp4068
Rp4069
(dp4070
g38
I0
sbsba(ics475_types
Instance
p4071
(dp4072
g28
(ics475_types
FeatureVector
p4073
(dp4074
g31
(dp4075
I1
F1.0
sI2
F23.0
sI3
F1.835
sI4
F1.0
sI5
F1.0
sI9
F1.0
sI10
F1.0
sI11
F1.0
sI13
F1.0
sI14
F200.0
sI15
F53.0
sI21
F1.0
sI28
F1.0
sI29
F1.0
ssbsg33
g0
(g34
g2
Ntp4076
Rp4077
(dp4078
g38
I0
sbsba(ics475_types
Instance
p4079
(dp4080
g28
(ics475_types
FeatureVector
p4081
(dp4082
g31
(dp4083
I33
F1.0
sI2
F23.33
sI3
F1.5
sI4
F1.0
sI5
F1.0
sI6
F1.0
sI8
F1.415
sI13
F1.0
sI14
F422.0
sI15
F200.0
sI16
F1.0
sI20
F1.0
sI21
F1.0
sI27
F1.0
ssbsg33
g0
(g34
g2
Ntp4084
Rp4085
(dp4086
g38
I1
sbsba(ics475_types
Instance
p4087
(dp4088
g28
(ics475_types
FeatureVector
p4089
(dp4090
g31
(dp4091
I1
F1.0
sI2
F18.08
sI3
F0.375
sI36
F1.0
sI8
F10.0
sI9
F1.0
sI12
F1.0
sI45
F1.0
sI14
F300.0
sI44
F1.0
sI20
F1.0
sI22
F1.0
sI24
F1.0
ssbsg33
g0
(g34
g2
Ntp4092
Rp4093
(dp4094
g38
I1
sbsba(ics475_types
Instance
p4095
(dp4096
g28
(ics475_types
FeatureVector
p4097
(dp4098
g31
(dp4099
I33
F1.0
sI2
F35.25
sI3
F3.165
sI4
F1.0
sI5
F1.0
sI39
F1.0
sI8
F3.75
sI12
F1.0
sI13
F1.0
sI14
F680.0
sI16
F1.0
sI20
F1.0
sI27
F1.0
ssbsg33
g0
(g34
g2
Ntp4100
Rp4101
(dp4102
g38
I0
sbsba(ics475_types
Instance
p4103
(dp4104
g28
(ics475_types
FeatureVector
p4105
(dp4106
g31
(dp4107
I2
F34.83
sI3
F2.5
sI7
F1.0
sI8
F3.0
sI9
F1.0
sI14
F200.0
sI16
F1.0
sI17
F1.0
sI18
F1.0
sI20
F1.0
sI21
F1.0
sI22
F1.0
sI31
F1.0
ssbsg33
g0
(g34
g2
Ntp4108
Rp4109
(dp4110
g38
I0
sbsba(ics475_types
Instance
p4111
(dp4112
g28
(ics475_types
FeatureVector
p4113
(dp4114
g31
(dp4115
I33
F1.0
sI2
F73.42
sI3
F17.75
sI4
F1.0
sI5
F1.0
sI12
F1.0
sI13
F1.0
sI16
F1.0
sI20
F1.0
sI23
F1.0
sI24
F1.0
ssbsg33
g0
(g34
g2
Ntp4116
Rp4117
(dp4118
g38
I1
sbsba(ics475_types
Instance
p4119
(dp4120
g28
(ics475_types
FeatureVector
p4121
(dp4122
g31
(dp4123
I2
F23.0
sI3
F0.75
sI4
F1.0
sI5
F1.0
sI7
F1.0
sI8
F0.5
sI9
F1.0
sI12
F1.0
sI14
F320.0
sI16
F1.0
sI35
F1.0
sI20
F1.0
sI22
F1.0
ssbsg33
g0
(g34
g2
Ntp4124
Rp4125
(dp4126
g38
I0
sbsba(ics475_types
Instance
p4127
(dp4128
g28
(ics475_types
FeatureVector
p4129
(dp4130
g31
(dp4131
I1
F1.0
sI2
F28.17
sI3
F0.375
sI4
F1.0
sI5
F1.0
sI7
F1.0
sI8
F0.585
sI10
F1.0
sI11
F4.0
sI13
F1.0
sI14
F80.0
sI21
F1.0
sI33
F1.0
sI30
F1.0
ssbsg33
g0
(g34
g2
Ntp4132
Rp4133
(dp4134
g38
I1
sbsba(ics475_types
Instance
p4135
(dp4136
g28
(ics475_types
FeatureVector
p4137
(dp4138
g31
(dp4139
I2
F18.08
sI3
F6.75
sI7
F1.0
sI8
F0.04
sI9
F1.0
sI13
F1.0
sI14
F140.0
sI16
F1.0
sI17
F1.0
sI18
F1.0
sI35
F1.0
sI20
F1.0
sI21
F1.0
ssbsg33
g0
(g34
g2
Ntp4140
Rp4141
(dp4142
g38
I0
sbsba(ics475_types
Instance
p4143
(dp4144
g28
(ics475_types
FeatureVector
p4145
(dp4146
g31
(dp4147
I33
F1.0
sI2
F21.5
sI3
F9.75
sI4
F1.0
sI5
F1.0
sI6
F1.0
sI7
F1.0
sI8
F0.25
sI13
F1.0
sI14
F140.0
sI16
F1.0
sI20
F1.0
sI21
F1.0
ssbsg33
g0
(g34
g2
Ntp4148
Rp4149
(dp4150
g38
I0
sbsba(ics475_types
Instance
p4151
(dp4152
g28
(ics475_types
FeatureVector
p4153
(dp4154
g31
(dp4155
I2
F39.58
sI3
F5.0
sI4
F1.0
sI5
F1.0
sI9
F1.0
sI10
F1.0
sI11
F2.0
sI13
F1.0
sI14
F17.0
sI15
F1.0
sI16
F1.0
sI21
F1.0
sI23
F1.0
sI24
F1.0
ssbsg33
g0
(g34
g2
Ntp4156
Rp4157
(dp4158
g38
I0
sbsba(ics475_types
Instance
p4159
(dp4160
g28
(ics475_types
FeatureVector
p4161
(dp4162
g31
(dp4163
I1
F1.0
sI2
F28.75
sI3
F3.75
sI4
F1.0
sI5
F1.0
sI6
F1.0
sI7
F1.0
sI8
F1.085
sI10
F1.0
sI11
F1.0
sI12
F1.0
sI13
F1.0
sI14
F371.0
sI33
F1.0
ssbsg33
g0
(g34
g2
Ntp4164
Rp4165
(dp4166
g38
I1
sbsba(ics475_types
Instance
p4167
(dp4168
g28
(ics475_types
FeatureVector
p4169
(dp4170
g31
(dp4171
I1
F1.0
sI2
F20.08
sI3
F1.25
sI4
F1.0
sI5
F1.0
sI6
F1.0
sI7
F1.0
sI9
F1.0
sI13
F1.0
sI20
F1.0
sI21
F1.0
ssbsg33
g0
(g34
g2
Ntp4172
Rp4173
(dp4174
g38
I0
sbsba(ics475_types
Instance
p4175
(dp4176
g28
(ics475_types
FeatureVector
p4177
(dp4178
g31
(dp4179
I32
F1.0
sI2
F41.5
sI3
F1.54
sI4
F1.0
sI5
F1.0
sI8
F3.5
sI9
F1.0
sI13
F1.0
sI14
F216.0
sI16
F1.0
sI20
F1.0
sI21
F1.0
sI25
F1.0
ssbsg33
g0
(g34
g2
Ntp4180
Rp4181
(dp4182
g38
I1
sbsba(ics475_types
Instance
p4183
(dp4184
g28
(ics475_types
FeatureVector
p4185
(dp4186
g31
(dp4187
I2
F23.58
sI3
F0.835
sI4
F1.0
sI5
F1.0
sI8
F0.085
sI9
F1.0
sI12
F1.0
sI13
F1.0
sI14
F220.0
sI15
F5.0
sI16
F1.0
sI20
F1.0
sI25
F1.0
sI27
F1.0
ssbsg33
g0
(g34
g2
Ntp4188
Rp4189
(dp4190
g38
I0
sbsba(ics475_types
Instance
p4191
(dp4192
g28
(ics475_types
FeatureVector
p4193
(dp4194
g31
(dp4195
I2
F37.5
sI3
F0.835
sI4
F1.0
sI5
F1.0
sI7
F1.0
sI8
F0.04
sI9
F1.0
sI13
F1.0
sI14
F120.0
sI15
F5.0
sI16
F1.0
sI20
F1.0
sI21
F1.0
sI41
F1.0
ssbsg33
g0
(g34
g2
Ntp4196
Rp4197
(dp4198
g38
I0
sbsba(ics475_types
Instance
p4199
(dp4200
g28
(ics475_types
FeatureVector
p4201
(dp4202
g31
(dp4203
I33
F1.0
sI2
F48.33
sI3
F12.0
sI4
F1.0
sI5
F1.0
sI7
F1.0
sI8
F16.0
sI14
F110.0
sI16
F1.0
sI35
F1.0
sI20
F1.0
sI21
F1.0
sI22
F1.0
ssbsg33
g0
(g34
g2
Ntp4204
Rp4205
(dp4206
g38
I1
sbsba(ics475_types
Instance
p4207
(dp4208
g28
(ics475_types
FeatureVector
p4209
(dp4210
g31
(dp4211
I1
F1.0
sI2
F49.0
sI3
F1.5
sI4
F1.0
sI5
F1.0
sI33
F1.0
sI12
F1.0
sI13
F1.0
sI14
F100.0
sI15
F27.0
sI20
F1.0
sI28
F1.0
sI29
F1.0
ssbsg33
g0
(g34
g2
Ntp4212
Rp4213
(dp4214
g38
I0
sbsba(ics475_types
Instance
p4215
(dp4216
g28
(ics475_types
FeatureVector
p4217
(dp4218
g31
(dp4219
I1
F1.0
sI2
F28.67
sI3
F1.04
sI4
F1.0
sI5
F1.0
sI6
F1.0
sI7
F1.0
sI8
F2.5
sI10
F1.0
sI11
F5.0
sI12
F1.0
sI13
F1.0
sI14
F300.0
sI15
F1430.0
sI33
F1.0
ssbsg33
g0
(g34
g2
Ntp4220
Rp4221
(dp4222
g38
I1
sbsba(ics475_types
Instance
p4223
(dp4224
g28
(ics475_types
FeatureVector
p4225
(dp4226
g31
(dp4227
I1
F1.0
sI2
F22.75
sI3
F6.165
sI4
F1.0
sI5
F1.0
sI7
F1.0
sI8
F0.165
sI9
F1.0
sI13
F1.0
sI14
F220.0
sI15
F1000.0
sI20
F1.0
sI21
F1.0
sI37
F1.0
ssbsg33
g0
(g34
g2
Ntp4228
Rp4229
(dp4230
g38
I0
sbsba(ics475_types
Instance
p4231
(dp4232
g28
(ics475_types
FeatureVector
p4233
(dp4234
g31
(dp4235
I1
F1.0
sI2
F16.92
sI3
F0.5
sI4
F1.0
sI5
F1.0
sI7
F1.0
sI8
F0.165
sI9
F1.0
sI10
F1.0
sI11
F6.0
sI12
F1.0
sI13
F1.0
sI14
F240.0
sI15
F35.0
sI25
F1.0
ssbsg33
g0
(g34
g2
Ntp4236
Rp4237
(dp4238
g38
I0
sbsba(ics475_types
Instance
p4239
(dp4240
g28
(ics475_types
FeatureVector
p4241
(dp4242
g31
(dp4243
I1
F1.0
sI2
F20.42
sI3
F10.5
sI39
F1.0
sI9
F1.0
sI12
F1.0
sI13
F1.0
sI14
F154.0
sI15
F32.0
sI17
F1.0
sI18
F1.0
sI20
F1.0
sI27
F1.0
ssbsg33
g0
(g34
g2
Ntp4244
Rp4245
(dp4246
g38
I0
sbsba(ics475_types
Instance
p4247
(dp4248
g28
(ics475_types
FeatureVector
p4249
(dp4250
g31
(dp4251
I32
F1.0
sI2
F40.58
sI3
F1.5
sI4
F1.0
sI5
F1.0
sI9
F1.0
sI14
F300.0
sI16
F1.0
sI20
F1.0
sI21
F1.0
sI22
F1.0
sI25
F1.0
ssbsg33
g0
(g34
g2
Ntp4252
Rp4253
(dp4254
g38
I0
sbsba(ics475_types
Instance
p4255
(dp4256
g28
(ics475_types
FeatureVector
p4257
(dp4258
g31
(dp4259
I33
F1.0
sI2
F55.92
sI3
F11.5
sI4
F1.0
sI5
F1.0
sI8
F5.0
sI10
F1.0
sI11
F5.0
sI13
F1.0
sI15
F8851.0
sI16
F1.0
sI21
F1.0
sI23
F1.0
sI24
F1.0
ssbsg33
g0
(g34
g2
Ntp4260
Rp4261
(dp4262
g38
I1
sbsba(ics475_types
Instance
p4263
(dp4264
g28
(ics475_types
FeatureVector
p4265
(dp4266
g31
(dp4267
I32
F1.0
sI33
F1.0
sI2
F34.08
sI3
F0.08
sI8
F0.04
sI10
F1.0
sI11
F1.0
sI12
F1.0
sI13
F1.0
sI14
F280.0
sI15
F2000.0
sI16
F1.0
sI17
F1.0
sI18
F1.0
sI35
F1.0
ssbsg33
g0
(g34
g2
Ntp4268
Rp4269
(dp4270
g38
I1
sbsba(ics475_types
Instance
p4271
(dp4272
g28
(ics475_types
FeatureVector
p4273
(dp4274
g31
(dp4275
I32
F1.0
sI2
F43.17
sI3
F5.0
sI4
F1.0
sI5
F1.0
sI8
F2.25
sI9
F1.0
sI12
F1.0
sI13
F1.0
sI14
F141.0
sI16
F1.0
sI20
F1.0
sI25
F1.0
ssbsg33
g0
(g34
g2
Ntp4276
Rp4277
(dp4278
g38
I0
sbsba(ics475_types
Instance
p4279
(dp4280
g28
(ics475_types
FeatureVector
p4281
(dp4282
g31
(dp4283
I2
F29.58
sI3
F4.75
sI4
F1.0
sI5
F1.0
sI7
F1.0
sI8
F2.0
sI9
F1.0
sI10
F1.0
sI11
F1.0
sI12
F1.0
sI13
F1.0
sI14
F460.0
sI15
F68.0
sI16
F1.0
sI35
F1.0
ssbsg33
g0
(g34
g2
Ntp4284
Rp4285
(dp4286
g38
I0
sbsba(ics475_types
Instance
p4287
(dp4288
g28
(ics475_types
FeatureVector
p4289
(dp4290
g31
(dp4291
I1
F1.0
sI2
F41.58
sI3
F1.04
sI4
F1.0
sI5
F1.0
sI7
F1.0
sI8
F0.665
sI9
F1.0
sI13
F1.0
sI14
F240.0
sI15
F237.0
sI20
F1.0
sI21
F1.0
sI37
F1.0
ssbsg33
g0
(g34
g2
Ntp4292
Rp4293
(dp4294
g38
I0
sbsba(ics475_types
Instance
p4295
(dp4296
g28
(ics475_types
FeatureVector
p4297
(dp4298
g31
(dp4299
I2
F22.08
sI3
F2.335
sI4
F1.0
sI5
F1.0
sI7
F1.0
sI8
F0.75
sI9
F1.0
sI13
F1.0
sI14
F180.0
sI16
F1.0
sI19
F1.0
sI20
F1.0
sI21
F1.0
ssbsg33
g0
(g34
g2
Ntp4300
Rp4301
(dp4302
g38
I0
sbsba(ics475_types
Instance
p4303
(dp4304
g28
(ics475_types
FeatureVector
p4305
(dp4306
g31
(dp4307
I2
F26.33
sI3
F13.0
sI4
F1.0
sI5
F1.0
sI9
F1.0
sI43
F1.0
sI12
F1.0
sI13
F1.0
sI14
F140.0
sI15
F1110.0
sI16
F1.0
sI20
F1.0
sI41
F1.0
ssbsg33
g0
(g34
g2
Ntp4308
Rp4309
(dp4310
g38
I0
sbsba(ics475_types
Instance
p4311
(dp4312
g28
(ics475_types
FeatureVector
p4313
(dp4314
g31
(dp4315
I33
F1.0
sI2
F62.5
sI3
F12.75
sI6
F1.0
sI8
F5.0
sI13
F1.0
sI14
F112.0
sI16
F1.0
sI17
F1.0
sI18
F1.0
sI20
F1.0
sI21
F1.0
sI27
F1.0
ssbsg33
g0
(g34
g2
Ntp4316
Rp4317
(dp4318
g38
I0
sbsba(ics475_types
Instance
p4319
(dp4320
g28
(ics475_types
FeatureVector
p4321
(dp4322
g31
(dp4323
I33
F1.0
sI2
F40.25
sI3
F21.5
sI4
F1.0
sI5
F1.0
sI8
F20.0
sI41
F1.0
sI10
F1.0
sI11
F11.0
sI13
F1.0
sI15
F1200.0
sI16
F1.0
sI21
F1.0
sI42
F1.0
ssbsg33
g0
(g34
g2
Ntp4324
Rp4325
(dp4326
g38
I1
sbsba(ics475_types
Instance
p4327
(dp4328
g28
(ics475_types
FeatureVector
p4329
(dp4330
g31
(dp4331
I32
F1.0
sI1
F1.0
sI2
F47.0
sI3
F13.0
sI4
F1.0
sI5
F1.0
sI33
F1.0
sI8
F5.165
sI10
F1.0
sI11
F9.0
sI12
F1.0
sI13
F1.0
sI25
F1.0
ssbsg33
g0
(g34
g2
Ntp4332
Rp4333
(dp4334
g38
I1
sbsba(ics475_types
Instance
p4335
(dp4336
g28
(ics475_types
FeatureVector
p4337
(dp4338
g31
(dp4339
I1
F1.0
sI2
F25.75
sI3
F0.5
sI4
F1.0
sI5
F1.0
sI6
F1.0
sI33
F1.0
sI8
F0.875
sI12
F1.0
sI13
F1.0
sI14
F491.0
sI20
F1.0
sI27
F1.0
ssbsg33
g0
(g34
g2
Ntp4340
Rp4341
(dp4342
g38
I1
sbsba(ics475_types
Instance
p4343
(dp4344
g28
(ics475_types
FeatureVector
p4345
(dp4346
g31
(dp4347
I2
F16.33
sI3
F2.75
sI4
F1.0
sI5
F1.0
sI7
F1.0
sI8
F0.665
sI9
F1.0
sI10
F1.0
sI11
F1.0
sI13
F1.0
sI14
F80.0
sI15
F21.0
sI16
F1.0
sI21
F1.0
sI37
F1.0
ssbsg33
g0
(g34
g2
Ntp4348
Rp4349
(dp4350
g38
I0
sbsba(ics475_types
Instance
p4351
(dp4352
g28
(ics475_types
FeatureVector
p4353
(dp4354
g31
(dp4355
I33
F1.0
sI2
F25.75
sI3
F0.5
sI4
F1.0
sI5
F1.0
sI6
F1.0
sI7
F1.0
sI8
F1.46
sI10
F1.0
sI11
F5.0
sI12
F1.0
sI13
F1.0
sI14
F312.0
sI16
F1.0
ssbsg33
g0
(g34
g2
Ntp4356
Rp4357
(dp4358
g38
I1
sbsba(ics475_types
Instance
p4359
(dp4360
g28
(ics475_types
FeatureVector
p4361
(dp4362
g31
(dp4363
I2
F24.75
sI3
F0.54
sI4
F1.0
sI5
F1.0
sI7
F1.0
sI8
F1.0
sI9
F1.0
sI12
F1.0
sI13
F1.0
sI14
F120.0
sI15
F1.0
sI16
F1.0
sI35
F1.0
sI20
F1.0
ssbsg33
g0
(g34
g2
Ntp4364
Rp4365
(dp4366
g38
I0
sbsba(ics475_types
Instance
p4367
(dp4368
g28
(ics475_types
FeatureVector
p4369
(dp4370
g31
(dp4371
I33
F1.0
sI2
F21.0
sI3
F4.79
sI7
F1.0
sI8
F2.25
sI10
F1.0
sI11
F1.0
sI12
F1.0
sI13
F1.0
sI14
F80.0
sI15
F300.0
sI16
F1.0
sI17
F1.0
sI18
F1.0
sI31
F1.0
ssbsg33
g0
(g34
g2
Ntp4372
Rp4373
(dp4374
g38
I1
sbsba(ics475_types
Instance
p4375
(dp4376
g28
(ics475_types
FeatureVector
p4377
(dp4378
g31
(dp4379
I2
F21.08
sI3
F4.125
sI8
F0.04
sI9
F1.0
sI13
F1.0
sI14
F140.0
sI15
F100.0
sI16
F1.0
sI17
F1.0
sI18
F1.0
sI20
F1.0
sI21
F1.0
sI25
F1.0
sI27
F1.0
ssbsg33
g0
(g34
g2
Ntp4380
Rp4381
(dp4382
g38
I0
sbsba(ics475_types
Instance
p4383
(dp4384
g28
(ics475_types
FeatureVector
p4385
(dp4386
g31
(dp4387
I33
F1.0
sI2
F24.33
sI3
F6.625
sI7
F1.0
sI8
F5.5
sI12
F1.0
sI34
F1.0
sI14
F100.0
sI16
F1.0
sI17
F1.0
sI18
F1.0
sI20
F1.0
sI22
F1.0
ssbsg33
g0
(g34
g2
Ntp4388
Rp4389
(dp4390
g38
I1
sbsba(ics475_types
Instance
p4391
(dp4392
g28
(ics475_types
FeatureVector
p4393
(dp4394
g31
(dp4395
I2
F27.83
sI3
F1.5
sI4
F1.0
sI5
F1.0
sI7
F1.0
sI8
F2.25
sI9
F1.0
sI10
F1.0
sI11
F1.0
sI12
F1.0
sI13
F1.0
sI14
F100.0
sI15
F3.0
sI16
F1.0
sI31
F1.0
ssbsg33
g0
(g34
g2
Ntp4396
Rp4397
(dp4398
g38
I0
sbsba(ics475_types
Instance
p4399
(dp4400
g28
(ics475_types
FeatureVector
p4401
(dp4402
g31
(dp4403
I33
F1.0
sI2
F28.92
sI3
F15.0
sI4
F1.0
sI5
F1.0
sI6
F1.0
sI8
F5.335
sI10
F1.0
sI11
F11.0
sI13
F1.0
sI15
F2283.0
sI16
F1.0
sI21
F1.0
sI27
F1.0
ssbsg33
g0
(g34
g2
Ntp4404
Rp4405
(dp4406
g38
I1
sbsba(ics475_types
Instance
p4407
(dp4408
g28
(ics475_types
FeatureVector
p4409
(dp4410
g31
(dp4411
I1
F1.0
sI2
F33.08
sI3
F1.625
sI4
F1.0
sI5
F1.0
sI7
F1.0
sI8
F0.54
sI9
F1.0
sI12
F1.0
sI13
F1.0
sI34
F1.0
sI20
F1.0
ssbsg33
g0
(g34
g2
Ntp4412
Rp4413
(dp4414
g38
I0
sbsba(ics475_types
Instance
p4415
(dp4416
g28
(ics475_types
FeatureVector
p4417
(dp4418
g31
(dp4419
I32
F1.0
sI2
F26.75
sI3
F4.5
sI6
F1.0
sI8
F2.5
sI9
F1.0
sI13
F1.0
sI14
F200.0
sI15
F1210.0
sI16
F1.0
sI17
F1.0
sI18
F1.0
sI20
F1.0
sI21
F1.0
ssbsg33
g0
(g34
g2
Ntp4420
Rp4421
(dp4422
g38
I0
sbsba(ics475_types
Instance
p4423
(dp4424
g28
(ics475_types
FeatureVector
p4425
(dp4426
g31
(dp4427
I32
F1.0
sI33
F1.0
sI2
F56.58
sI3
F18.5
sI4
F1.0
sI5
F1.0
sI8
F15.0
sI10
F1.0
sI11
F17.0
sI12
F1.0
sI13
F1.0
sI16
F1.0
sI34
F1.0
ssbsg33
g0
(g34
g2
Ntp4428
Rp4429
(dp4430
g38
I1
sbsbasS'weights'
p4431
g9
(g10
(I0
tp4432
g12
tp4433
Rp4434
(I1
(I230
tp4435
g19
I00
S'\x00\x00\x00\x00\x00\x009\xc0N\x99\x99\x99\x99\xd9G\xc0\x96\x99\x99\x99\x991e@\x00\x00\x00\x00\x00\x008@\x00\x00\x00\x00\x00\x008@\x00\x00\x00\x00\x00\x000\xc0\x00\x00\x00\x00\x00\x00T\xc0+\x85\xebQ\xb8\x93\x8b@\x00\x00\x00\x00\x00\xf0y\xc0\x00\x00\x00\x00\x00@]@\x00\x00\x00\x00\x00\xe4\x90@\x00\x00\x00\x00\x00\x00<@\x00\x00\x00\x00\x00@U\xc0\x00\x00\x00\x00\x00h\x88\xc0\x00\x00\x00\x00\x003\xb7@\x00\x00\x00\x00\x00\x00?\xc0\x00\x00\x00\x00\x00@U\xc0\x00\x00\x00\x00\x00@U\xc0\x00\x00\x00\x00\x00\x00$\xc0\x00\x00\x00\x00\x00\xa0e\xc0\x00\x00\x00\x00\x00\x00U\xc0\x00\x00\x00\x00\x00\x00=@\x00\x00\x00\x00\x00\x80P\xc0\x00\x00\x00\x00\x00\x80O\xc0\x00\x00\x00\x00\x00\x80N\xc0\x00\x00\x00\x00\x00\x00\x14\xc0\x00\x00\x00\x00\x00@U@\x00\x00\x00\x00\x00\x00 \xc0\x00\x00\x00\x00\x00\x00\x00@\x00\x00\x00\x00\x00\x00D@\x00\x00\x00\x00\x00\x00 @\x00\x00\x00\x00\x00\x00\x00\xc0\x00\x00\x00\x00\x00pv@\x00\x00\x00\x00\x00\x00 \xc0\x00\x00\x00\x00\x00\x00\x1c@\x00\x00\x00\x00\x00\x009@\x00\x00\x00\x00\x00\x80A\xc0\x00\x00\x00\x00\x00\x00\x14@\x00\x00\x00\x00\x00\x80K@\x00\x00\x00\x00\x00\x00\xf0?\x00\x00\x00\x00\x00\x00 @\x00\x00\x00\x00\x00\x00.@\x00\x00\x00\x00\x00\x00"\xc0\x00\x00\x00\x00\x00\x00\x14@\x00\x00\x00\x00\x00\x00\x14@\x00\x00\x00\x00\x00\x00\x00\x00\x00\x00\x00\x00\x00\x00\x00\x00\x00\x00\x00\x00\x00\x00\x00\x00\x00\x00\x00\x00\x00\x00\x00\x00\x00\x00\x00\x00\x00\x00\x00\x00\x00\x00\x00\x00\x00\x00\x00\x00\x00\x00\x00\x00\x00\x00\x00\x00\x00\x00\x00\x00\x00\x00\x00\x00\x00\x00\x00\x00\x00\x00\x00\x00\x00\x00\x00\x00\x00\x00\x00\x00\x00\x00\x00\x00\x00\x00\x00\x00\x00\x00\x00\x00\x00\x00\x00\x00\x00\x00\x00\x00\x00\x00\x00\x00\x00\x00\x00\x00\x00\x00\x00\x00\x00\x00\x00\x00\x00\x00\x00\x00\x00\x00\x00\x00\x00\x00\x00\x00\x00\x00\x00\x00\x00\x00\x00\x00\x00\x00\x00\x00\x00\x00\x00\x00\x00\x00\x00\x00\x00\x00\x00\x00\x00\x00\x00\x00\x00\x00\x00\x00\x00\x00\x00\x00\x00\x00\x00\x00\x00\x00\x00\x00\x00\x00\x00\x00\x00\x00\x00\x00\x00\x00\x00\x00\x00\x00\x00\x00\x00\x00\x00\x00\x00\x00\x00\x00\x00\x00\x00\x00\x00\x00\x00\x00\x00\x00\x00\x00\x00\x00\x00\x00\x00\x00\x00\x00\x00\x00\x00\x00\x00\x00\x00\x00\x00\x00\x00\x00\x00\x00\x00\x00\x00\x00\x00\x00\x00\x00\x00\x00\x00\x00\x00\x00\x00\x00\x00\x00\x00\x00\x00\x00\x00\x00\x00\x00\x00\x00\x00\x00\x00\x00\x00\x00\x00\x00\x00\x00\x00\x00\x00\x00\x00\x00\x00\x00\x00\x00\x00\x00\x00\x00\x00\x00\x00\x00\x00\x00\x00\x00\x00\x00\x00\x00\x00\x00\x00\x00\x00\x00\x00\x00\x00\x00\x00\x00\x00\x00\x00\x00\x00\x00\x00\x00\x00\x00\x00\x00\x00\x00\x00\x00\x00\x00\x00\x00\x00\x00\x00\x00\x00\x00\x00\x00\x00\x00\x00\x00\x00\x00\x00\x00\x00\x00\x00\x00\x00\x00\x00\x00\x00\x00\x00\x00\x00\x00\x00\x00\x00\x00\x00\x00\x00\x00\x00\x00\x00\x00\x00\x00\x00\x00\x00\x00\x00\x00\x00\x00\x00\x00\x00\x00\x00\x00\x00\x00\x00\x00\x00\x00\x00\x00\x00\x00\x00\x00\x00\x00\x00\x00\x00\x00\x00\x00\x00\x00\x00\x00\x00\x00\x00\x00\x00\x00\x00\x00\x00\x00\x00\x00\x00\x00\x00\x00\x00\x00\x00\x00\x00\x00\x00\x00\x00\x00\x00\x00\x00\x00\x00\x00\x00\x00\x00\x00\x00\x00\x00\x00\x00\x00\x00\x00\x00\x00\x00\x00\x00\x00\x00\x00\x00\x00\x00\x00\x00\x00\x00\x00\x00\x00\x00\x00\x00\x00\x00\x00\x00\x00\x00\x00\x00\x00\x00\x00\x00\x00\x00\x00\x00\x00\x00\x00\x00\x00\x00\x00\x00\x00\x00\x00\x00\x00\x00\x00\x00\x00\x00\x00\x00\x00\x00\x00\x00\x00\x00\x00\x00\x00\x00\x00\x00\x00\x00\x00\x00\x00\x00\x00\x00\x00\x00\x00\x00\x00\x00\x00\x00\x00\x00\x00\x00\x00\x00\x00\x00\x00\x00\x00\x00\x00\x00\x00\x00\x00\x00\x00\x00\x00\x00\x00\x00\x00\x00\x00\x00\x00\x00\x00\x00\x00\x00\x00\x00\x00\x00\x00\x00\x00\x00\x00\x00\x00\x00\x00\x00\x00\x00\x00\x00\x00\x00\x00\x00\x00\x00\x00\x00\x00\x00\x00\x00\x00\x00\x00\x00\x00\x00\x00\x00\x00\x00\x00\x00\x00\x00\x00\x00\x00\x00\x00\x00\x00\x00\x00\x00\x00\x00\x00\x00\x00\x00\x00\x00\x00\x00\x00\x00\x00\x00\x00\x00\x00\x00\x00\x00\x00\x00\x00\x00\x00\x00\x00\x00\x00\x00\x00\x00\x00\x00\x00\x00\x00\x00\x00\x00\x00\x00\x00\x00\x00\x00\x00\x00\x00\x00\x00\x00\x00\x00\x00\x00\x00\x00\x00\x00\x00\x00\x00\x00\x00\x00\x00\x00\x00\x00\x00\x00\x00\x00\x00\x00\x00\x00\x00\x00\x00\x00\x00\x00\x00\x00\x00\x00\x00\x00\x00\x00\x00\x00\x00\x00\x00\x00\x00\x00\x00\x00\x00\x00\x00\x00\x00\x00\x00\x00\x00\x00\x00\x00\x00\x00\x00\x00\x00\x00\x00\x00\x00\x00\x00\x00\x00\x00\x00\x00\x00\x00\x00\x00\x00\x00\x00\x00\x00\x00\x00\x00\x00\x00\x00\x00\x00\x00\x00\x00\x00\x00\x00\x00\x00\x00\x00\x00\x00\x00\x00\x00\x00\x00\x00\x00\x00\x00\x00\x00\x00\x00\x00\x00\x00\x00\x00\x00\x00\x00\x00\x00\x00\x00\x00\x00\x00\x00\x00\x00\x00\x00\x00\x00\x00\x00\x00\x00\x00\x00\x00\x00\x00\x00\x00\x00\x00\x00\x00\x00\x00\x00\x00\x00\x00\x00\x00\x00\x00\x00\x00\x00\x00\x00\x00\x00\x00\x00\x00\x00\x00\x00\x00\x00\x00\x00\x00\x00\x00\x00\x00\x00\x00\x00\x00\x00\x00\x00\x00\x00\x00\x00\x00\x00\x00\x00\x00\x00\x00\x00\x00\x00\x00\x00\x00\x00\x00\x00\x00\x00\x00\x00\x00\x00\x00\x00\x00\x00\x00\x00\x00\x00\x00\x00\x00\x00\x00\x00\x00\x00\x00\x00\x00\x00\x00\x00\x00\x00\x00\x00\x00\x00\x00\x00\x00\x00\x00\x00\x00\x00\x00\x00\x00\x00\x00\x00\x00\x00\x00\x00\x00\x00\x00\x00\x00\x00\x00\x00\x00\x00\x00\x00\x00\x00\x00\x00\x00\x00\x00\x00\x00\x00\x00\x00\x00\x00\x00\x00\x00\x00\x00\x00\x00\x00\x00\x00\x00\x00\x00\x00\x00\x00\x00\x00\x00\x00\x00\x00\x00\x00\x00\x00\x00\x00\x00\x00\x00\x00\x00\x00\x00\x00\x00\x00\x00\x00\x00\x00\x00\x00\x00\x00\x00\x00\x00\x00\x00\x00\x00\x00\x00\x00\x00\x00\x00\x00\x00\x00\x00\x00\x00\x00\x00\x00\x00\x00\x00\x00\x00\x00\x00\x00\x00\x00\x00\x00\x00\x00\x00\x00\x00\x00\x00\x00\x00\x00\x00\x00\x00\x00\x00\x00\x00\x00\x00\x00\x00\x00\x00\x00\x00\x00\x00\x00\x00\x00\x00\x00\x00\x00\x00\x00\x00\x00\x00\x00\x00\x00\x00\x00\x00\x00\x00\x00\x00\x00\x00\x00\x00\x00\x00\x00\x00\x00\x00\x00\x00\x00\x00\x00\x00\x00\x00\x00\x00\x00\x00\x00\x00\x00\x00\x00\x00\x00\x00\x00\x00\x00\x00\x00\x00\x00\x00\x00\x00\x00\x00\x00\x00\x00\x00\x00\x00\x00\x00\x00\x00\x00\x00\x00\x00\x00\x00\x00\x00\x00\x00\x00\x00\x00\x00\x00\x00\x00\x00\x00\x00\x00\x00\x00\x00\x00\x00\x00\x00\x00\x00\x00\x00\x00\x00\x00\x00\x00\x00\x00\x00\x00\x00\x00\x00\x00\x00\x00\x00\x00\x00\x00\x00\x00\x00\x00\x00\x00\x00\x00\x00\x00\x00\x00\x00\x00\x00\x00\x00\x00\x00\x00\x00\x00\x00\x00\x00\x00\x00\x00\x00\x00\x00\x00\x00\x00\x00\x00\x00\x00\x00\x00\x00\x00\x00\x00\x00\x00\x00\x00\x00\x00\x00\x00\x00\x00\x00\x00\x00\x00\x00\x00\x00\x00\x00\x00\x00\x00\x00\x00\x00\x00\x00\x00\x00\x00\x00\x00\x00\x00\x00\x00\x00\x00\x00\x00\x00\x00\x00\x00\x00\x00\x00\x00\x00\x00\x00\x00\x00\x00\x00\x00\x00\x00\x00\x00\x00\x00\x00\x00\x00\x00\x00\x00\x00\x00\x00\x00\x00\x00\x00\x00\x00\x00\x00\x00\x00\x00\x00\x00\x00\x00\x00\x00\x00\x00\x00\x00\x00\x00\x00\x00\x00\x00\x00\x00\x00\x00\x00\x00\x00\x00\x00\x00\x00\x00\x00\x00\x00\x00\x00\x00\x00\x00\x00\x00\x00\x00\x00\x00\x00\x00\x00\x00\x00\x00\x00\x00\x00\x00\x00\x00\x00\x00\x00\x00\x00\x00\x00\x00\x00\x00\x00\x00\x00\x00\x00\x00\x00\x00\x00\x00\x00\x00\x00\x00\x00\x00\x00\x00\x00\x00\x00\x00\x00\x00\x00\x00\x00\x00\x00\x00\x00\x00\x00\x00\x00\x00\x00\x00\x00\x00\x00\x00\x00\x00\x00\x00\x00\x00\x00\x00\x00\x00\x00\x00\x00\x00\x00\x00\x00\x00\x00\x00\x00\x00\x00\x00\x00\x00\x00\x00\x00\x00\x00\x00\x00\x00\x00\x00\x00\x00\x00\x00\x00\x00\x00\x00\x00'
p4436
tp4437
bsS'high_idx'
p4438
I46
sb.